MSP430 Assembler PC v15.12.3 Mon Oct 17 14:33:02 2016

Tools Copyright (c) 2003-2015 Texas Instruments Incorporated
C:\Users\madis\AppData\Local\Temp\041722                             PAGE    1

       1            ;******************************************************************************
       2            ;* MSP430 C/C++ Codegen                                       PC v15.12.3.LTS *
       3            ;* Date/Time created: Mon Oct 17 14:33:02 2016                                *
       4            ;******************************************************************************
       5                    .compiler_opts --abi=eabi --diag_wrap=off --hll_source=on --mem_model:code=large --mem_model:d
       6            
       7            $C$DW$CU        .dwtag  DW_TAG_compile_unit
       8                    .dwattr $C$DW$CU, DW_AT_name("../MSP430F5xx_6xx/comp_b.c")
       9                    .dwattr $C$DW$CU, DW_AT_producer("TI MSP430 C/C++ Codegen PC v15.12.3.LTS Copyright (c) 2003-2
      10                    .dwattr $C$DW$CU, DW_AT_TI_version(0x01)
      11                    .dwattr $C$DW$CU, DW_AT_comp_dir("D:\CodeComposerProj\CardReader001\src\Debug")
      12            ;       D:\ti\ccsv6\tools\compiler\msp430_15.12.3.LTS\bin\opt430.exe D:/CodeComposerProj/CardReader001
      13 000000               .sect   ".text:Comp_B_init"
      14                    .clink
      15                    .global Comp_B_init
      16            
      17            $C$DW$1 .dwtag  DW_TAG_subprogram
      18                    .dwattr $C$DW$1, DW_AT_name("Comp_B_init")
      19                    .dwattr $C$DW$1, DW_AT_low_pc(Comp_B_init)
      20                    .dwattr $C$DW$1, DW_AT_high_pc(0x00)
      21                    .dwattr $C$DW$1, DW_AT_TI_symbol_name("Comp_B_init")
      22                    .dwattr $C$DW$1, DW_AT_external
      23                    .dwattr $C$DW$1, DW_AT_type(*$C$DW$T$69)
      24                    .dwattr $C$DW$1, DW_AT_TI_begin_file("../MSP430F5xx_6xx/comp_b.c")
      25                    .dwattr $C$DW$1, DW_AT_TI_begin_line(0x34)
      26                    .dwattr $C$DW$1, DW_AT_TI_begin_column(0x06)
      27                    .dwattr $C$DW$1, DW_AT_decl_file("../MSP430F5xx_6xx/comp_b.c")
      28                    .dwattr $C$DW$1, DW_AT_decl_line(0x34)
      29                    .dwattr $C$DW$1, DW_AT_decl_column(0x06)
      30                    .dwattr $C$DW$1, DW_AT_TI_max_frame_size(0x08)
      31                    .dwpsn  file "../MSP430F5xx_6xx/comp_b.c",line 54,column 1,is_stmt,address Comp_B_init,isa 0
      32            
      33                    .dwfde $C$DW$CIE, Comp_B_init
      34            $C$DW$2 .dwtag  DW_TAG_formal_parameter
      35                    .dwattr $C$DW$2, DW_AT_name("baseAddress")
      36                    .dwattr $C$DW$2, DW_AT_TI_symbol_name("baseAddress")
      37                    .dwattr $C$DW$2, DW_AT_type(*$C$DW$T$19)
      38                    .dwattr $C$DW$2, DW_AT_location[DW_OP_reg12]
      39            
      40            $C$DW$3 .dwtag  DW_TAG_formal_parameter
      41                    .dwattr $C$DW$3, DW_AT_name("param")
      42                    .dwattr $C$DW$3, DW_AT_TI_symbol_name("param")
      43                    .dwattr $C$DW$3, DW_AT_type(*$C$DW$T$27)
      44                    .dwattr $C$DW$3, DW_AT_location[DW_OP_reg13]
      45            
      46            
      47            ;*****************************************************************************
      48            ;* FUNCTION NAME: Comp_B_init                                                *
      49            ;*                                                                           *
      50            ;*   Regs Modified     : SP,SR,r10,r11,r12,r13,r14,r15                       *
      51            ;*   Regs Used         : SP,SR,r10,r11,r12,r13,r14,r15                       *
      52            ;*   Local Frame Size  : 0 Args + 0 Auto + 4 Save = 4 byte                   *
      53            ;*****************************************************************************
      54 000000       Comp_B_init:
      55            ;* --------------------------------------------------------------------------*
MSP430 Assembler PC v15.12.3 Mon Oct 17 14:33:02 2016

Tools Copyright (c) 2003-2015 Texas Instruments Incorporated
C:\Users\madis\AppData\Local\Temp\041722                             PAGE    2

      56                    .dwcfi  cfa_offset, 4
      57                    .dwcfi  save_reg_to_mem, 16, -4
      58 000000 140A          PUSHM.A   #1,r10                ; [] 
      59                    .dwcfi  save_reg_to_mem, 10, -8
      60                    .dwcfi  cfa_offset, 8
      61            ;* r15   assigned to baseAddress
      62            $C$DW$4 .dwtag  DW_TAG_variable
      63                    .dwattr $C$DW$4, DW_AT_name("baseAddress")
      64                    .dwattr $C$DW$4, DW_AT_TI_symbol_name("baseAddress")
      65                    .dwattr $C$DW$4, DW_AT_type(*$C$DW$T$19)
      66                    .dwattr $C$DW$4, DW_AT_location[DW_OP_reg15]
      67            
      68            ;* r11   assigned to param
      69            $C$DW$5 .dwtag  DW_TAG_variable
      70                    .dwattr $C$DW$5, DW_AT_name("param")
      71                    .dwattr $C$DW$5, DW_AT_TI_symbol_name("param")
      72                    .dwattr $C$DW$5, DW_AT_type(*$C$DW$T$27)
      73                    .dwattr $C$DW$5, DW_AT_location[DW_OP_reg11]
      74            
      75            ;* r14   assigned to retVal
      76            $C$DW$6 .dwtag  DW_TAG_variable
      77                    .dwattr $C$DW$6, DW_AT_name("retVal")
      78                    .dwattr $C$DW$6, DW_AT_TI_symbol_name("retVal")
      79                    .dwattr $C$DW$6, DW_AT_type(*$C$DW$T$69)
      80                    .dwattr $C$DW$6, DW_AT_location[DW_OP_reg14]
      81            
      82 000002 0DCB          MOVA      r13,r11               ; [] |54| 
      83 000004 0CCF          MOVA      r12,r15               ; [] |54| 
      84                    .dwpsn  file "../MSP430F5xx_6xx/comp_b.c",line 55,column 17,is_stmt,isa 0
      85 000006 435E          MOV.B     #1,r14                ; [] |55| 
      86                    .dwpsn  file "../MSP430F5xx_6xx/comp_b.c",line 61,column 5,is_stmt,isa 0
      87 000008 4F2D          MOV.W     @r15,r13              ; [] |61| 
      88 00000a 438F          MOV.W     #0,0(r15)             ; [] |61| 
         00000c 0000 
      89                    .dwpsn  file "../MSP430F5xx_6xx/comp_b.c",line 62,column 5,is_stmt,isa 0
      90 00000e 0FCD          MOVA      r15,r13               ; [] |62| 
      91 000010 503D          ADD.W     #12,r13               ; [] |62| 
         000012 000C 
      92 000014 4D0D          MOV.W     r13,r13               ; [] |62| 
      93 000016 4D2C          MOV.W     @r13,r12              ; [] |62| 
      94 000018 438D          MOV.W     #0,0(r13)             ; [] |62| 
         00001a 0000 
      95                    .dwpsn  file "../MSP430F5xx_6xx/comp_b.c",line 65,column 5,is_stmt,isa 0
      96 00001c 0FCD          MOVA      r15,r13               ; [] |65| 
      97 00001e 522D          ADD.W     #4,r13                ; [] |65| 
      98 000020 4D0D          MOV.W     r13,r13               ; [] |65| 
      99 000022 F0BD          AND.W     #40767,0(r13)         ; [] |65| 
         000024 9F3F 
         000026 0000 
     100                    .dwpsn  file "../MSP430F5xx_6xx/comp_b.c",line 68,column 5,is_stmt,isa 0
     101 000028 403D          MOV.W     #16,r13               ; [] |68| 
         00002a 0010 
     102 00002c 9B6D          CMP.B     @r11,r13              ; [] |68| 
     103 00002e 2007          JNE       $C$L1                 ; [] |68| 
     104                                                      ; [] |68| 
MSP430 Assembler PC v15.12.3 Mon Oct 17 14:33:02 2016

Tools Copyright (c) 2003-2015 Texas Instruments Incorporated
C:\Users\madis\AppData\Local\Temp\041722                             PAGE    3

     105            ;* --------------------------------------------------------------------------*
     106                    .dwpsn  file "../MSP430F5xx_6xx/comp_b.c",line 81,column 9,is_stmt,isa 0
     107 000030 0FCD          MOVA      r15,r13               ; [] |81| 
     108 000032 522D          ADD.W     #4,r13                ; [] |81| 
     109 000034 4D0D          MOV.W     r13,r13               ; [] |81| 
     110 000036 F0BD          AND.W     #65503,0(r13)         ; [] |81| 
         000038 FFDF 
         00003a 0000 
     111 00003c 3C0F          JMP       $C$L2                 ; [] |81| 
     112                                                      ; [] |81| 
     113            ;* --------------------------------------------------------------------------*
     114 00003e       $C$L1:    
     115                    .dwpsn  file "../MSP430F5xx_6xx/comp_b.c",line 71,column 9,is_stmt,isa 0
     116 00003e 4B6D          MOV.B     @r11,r13              ; [] |71| 
     117 000040 503D          ADD.W     #128,r13              ; [] |71| 
         000042 0080 
     118 000044 DD8F          OR.W      r13,0(r15)            ; [] |71| 
         000046 0000 
     119                    .dwpsn  file "../MSP430F5xx_6xx/comp_b.c",line 75,column 9,is_stmt,isa 0
     120 000048 0FCD          MOVA      r15,r13               ; [] |75| 
     121 00004a 503D          ADD.W     #6,r13                ; [] |75| 
         00004c 0006 
     122 00004e 4D0A          MOV.W     r13,r10               ; [] |75| 
     123 000050 4B6D          MOV.B     @r11,r13              ; [] |75| 
     124 000052 431C          MOV.W     #1,r12                ; [] |75| 
     125            $C$DW$7 .dwtag  DW_TAG_TI_branch
     126                    .dwattr $C$DW$7, DW_AT_low_pc(0x00)
     127                    .dwattr $C$DW$7, DW_AT_name("__mspabi_slli")
     128                    .dwattr $C$DW$7, DW_AT_TI_call
     129            
     130 000054 13B0!         CALLA     #__mspabi_slli        ; [] |75| 
         000056 0000 
     131                                                      ; [] |75| 
     132 000058 DC8A          OR.W      r12,0(r10)            ; [] |75| 
         00005a 0000 
     133            ;* --------------------------------------------------------------------------*
     134 00005c       $C$L2:    
     135                    .dwpsn  file "../MSP430F5xx_6xx/comp_b.c",line 85,column 5,is_stmt,isa 0
     136 00005c 90FB          CMP.B     #16,1(r11)            ; [] |85| 
         00005e 0010 
         000060 0001 
     137 000062 2007          JNE       $C$L3                 ; [] |85| 
     138                                                      ; [] |85| 
     139            ;* --------------------------------------------------------------------------*
     140                    .dwpsn  file "../MSP430F5xx_6xx/comp_b.c",line 98,column 9,is_stmt,isa 0
     141 000064 0FCD          MOVA      r15,r13               ; [] |98| 
     142 000066 522D          ADD.W     #4,r13                ; [] |98| 
     143 000068 4D0D          MOV.W     r13,r13               ; [] |98| 
     144 00006a D0BD          OR.W      #32,0(r13)            ; [] |98| 
         00006c 0020 
         00006e 0000 
     145 000070 3C13          JMP       $C$L4                 ; [] |98| 
     146                                                      ; [] |98| 
     147            ;* --------------------------------------------------------------------------*
     148 000072       $C$L3:    
MSP430 Assembler PC v15.12.3 Mon Oct 17 14:33:02 2016

Tools Copyright (c) 2003-2015 Texas Instruments Incorporated
C:\Users\madis\AppData\Local\Temp\041722                             PAGE    4

     149                    .dwpsn  file "../MSP430F5xx_6xx/comp_b.c",line 88,column 9,is_stmt,isa 0
     150 000072 4B5D          MOV.B     1(r11),r13            ; [] |88| 
         000074 0001 
     151 000076 1847          RPT #8 || RLAX.W r13 ; [] |88| 
         000078 5D0D 
     152 00007a 503D          ADD.W     #32768,r13            ; [] |88| 
         00007c 8000 
     153 00007e DD8F          OR.W      r13,0(r15)            ; [] |88| 
         000080 0000 
     154                    .dwpsn  file "../MSP430F5xx_6xx/comp_b.c",line 92,column 9,is_stmt,isa 0
     155 000082 0FCD          MOVA      r15,r13               ; [] |92| 
     156 000084 503D          ADD.W     #6,r13                ; [] |92| 
         000086 0006 
     157 000088 4D0A          MOV.W     r13,r10               ; [] |92| 
     158 00008a 4B5D          MOV.B     1(r11),r13            ; [] |92| 
         00008c 0001 
     159 00008e 431C          MOV.W     #1,r12                ; [] |92| 
     160            $C$DW$8 .dwtag  DW_TAG_TI_branch
     161                    .dwattr $C$DW$8, DW_AT_low_pc(0x00)
     162                    .dwattr $C$DW$8, DW_AT_name("__mspabi_slli")
     163                    .dwattr $C$DW$8, DW_AT_TI_call
     164            
     165 000090 13B0!         CALLA     #__mspabi_slli        ; [] |92| 
         000092 0000 
     166                                                      ; [] |92| 
     167 000094 DC8A          OR.W      r12,0(r10)            ; [] |92| 
         000096 0000 
     168            ;* --------------------------------------------------------------------------*
     169 000098       $C$L4:    
     170                    .dwpsn  file "../MSP430F5xx_6xx/comp_b.c",line 102,column 5,is_stmt,isa 0
     171 000098 4B5D          MOV.B     4(r11),r13            ; [] |102| 
         00009a 0004 
     172 00009c 5B1D          ADD.W     2(r11),r13            ; [] |102| 
         00009e 0002 
     173 0000a0 5B1D          ADD.W     6(r11),r13            ; [] |102| 
         0000a2 0006 
     174 0000a4 532F          ADD.W     #2,r15                ; [] |102| 
     175 0000a6 4D8F          MOV.W     r13,0(r15)            ; [] |102| 
         0000a8 0000 
     176                    .dwpsn  file "../MSP430F5xx_6xx/comp_b.c",line 107,column 5,is_stmt,isa 0
     177 0000aa 0ECC          MOVA      r14,r12               ; [] |107| 
     178                    .dwpsn  file "../MSP430F5xx_6xx/comp_b.c",line 108,column 1,is_stmt,isa 0
     179 0000ac 160A          POPM.A    #1,r10                ; [] 
     180                    .dwcfi  restore_reg, 10
     181                    .dwcfi  cfa_offset, 4
     182            $C$DW$9 .dwtag  DW_TAG_TI_branch
     183                    .dwattr $C$DW$9, DW_AT_low_pc(0x00)
     184                    .dwattr $C$DW$9, DW_AT_TI_return
     185            
     186 0000ae 0110          RETA      ; [] 
     187                    ; [] 
     188                    .dwattr $C$DW$1, DW_AT_TI_end_file("../MSP430F5xx_6xx/comp_b.c")
     189                    .dwattr $C$DW$1, DW_AT_TI_end_line(0x6c)
     190                    .dwattr $C$DW$1, DW_AT_TI_end_column(0x01)
     191                    .dwendentry
MSP430 Assembler PC v15.12.3 Mon Oct 17 14:33:02 2016

Tools Copyright (c) 2003-2015 Texas Instruments Incorporated
C:\Users\madis\AppData\Local\Temp\041722                             PAGE    5

     192                    .dwendtag $C$DW$1
     193            
     194 000000               .sect   ".text:Comp_B_configureReferenceVoltage"
     195                    .clink
     196                    .global Comp_B_configureReferenceVoltage
     197            
     198            $C$DW$10        .dwtag  DW_TAG_subprogram
     199                    .dwattr $C$DW$10, DW_AT_name("Comp_B_configureReferenceVoltage")
     200                    .dwattr $C$DW$10, DW_AT_low_pc(Comp_B_configureReferenceVoltage)
     201                    .dwattr $C$DW$10, DW_AT_high_pc(0x00)
     202                    .dwattr $C$DW$10, DW_AT_TI_symbol_name("Comp_B_configureReferenceVoltage")
     203                    .dwattr $C$DW$10, DW_AT_external
     204                    .dwattr $C$DW$10, DW_AT_TI_begin_file("../MSP430F5xx_6xx/comp_b.c")
     205                    .dwattr $C$DW$10, DW_AT_TI_begin_line(0x6e)
     206                    .dwattr $C$DW$10, DW_AT_TI_begin_column(0x06)
     207                    .dwattr $C$DW$10, DW_AT_decl_file("../MSP430F5xx_6xx/comp_b.c")
     208                    .dwattr $C$DW$10, DW_AT_decl_line(0x6e)
     209                    .dwattr $C$DW$10, DW_AT_decl_column(0x06)
     210                    .dwattr $C$DW$10, DW_AT_TI_max_frame_size(0x04)
     211                    .dwpsn  file "../MSP430F5xx_6xx/comp_b.c",line 112,column 1,is_stmt,address Comp_B_configureRe
     212            
     213                    .dwfde $C$DW$CIE, Comp_B_configureReferenceVoltage
     214            $C$DW$11        .dwtag  DW_TAG_formal_parameter
     215                    .dwattr $C$DW$11, DW_AT_name("baseAddress")
     216                    .dwattr $C$DW$11, DW_AT_TI_symbol_name("baseAddress")
     217                    .dwattr $C$DW$11, DW_AT_type(*$C$DW$T$19)
     218                    .dwattr $C$DW$11, DW_AT_location[DW_OP_reg12]
     219            
     220            $C$DW$12        .dwtag  DW_TAG_formal_parameter
     221                    .dwattr $C$DW$12, DW_AT_name("param")
     222                    .dwattr $C$DW$12, DW_AT_TI_symbol_name("param")
     223                    .dwattr $C$DW$12, DW_AT_type(*$C$DW$T$24)
     224                    .dwattr $C$DW$12, DW_AT_location[DW_OP_reg13]
     225            
     226            
     227            ;*****************************************************************************
     228            ;* FUNCTION NAME: Comp_B_configureReferenceVoltage                           *
     229            ;*                                                                           *
     230            ;*   Regs Modified     : SP,SR,r12,r14,r15                                   *
     231            ;*   Regs Used         : SP,SR,r12,r13,r14,r15                               *
     232            ;*   Local Frame Size  : 0 Args + 0 Auto + 0 Save = 0 byte                   *
     233            ;*****************************************************************************
     234 000000       Comp_B_configureReferenceVoltage:
     235            ;* --------------------------------------------------------------------------*
     236                    .dwcfi  cfa_offset, 4
     237                    .dwcfi  save_reg_to_mem, 16, -4
     238            ;* r12   assigned to baseAddress
     239            $C$DW$13        .dwtag  DW_TAG_variable
     240                    .dwattr $C$DW$13, DW_AT_name("baseAddress")
     241                    .dwattr $C$DW$13, DW_AT_TI_symbol_name("baseAddress")
     242                    .dwattr $C$DW$13, DW_AT_type(*$C$DW$T$19)
     243                    .dwattr $C$DW$13, DW_AT_location[DW_OP_reg12]
     244            
     245            ;* r13   assigned to param
     246            $C$DW$14        .dwtag  DW_TAG_variable
MSP430 Assembler PC v15.12.3 Mon Oct 17 14:33:02 2016

Tools Copyright (c) 2003-2015 Texas Instruments Incorporated
C:\Users\madis\AppData\Local\Temp\041722                             PAGE    6

     247                    .dwattr $C$DW$14, DW_AT_name("param")
     248                    .dwattr $C$DW$14, DW_AT_TI_symbol_name("param")
     249                    .dwattr $C$DW$14, DW_AT_type(*$C$DW$T$24)
     250                    .dwattr $C$DW$14, DW_AT_location[DW_OP_reg13]
     251            
     252                    .dwpsn  file "../MSP430F5xx_6xx/comp_b.c",line 113,column 5,is_stmt,isa 0
     253 000000 0CCF          MOVA      r12,r15               ; [] |113| 
     254 000002 532F          ADD.W     #2,r15                ; [] |113| 
     255 000004 4F0F          MOV.W     r15,r15               ; [] |113| 
     256 000006 F0BF          AND.W     #61439,0(r15)         ; [] |113| 
         000008 EFFF 
         00000a 0000 
     257                    .dwpsn  file "../MSP430F5xx_6xx/comp_b.c",line 116,column 5,is_stmt,isa 0
     258 00000c 0CCF          MOVA      r12,r15               ; [] |116| 
     259 00000e 522F          ADD.W     #4,r15                ; [] |116| 
     260 000010 4F0F          MOV.W     r15,r15               ; [] |116| 
     261 000012 F0BF          AND.W     #32,0(r15)            ; [] |116| 
         000014 0020 
         000016 0000 
     262                    .dwpsn  file "../MSP430F5xx_6xx/comp_b.c",line 119,column 5,is_stmt,isa 0
     263 000018 938D          TST.W     0(r13)                ; [] |119| 
         00001a 0000 
     264 00001c 2412          JEQ       $C$L6                 ; [] |119| 
     265                                                      ; [] |119| 
     266            ;* --------------------------------------------------------------------------*
     267                    .dwpsn  file "../MSP430F5xx_6xx/comp_b.c",line 123,column 10,is_stmt,isa 0
     268 00001e 90BD          CMP.W     #32,2(r13)            ; [] |123| 
         000020 0020 
         000022 0002 
     269 000024 2407          JEQ       $C$L5                 ; [] |123| 
     270                                                      ; [] |123| 
     271            ;* --------------------------------------------------------------------------*
     272                    .dwpsn  file "../MSP430F5xx_6xx/comp_b.c",line 133,column 9,is_stmt,isa 0
     273 000026 0CCF          MOVA      r12,r15               ; [] |133| 
     274 000028 522F          ADD.W     #4,r15                ; [] |133| 
     275 00002a 4F0F          MOV.W     r15,r15               ; [] |133| 
     276 00002c D0BF          OR.W      #128,0(r15)           ; [] |133| 
         00002e 0080 
         000030 0000 
     277 000032 3C0D          JMP       $C$L7                 ; [] |133| 
     278                                                      ; [] |133| 
     279            ;* --------------------------------------------------------------------------*
     280 000034       $C$L5:    
     281                    .dwpsn  file "../MSP430F5xx_6xx/comp_b.c",line 129,column 9,is_stmt,isa 0
     282 000034 0CCF          MOVA      r12,r15               ; [] |129| 
     283 000036 522F          ADD.W     #4,r15                ; [] |129| 
     284 000038 4F0F          MOV.W     r15,r15               ; [] |129| 
     285 00003a D0BF          OR.W      #192,0(r15)           ; [] |129| 
         00003c 00C0 
         00003e 0000 
     286                    .dwpsn  file "../MSP430F5xx_6xx/comp_b.c",line 130,column 5,is_stmt,isa 0
     287 000040 3C06          JMP       $C$L7                 ; [] |130| 
     288                                                      ; [] |130| 
     289            ;* --------------------------------------------------------------------------*
     290 000042       $C$L6:    
MSP430 Assembler PC v15.12.3 Mon Oct 17 14:33:02 2016

Tools Copyright (c) 2003-2015 Texas Instruments Incorporated
C:\Users\madis\AppData\Local\Temp\041722                             PAGE    7

     291                    .dwpsn  file "../MSP430F5xx_6xx/comp_b.c",line 121,column 9,is_stmt,isa 0
     292 000042 0CCF          MOVA      r12,r15               ; [] |121| 
     293 000044 522F          ADD.W     #4,r15                ; [] |121| 
     294 000046 4F0F          MOV.W     r15,r15               ; [] |121| 
     295 000048 D0BF          OR.W      #64,0(r15)            ; [] |121| 
         00004a 0040 
         00004c 0000 
     296            ;* --------------------------------------------------------------------------*
     297 00004e       $C$L7:    
     298                    .dwpsn  file "../MSP430F5xx_6xx/comp_b.c",line 137,column 5,is_stmt,isa 0
     299 00004e 0CCF          MOVA      r12,r15               ; [] |137| 
     300 000050 522F          ADD.W     #4,r15                ; [] |137| 
     301 000052 4F0E          MOV.W     r15,r14               ; [] |137| 
     302 000054 4D1F          MOV.W     4(r13),r15            ; [] |137| 
         000056 0004 
     303 000058 1847          RPT #8 || RLAX.W r15 ; [] |137| 
         00005a 5F0F 
     304 00005c 5D2F          ADD.W     @r13,r15              ; [] |137| 
     305 00005e 5D1F          ADD.W     2(r13),r15            ; [] |137| 
         000060 0002 
     306 000062 803F          SUB.W     #257,r15              ; [] |137| 
         000064 0101 
     307 000066 DF8E          OR.W      r15,0(r14)            ; [] |137| 
         000068 0000 
     308                    .dwpsn  file "../MSP430F5xx_6xx/comp_b.c",line 142,column 5,is_stmt,isa 0
     309 00006a 0CCF          MOVA      r12,r15               ; [] |142| 
     310 00006c 522F          ADD.W     #4,r15                ; [] |142| 
     311 00006e 4F0F          MOV.W     r15,r15               ; [] |142| 
     312 000070 F0BF          AND.W     #32767,0(r15)         ; [] |142| 
         000072 7FFF 
         000074 0000 
     313                    .dwpsn  file "../MSP430F5xx_6xx/comp_b.c",line 143,column 5,is_stmt,isa 0
     314 000076 522C          ADD.W     #4,r12                ; [] |143| 
     315 000078 4C0F          MOV.W     r12,r15               ; [] |143| 
     316 00007a DD9F          OR.W      6(r13),0(r15)         ; [] |143| 
         00007c 0006 
         00007e 0000 
     317                    .dwpsn  file "../MSP430F5xx_6xx/comp_b.c",line 144,column 1,is_stmt,isa 0
     318            $C$DW$15        .dwtag  DW_TAG_TI_branch
     319                    .dwattr $C$DW$15, DW_AT_low_pc(0x00)
     320                    .dwattr $C$DW$15, DW_AT_TI_return
     321            
     322 000080 0110          RETA      ; [] 
     323                    ; [] 
     324                    .dwattr $C$DW$10, DW_AT_TI_end_file("../MSP430F5xx_6xx/comp_b.c")
     325                    .dwattr $C$DW$10, DW_AT_TI_end_line(0x90)
     326                    .dwattr $C$DW$10, DW_AT_TI_end_column(0x01)
     327                    .dwendentry
     328                    .dwendtag $C$DW$10
     329            
     330 000000               .sect   ".text:Comp_B_enableInterrupt"
     331                    .clink
     332                    .global Comp_B_enableInterrupt
     333            
     334            $C$DW$16        .dwtag  DW_TAG_subprogram
MSP430 Assembler PC v15.12.3 Mon Oct 17 14:33:02 2016

Tools Copyright (c) 2003-2015 Texas Instruments Incorporated
C:\Users\madis\AppData\Local\Temp\041722                             PAGE    8

     335                    .dwattr $C$DW$16, DW_AT_name("Comp_B_enableInterrupt")
     336                    .dwattr $C$DW$16, DW_AT_low_pc(Comp_B_enableInterrupt)
     337                    .dwattr $C$DW$16, DW_AT_high_pc(0x00)
     338                    .dwattr $C$DW$16, DW_AT_TI_symbol_name("Comp_B_enableInterrupt")
     339                    .dwattr $C$DW$16, DW_AT_external
     340                    .dwattr $C$DW$16, DW_AT_TI_begin_file("../MSP430F5xx_6xx/comp_b.c")
     341                    .dwattr $C$DW$16, DW_AT_TI_begin_line(0x92)
     342                    .dwattr $C$DW$16, DW_AT_TI_begin_column(0x06)
     343                    .dwattr $C$DW$16, DW_AT_decl_file("../MSP430F5xx_6xx/comp_b.c")
     344                    .dwattr $C$DW$16, DW_AT_decl_line(0x92)
     345                    .dwattr $C$DW$16, DW_AT_decl_column(0x06)
     346                    .dwattr $C$DW$16, DW_AT_TI_max_frame_size(0x04)
     347                    .dwpsn  file "../MSP430F5xx_6xx/comp_b.c",line 148,column 1,is_stmt,address Comp_B_enableInter
     348            
     349                    .dwfde $C$DW$CIE, Comp_B_enableInterrupt
     350            $C$DW$17        .dwtag  DW_TAG_formal_parameter
     351                    .dwattr $C$DW$17, DW_AT_name("baseAddress")
     352                    .dwattr $C$DW$17, DW_AT_TI_symbol_name("baseAddress")
     353                    .dwattr $C$DW$17, DW_AT_type(*$C$DW$T$19)
     354                    .dwattr $C$DW$17, DW_AT_location[DW_OP_reg12]
     355            
     356            $C$DW$18        .dwtag  DW_TAG_formal_parameter
     357                    .dwattr $C$DW$18, DW_AT_name("interruptMask")
     358                    .dwattr $C$DW$18, DW_AT_TI_symbol_name("interruptMask")
     359                    .dwattr $C$DW$18, DW_AT_type(*$C$DW$T$19)
     360                    .dwattr $C$DW$18, DW_AT_location[DW_OP_reg13]
     361            
     362            
     363            ;*****************************************************************************
     364            ;* FUNCTION NAME: Comp_B_enableInterrupt                                     *
     365            ;*                                                                           *
     366            ;*   Regs Modified     : SP,SR,r12,r15                                       *
     367            ;*   Regs Used         : SP,SR,r12,r13,r15                                   *
     368            ;*   Local Frame Size  : 0 Args + 0 Auto + 0 Save = 0 byte                   *
     369            ;*****************************************************************************
     370 000000       Comp_B_enableInterrupt:
     371            ;* --------------------------------------------------------------------------*
     372                    .dwcfi  cfa_offset, 4
     373                    .dwcfi  save_reg_to_mem, 16, -4
     374            ;* r13   assigned to interruptMask
     375            $C$DW$19        .dwtag  DW_TAG_variable
     376                    .dwattr $C$DW$19, DW_AT_name("interruptMask")
     377                    .dwattr $C$DW$19, DW_AT_TI_symbol_name("interruptMask")
     378                    .dwattr $C$DW$19, DW_AT_type(*$C$DW$T$19)
     379                    .dwattr $C$DW$19, DW_AT_location[DW_OP_reg13]
     380            
     381                    .dwpsn  file "../MSP430F5xx_6xx/comp_b.c",line 150,column 5,is_stmt,isa 0
     382 000000 503C          ADD.W     #12,r12               ; [] |150| 
         000002 000C 
     383 000004 4C0F          MOV.W     r12,r15               ; [] |150| 
     384 000006 DD8F          OR.W      r13,0(r15)            ; [] |150| 
         000008 0000 
     385                    .dwpsn  file "../MSP430F5xx_6xx/comp_b.c",line 151,column 1,is_stmt,isa 0
     386            $C$DW$20        .dwtag  DW_TAG_TI_branch
     387                    .dwattr $C$DW$20, DW_AT_low_pc(0x00)
MSP430 Assembler PC v15.12.3 Mon Oct 17 14:33:02 2016

Tools Copyright (c) 2003-2015 Texas Instruments Incorporated
C:\Users\madis\AppData\Local\Temp\041722                             PAGE    9

     388                    .dwattr $C$DW$20, DW_AT_TI_return
     389            
     390 00000a 0110          RETA      ; [] 
     391                    ; [] 
     392                    .dwattr $C$DW$16, DW_AT_TI_end_file("../MSP430F5xx_6xx/comp_b.c")
     393                    .dwattr $C$DW$16, DW_AT_TI_end_line(0x97)
     394                    .dwattr $C$DW$16, DW_AT_TI_end_column(0x01)
     395                    .dwendentry
     396                    .dwendtag $C$DW$16
     397            
     398 000000               .sect   ".text:Comp_B_disableInterrupt"
     399                    .clink
     400                    .global Comp_B_disableInterrupt
     401            
     402            $C$DW$21        .dwtag  DW_TAG_subprogram
     403                    .dwattr $C$DW$21, DW_AT_name("Comp_B_disableInterrupt")
     404                    .dwattr $C$DW$21, DW_AT_low_pc(Comp_B_disableInterrupt)
     405                    .dwattr $C$DW$21, DW_AT_high_pc(0x00)
     406                    .dwattr $C$DW$21, DW_AT_TI_symbol_name("Comp_B_disableInterrupt")
     407                    .dwattr $C$DW$21, DW_AT_external
     408                    .dwattr $C$DW$21, DW_AT_TI_begin_file("../MSP430F5xx_6xx/comp_b.c")
     409                    .dwattr $C$DW$21, DW_AT_TI_begin_line(0x99)
     410                    .dwattr $C$DW$21, DW_AT_TI_begin_column(0x06)
     411                    .dwattr $C$DW$21, DW_AT_decl_file("../MSP430F5xx_6xx/comp_b.c")
     412                    .dwattr $C$DW$21, DW_AT_decl_line(0x99)
     413                    .dwattr $C$DW$21, DW_AT_decl_column(0x06)
     414                    .dwattr $C$DW$21, DW_AT_TI_max_frame_size(0x04)
     415                    .dwpsn  file "../MSP430F5xx_6xx/comp_b.c",line 155,column 1,is_stmt,address Comp_B_disableInte
     416            
     417                    .dwfde $C$DW$CIE, Comp_B_disableInterrupt
     418            $C$DW$22        .dwtag  DW_TAG_formal_parameter
     419                    .dwattr $C$DW$22, DW_AT_name("baseAddress")
     420                    .dwattr $C$DW$22, DW_AT_TI_symbol_name("baseAddress")
     421                    .dwattr $C$DW$22, DW_AT_type(*$C$DW$T$19)
     422                    .dwattr $C$DW$22, DW_AT_location[DW_OP_reg12]
     423            
     424            $C$DW$23        .dwtag  DW_TAG_formal_parameter
     425                    .dwattr $C$DW$23, DW_AT_name("interruptMask")
     426                    .dwattr $C$DW$23, DW_AT_TI_symbol_name("interruptMask")
     427                    .dwattr $C$DW$23, DW_AT_type(*$C$DW$T$19)
     428                    .dwattr $C$DW$23, DW_AT_location[DW_OP_reg13]
     429            
     430            
     431            ;*****************************************************************************
     432            ;* FUNCTION NAME: Comp_B_disableInterrupt                                    *
     433            ;*                                                                           *
     434            ;*   Regs Modified     : SP,SR,r12,r15                                       *
     435            ;*   Regs Used         : SP,SR,r12,r13,r15                                   *
     436            ;*   Local Frame Size  : 0 Args + 0 Auto + 0 Save = 0 byte                   *
     437            ;*****************************************************************************
     438 000000       Comp_B_disableInterrupt:
     439            ;* --------------------------------------------------------------------------*
     440                    .dwcfi  cfa_offset, 4
     441                    .dwcfi  save_reg_to_mem, 16, -4
     442            ;* r13   assigned to interruptMask
MSP430 Assembler PC v15.12.3 Mon Oct 17 14:33:02 2016

Tools Copyright (c) 2003-2015 Texas Instruments Incorporated
C:\Users\madis\AppData\Local\Temp\041722                             PAGE   10

     443            $C$DW$24        .dwtag  DW_TAG_variable
     444                    .dwattr $C$DW$24, DW_AT_name("interruptMask")
     445                    .dwattr $C$DW$24, DW_AT_TI_symbol_name("interruptMask")
     446                    .dwattr $C$DW$24, DW_AT_type(*$C$DW$T$19)
     447                    .dwattr $C$DW$24, DW_AT_location[DW_OP_reg13]
     448            
     449                    .dwpsn  file "../MSP430F5xx_6xx/comp_b.c",line 156,column 5,is_stmt,isa 0
     450 000000 503C          ADD.W     #12,r12               ; [] |156| 
         000002 000C 
     451 000004 4C0F          MOV.W     r12,r15               ; [] |156| 
     452 000006 CD8F          BIC.W     r13,0(r15)            ; [] |156| 
         000008 0000 
     453                    .dwpsn  file "../MSP430F5xx_6xx/comp_b.c",line 157,column 1,is_stmt,isa 0
     454            $C$DW$25        .dwtag  DW_TAG_TI_branch
     455                    .dwattr $C$DW$25, DW_AT_low_pc(0x00)
     456                    .dwattr $C$DW$25, DW_AT_TI_return
     457            
     458 00000a 0110          RETA      ; [] 
     459                    ; [] 
     460                    .dwattr $C$DW$21, DW_AT_TI_end_file("../MSP430F5xx_6xx/comp_b.c")
     461                    .dwattr $C$DW$21, DW_AT_TI_end_line(0x9d)
     462                    .dwattr $C$DW$21, DW_AT_TI_end_column(0x01)
     463                    .dwendentry
     464                    .dwendtag $C$DW$21
     465            
     466 000000               .sect   ".text:Comp_B_clearInterrupt"
     467                    .clink
     468                    .global Comp_B_clearInterrupt
     469            
     470            $C$DW$26        .dwtag  DW_TAG_subprogram
     471                    .dwattr $C$DW$26, DW_AT_name("Comp_B_clearInterrupt")
     472                    .dwattr $C$DW$26, DW_AT_low_pc(Comp_B_clearInterrupt)
     473                    .dwattr $C$DW$26, DW_AT_high_pc(0x00)
     474                    .dwattr $C$DW$26, DW_AT_TI_symbol_name("Comp_B_clearInterrupt")
     475                    .dwattr $C$DW$26, DW_AT_external
     476                    .dwattr $C$DW$26, DW_AT_TI_begin_file("../MSP430F5xx_6xx/comp_b.c")
     477                    .dwattr $C$DW$26, DW_AT_TI_begin_line(0x9f)
     478                    .dwattr $C$DW$26, DW_AT_TI_begin_column(0x06)
     479                    .dwattr $C$DW$26, DW_AT_decl_file("../MSP430F5xx_6xx/comp_b.c")
     480                    .dwattr $C$DW$26, DW_AT_decl_line(0x9f)
     481                    .dwattr $C$DW$26, DW_AT_decl_column(0x06)
     482                    .dwattr $C$DW$26, DW_AT_TI_max_frame_size(0x04)
     483                    .dwpsn  file "../MSP430F5xx_6xx/comp_b.c",line 161,column 1,is_stmt,address Comp_B_clearInterr
     484            
     485                    .dwfde $C$DW$CIE, Comp_B_clearInterrupt
     486            $C$DW$27        .dwtag  DW_TAG_formal_parameter
     487                    .dwattr $C$DW$27, DW_AT_name("baseAddress")
     488                    .dwattr $C$DW$27, DW_AT_TI_symbol_name("baseAddress")
     489                    .dwattr $C$DW$27, DW_AT_type(*$C$DW$T$19)
     490                    .dwattr $C$DW$27, DW_AT_location[DW_OP_reg12]
     491            
     492            $C$DW$28        .dwtag  DW_TAG_formal_parameter
     493                    .dwattr $C$DW$28, DW_AT_name("interruptFlagMask")
     494                    .dwattr $C$DW$28, DW_AT_TI_symbol_name("interruptFlagMask")
     495                    .dwattr $C$DW$28, DW_AT_type(*$C$DW$T$19)
MSP430 Assembler PC v15.12.3 Mon Oct 17 14:33:02 2016

Tools Copyright (c) 2003-2015 Texas Instruments Incorporated
C:\Users\madis\AppData\Local\Temp\041722                             PAGE   11

     496                    .dwattr $C$DW$28, DW_AT_location[DW_OP_reg13]
     497            
     498            
     499            ;*****************************************************************************
     500            ;* FUNCTION NAME: Comp_B_clearInterrupt                                      *
     501            ;*                                                                           *
     502            ;*   Regs Modified     : SP,SR,r12,r15                                       *
     503            ;*   Regs Used         : SP,SR,r12,r13,r15                                   *
     504            ;*   Local Frame Size  : 0 Args + 0 Auto + 0 Save = 0 byte                   *
     505            ;*****************************************************************************
     506 000000       Comp_B_clearInterrupt:
     507            ;* --------------------------------------------------------------------------*
     508                    .dwcfi  cfa_offset, 4
     509                    .dwcfi  save_reg_to_mem, 16, -4
     510            ;* r13   assigned to interruptFlagMask
     511            $C$DW$29        .dwtag  DW_TAG_variable
     512                    .dwattr $C$DW$29, DW_AT_name("interruptFlagMask")
     513                    .dwattr $C$DW$29, DW_AT_TI_symbol_name("interruptFlagMask")
     514                    .dwattr $C$DW$29, DW_AT_type(*$C$DW$T$19)
     515                    .dwattr $C$DW$29, DW_AT_location[DW_OP_reg13]
     516            
     517                    .dwpsn  file "../MSP430F5xx_6xx/comp_b.c",line 162,column 5,is_stmt,isa 0
     518 000000 503C          ADD.W     #12,r12               ; [] |162| 
         000002 000C 
     519 000004 4C0F          MOV.W     r12,r15               ; [] |162| 
     520 000006 CD8F          BIC.W     r13,0(r15)            ; [] |162| 
         000008 0000 
     521                    .dwpsn  file "../MSP430F5xx_6xx/comp_b.c",line 163,column 1,is_stmt,isa 0
     522            $C$DW$30        .dwtag  DW_TAG_TI_branch
     523                    .dwattr $C$DW$30, DW_AT_low_pc(0x00)
     524                    .dwattr $C$DW$30, DW_AT_TI_return
     525            
     526 00000a 0110          RETA      ; [] 
     527                    ; [] 
     528                    .dwattr $C$DW$26, DW_AT_TI_end_file("../MSP430F5xx_6xx/comp_b.c")
     529                    .dwattr $C$DW$26, DW_AT_TI_end_line(0xa3)
     530                    .dwattr $C$DW$26, DW_AT_TI_end_column(0x01)
     531                    .dwendentry
     532                    .dwendtag $C$DW$26
     533            
     534 000000               .sect   ".text:Comp_B_getInterruptStatus"
     535                    .clink
     536                    .global Comp_B_getInterruptStatus
     537            
     538            $C$DW$31        .dwtag  DW_TAG_subprogram
     539                    .dwattr $C$DW$31, DW_AT_name("Comp_B_getInterruptStatus")
     540                    .dwattr $C$DW$31, DW_AT_low_pc(Comp_B_getInterruptStatus)
     541                    .dwattr $C$DW$31, DW_AT_high_pc(0x00)
     542                    .dwattr $C$DW$31, DW_AT_TI_symbol_name("Comp_B_getInterruptStatus")
     543                    .dwattr $C$DW$31, DW_AT_external
     544                    .dwattr $C$DW$31, DW_AT_type(*$C$DW$T$21)
     545                    .dwattr $C$DW$31, DW_AT_TI_begin_file("../MSP430F5xx_6xx/comp_b.c")
     546                    .dwattr $C$DW$31, DW_AT_TI_begin_line(0xa5)
     547                    .dwattr $C$DW$31, DW_AT_TI_begin_column(0x09)
     548                    .dwattr $C$DW$31, DW_AT_decl_file("../MSP430F5xx_6xx/comp_b.c")
MSP430 Assembler PC v15.12.3 Mon Oct 17 14:33:02 2016

Tools Copyright (c) 2003-2015 Texas Instruments Incorporated
C:\Users\madis\AppData\Local\Temp\041722                             PAGE   12

     549                    .dwattr $C$DW$31, DW_AT_decl_line(0xa5)
     550                    .dwattr $C$DW$31, DW_AT_decl_column(0x09)
     551                    .dwattr $C$DW$31, DW_AT_TI_max_frame_size(0x04)
     552                    .dwpsn  file "../MSP430F5xx_6xx/comp_b.c",line 167,column 1,is_stmt,address Comp_B_getInterrup
     553            
     554                    .dwfde $C$DW$CIE, Comp_B_getInterruptStatus
     555            $C$DW$32        .dwtag  DW_TAG_formal_parameter
     556                    .dwattr $C$DW$32, DW_AT_name("baseAddress")
     557                    .dwattr $C$DW$32, DW_AT_TI_symbol_name("baseAddress")
     558                    .dwattr $C$DW$32, DW_AT_type(*$C$DW$T$19)
     559                    .dwattr $C$DW$32, DW_AT_location[DW_OP_reg12]
     560            
     561            $C$DW$33        .dwtag  DW_TAG_formal_parameter
     562                    .dwattr $C$DW$33, DW_AT_name("interruptFlagMask")
     563                    .dwattr $C$DW$33, DW_AT_TI_symbol_name("interruptFlagMask")
     564                    .dwattr $C$DW$33, DW_AT_type(*$C$DW$T$19)
     565                    .dwattr $C$DW$33, DW_AT_location[DW_OP_reg13]
     566            
     567            
     568            ;*****************************************************************************
     569            ;* FUNCTION NAME: Comp_B_getInterruptStatus                                  *
     570            ;*                                                                           *
     571            ;*   Regs Modified     : SP,SR,r12                                           *
     572            ;*   Regs Used         : SP,SR,r12,r13                                       *
     573            ;*   Local Frame Size  : 0 Args + 0 Auto + 0 Save = 0 byte                   *
     574            ;*****************************************************************************
     575 000000       Comp_B_getInterruptStatus:
     576            ;* --------------------------------------------------------------------------*
     577                    .dwcfi  cfa_offset, 4
     578                    .dwcfi  save_reg_to_mem, 16, -4
     579            ;* r13   assigned to interruptFlagMask
     580            $C$DW$34        .dwtag  DW_TAG_variable
     581                    .dwattr $C$DW$34, DW_AT_name("interruptFlagMask")
     582                    .dwattr $C$DW$34, DW_AT_TI_symbol_name("interruptFlagMask")
     583                    .dwattr $C$DW$34, DW_AT_type(*$C$DW$T$19)
     584                    .dwattr $C$DW$34, DW_AT_location[DW_OP_reg13]
     585            
     586                    .dwpsn  file "../MSP430F5xx_6xx/comp_b.c",line 168,column 5,is_stmt,isa 0
     587 000000 503C          ADD.W     #12,r12               ; [] |168| 
         000002 000C 
     588 000004 4C2C          MOV.W     @r12,r12              ; [] |168| 
     589 000006 FD4C          AND.B     r13,r12               ; [] |168| 
     590                    .dwpsn  file "../MSP430F5xx_6xx/comp_b.c",line 169,column 1,is_stmt,isa 0
     591            $C$DW$35        .dwtag  DW_TAG_TI_branch
     592                    .dwattr $C$DW$35, DW_AT_low_pc(0x00)
     593                    .dwattr $C$DW$35, DW_AT_TI_return
     594            
     595 000008 0110          RETA      ; [] 
     596                    ; [] 
     597                    .dwattr $C$DW$31, DW_AT_TI_end_file("../MSP430F5xx_6xx/comp_b.c")
     598                    .dwattr $C$DW$31, DW_AT_TI_end_line(0xa9)
     599                    .dwattr $C$DW$31, DW_AT_TI_end_column(0x01)
     600                    .dwendentry
     601                    .dwendtag $C$DW$31
     602            
MSP430 Assembler PC v15.12.3 Mon Oct 17 14:33:02 2016

Tools Copyright (c) 2003-2015 Texas Instruments Incorporated
C:\Users\madis\AppData\Local\Temp\041722                             PAGE   13

     603 000000               .sect   ".text:Comp_B_setInterruptEdgeDirection"
     604                    .clink
     605                    .global Comp_B_setInterruptEdgeDirection
     606            
     607            $C$DW$36        .dwtag  DW_TAG_subprogram
     608                    .dwattr $C$DW$36, DW_AT_name("Comp_B_setInterruptEdgeDirection")
     609                    .dwattr $C$DW$36, DW_AT_low_pc(Comp_B_setInterruptEdgeDirection)
     610                    .dwattr $C$DW$36, DW_AT_high_pc(0x00)
     611                    .dwattr $C$DW$36, DW_AT_TI_symbol_name("Comp_B_setInterruptEdgeDirection")
     612                    .dwattr $C$DW$36, DW_AT_external
     613                    .dwattr $C$DW$36, DW_AT_TI_begin_file("../MSP430F5xx_6xx/comp_b.c")
     614                    .dwattr $C$DW$36, DW_AT_TI_begin_line(0xab)
     615                    .dwattr $C$DW$36, DW_AT_TI_begin_column(0x06)
     616                    .dwattr $C$DW$36, DW_AT_decl_file("../MSP430F5xx_6xx/comp_b.c")
     617                    .dwattr $C$DW$36, DW_AT_decl_line(0xab)
     618                    .dwattr $C$DW$36, DW_AT_decl_column(0x06)
     619                    .dwattr $C$DW$36, DW_AT_TI_max_frame_size(0x04)
     620                    .dwpsn  file "../MSP430F5xx_6xx/comp_b.c",line 173,column 1,is_stmt,address Comp_B_setInterrup
     621            
     622                    .dwfde $C$DW$CIE, Comp_B_setInterruptEdgeDirection
     623            $C$DW$37        .dwtag  DW_TAG_formal_parameter
     624                    .dwattr $C$DW$37, DW_AT_name("baseAddress")
     625                    .dwattr $C$DW$37, DW_AT_TI_symbol_name("baseAddress")
     626                    .dwattr $C$DW$37, DW_AT_type(*$C$DW$T$19)
     627                    .dwattr $C$DW$37, DW_AT_location[DW_OP_reg12]
     628            
     629            $C$DW$38        .dwtag  DW_TAG_formal_parameter
     630                    .dwattr $C$DW$38, DW_AT_name("edgeDirection")
     631                    .dwattr $C$DW$38, DW_AT_TI_symbol_name("edgeDirection")
     632                    .dwattr $C$DW$38, DW_AT_type(*$C$DW$T$19)
     633                    .dwattr $C$DW$38, DW_AT_location[DW_OP_reg13]
     634            
     635            
     636            ;*****************************************************************************
     637            ;* FUNCTION NAME: Comp_B_setInterruptEdgeDirection                           *
     638            ;*                                                                           *
     639            ;*   Regs Modified     : SP,SR,r12,r15                                       *
     640            ;*   Regs Used         : SP,SR,r12,r13,r15                                   *
     641            ;*   Local Frame Size  : 0 Args + 0 Auto + 0 Save = 0 byte                   *
     642            ;*****************************************************************************
     643 000000       Comp_B_setInterruptEdgeDirection:
     644            ;* --------------------------------------------------------------------------*
     645                    .dwcfi  cfa_offset, 4
     646                    .dwcfi  save_reg_to_mem, 16, -4
     647            ;* r13   assigned to edgeDirection
     648            $C$DW$39        .dwtag  DW_TAG_variable
     649                    .dwattr $C$DW$39, DW_AT_name("edgeDirection")
     650                    .dwattr $C$DW$39, DW_AT_TI_symbol_name("edgeDirection")
     651                    .dwattr $C$DW$39, DW_AT_type(*$C$DW$T$19)
     652                    .dwattr $C$DW$39, DW_AT_location[DW_OP_reg13]
     653            
     654                    .dwpsn  file "../MSP430F5xx_6xx/comp_b.c",line 175,column 5,is_stmt,isa 0
     655 000000 923D          CMP.W     #8,r13                ; [] |175| 
     656 000002 2407          JEQ       $C$L8                 ; [] |175| 
     657                                                      ; [] |175| 
MSP430 Assembler PC v15.12.3 Mon Oct 17 14:33:02 2016

Tools Copyright (c) 2003-2015 Texas Instruments Incorporated
C:\Users\madis\AppData\Local\Temp\041722                             PAGE   14

     658            ;* --------------------------------------------------------------------------*
     659                    .dwpsn  file "../MSP430F5xx_6xx/comp_b.c",line 179,column 10,is_stmt,isa 0
     660 000004 930D          TST.W     r13                   ; [] |179| 
     661 000006 2009          JNE       $C$L9                 ; [] |179| 
     662                                                      ; [] |179| 
     663            ;* --------------------------------------------------------------------------*
     664                    .dwpsn  file "../MSP430F5xx_6xx/comp_b.c",line 181,column 9,is_stmt,isa 0
     665 000008 532C          ADD.W     #2,r12                ; [] |181| 
     666 00000a 4C0F          MOV.W     r12,r15               ; [] |181| 
     667 00000c C2BF          BIC.W     #8,0(r15)             ; [] |181| 
         00000e 0000 
     668 000010 3C04          JMP       $C$L9                 ; [] |181| 
     669                                                      ; [] |181| 
     670            ;* --------------------------------------------------------------------------*
     671 000012       $C$L8:    
     672                    .dwpsn  file "../MSP430F5xx_6xx/comp_b.c",line 177,column 9,is_stmt,isa 0
     673 000012 532C          ADD.W     #2,r12                ; [] |177| 
     674 000014 4C0F          MOV.W     r12,r15               ; [] |177| 
     675 000016 D2BF          OR.W      #8,0(r15)             ; [] |177| 
         000018 0000 
     676            ;* --------------------------------------------------------------------------*
     677 00001a       $C$L9:    
     678                    .dwpsn  file "../MSP430F5xx_6xx/comp_b.c",line 183,column 1,is_stmt,isa 0
     679            $C$DW$40        .dwtag  DW_TAG_TI_branch
     680                    .dwattr $C$DW$40, DW_AT_low_pc(0x00)
     681                    .dwattr $C$DW$40, DW_AT_TI_return
     682            
     683 00001a 0110          RETA      ; [] 
     684                    ; [] 
     685                    .dwattr $C$DW$36, DW_AT_TI_end_file("../MSP430F5xx_6xx/comp_b.c")
     686                    .dwattr $C$DW$36, DW_AT_TI_end_line(0xb7)
     687                    .dwattr $C$DW$36, DW_AT_TI_end_column(0x01)
     688                    .dwendentry
     689                    .dwendtag $C$DW$36
     690            
     691 000000               .sect   ".text:Comp_B_toggleInterruptEdgeDirection"
     692                    .clink
     693                    .global Comp_B_toggleInterruptEdgeDirection
     694            
     695            $C$DW$41        .dwtag  DW_TAG_subprogram
     696                    .dwattr $C$DW$41, DW_AT_name("Comp_B_toggleInterruptEdgeDirection")
     697                    .dwattr $C$DW$41, DW_AT_low_pc(Comp_B_toggleInterruptEdgeDirection)
     698                    .dwattr $C$DW$41, DW_AT_high_pc(0x00)
     699                    .dwattr $C$DW$41, DW_AT_TI_symbol_name("Comp_B_toggleInterruptEdgeDirection")
     700                    .dwattr $C$DW$41, DW_AT_external
     701                    .dwattr $C$DW$41, DW_AT_TI_begin_file("../MSP430F5xx_6xx/comp_b.c")
     702                    .dwattr $C$DW$41, DW_AT_TI_begin_line(0xb9)
     703                    .dwattr $C$DW$41, DW_AT_TI_begin_column(0x06)
     704                    .dwattr $C$DW$41, DW_AT_decl_file("../MSP430F5xx_6xx/comp_b.c")
     705                    .dwattr $C$DW$41, DW_AT_decl_line(0xb9)
     706                    .dwattr $C$DW$41, DW_AT_decl_column(0x06)
     707                    .dwattr $C$DW$41, DW_AT_TI_max_frame_size(0x04)
     708                    .dwpsn  file "../MSP430F5xx_6xx/comp_b.c",line 186,column 1,is_stmt,address Comp_B_toggleInter
     709            
     710                    .dwfde $C$DW$CIE, Comp_B_toggleInterruptEdgeDirection
MSP430 Assembler PC v15.12.3 Mon Oct 17 14:33:02 2016

Tools Copyright (c) 2003-2015 Texas Instruments Incorporated
C:\Users\madis\AppData\Local\Temp\041722                             PAGE   15

     711            $C$DW$42        .dwtag  DW_TAG_formal_parameter
     712                    .dwattr $C$DW$42, DW_AT_name("baseAddress")
     713                    .dwattr $C$DW$42, DW_AT_TI_symbol_name("baseAddress")
     714                    .dwattr $C$DW$42, DW_AT_type(*$C$DW$T$19)
     715                    .dwattr $C$DW$42, DW_AT_location[DW_OP_reg12]
     716            
     717            
     718            ;*****************************************************************************
     719            ;* FUNCTION NAME: Comp_B_toggleInterruptEdgeDirection                        *
     720            ;*                                                                           *
     721            ;*   Regs Modified     : SP,SR,r12,r15                                       *
     722            ;*   Regs Used         : SP,SR,r12,r15                                       *
     723            ;*   Local Frame Size  : 0 Args + 0 Auto + 0 Save = 0 byte                   *
     724            ;*****************************************************************************
     725 000000       Comp_B_toggleInterruptEdgeDirection:
     726            ;* --------------------------------------------------------------------------*
     727                    .dwcfi  cfa_offset, 4
     728                    .dwcfi  save_reg_to_mem, 16, -4
     729                    .dwpsn  file "../MSP430F5xx_6xx/comp_b.c",line 187,column 5,is_stmt,isa 0
     730 000000 532C          ADD.W     #2,r12                ; [] |187| 
     731 000002 4C0F          MOV.W     r12,r15               ; [] |187| 
     732 000004 E2BF          XOR.W     #8,0(r15)             ; [] |187| 
         000006 0000 
     733                    .dwpsn  file "../MSP430F5xx_6xx/comp_b.c",line 188,column 1,is_stmt,isa 0
     734            $C$DW$43        .dwtag  DW_TAG_TI_branch
     735                    .dwattr $C$DW$43, DW_AT_low_pc(0x00)
     736                    .dwattr $C$DW$43, DW_AT_TI_return
     737            
     738 000008 0110          RETA      ; [] 
     739                    ; [] 
     740                    .dwattr $C$DW$41, DW_AT_TI_end_file("../MSP430F5xx_6xx/comp_b.c")
     741                    .dwattr $C$DW$41, DW_AT_TI_end_line(0xbc)
     742                    .dwattr $C$DW$41, DW_AT_TI_end_column(0x01)
     743                    .dwendentry
     744                    .dwendtag $C$DW$41
     745            
     746 000000               .sect   ".text:Comp_B_enable"
     747                    .clink
     748                    .global Comp_B_enable
     749            
     750            $C$DW$44        .dwtag  DW_TAG_subprogram
     751                    .dwattr $C$DW$44, DW_AT_name("Comp_B_enable")
     752                    .dwattr $C$DW$44, DW_AT_low_pc(Comp_B_enable)
     753                    .dwattr $C$DW$44, DW_AT_high_pc(0x00)
     754                    .dwattr $C$DW$44, DW_AT_TI_symbol_name("Comp_B_enable")
     755                    .dwattr $C$DW$44, DW_AT_external
     756                    .dwattr $C$DW$44, DW_AT_TI_begin_file("../MSP430F5xx_6xx/comp_b.c")
     757                    .dwattr $C$DW$44, DW_AT_TI_begin_line(0xbe)
     758                    .dwattr $C$DW$44, DW_AT_TI_begin_column(0x06)
     759                    .dwattr $C$DW$44, DW_AT_decl_file("../MSP430F5xx_6xx/comp_b.c")
     760                    .dwattr $C$DW$44, DW_AT_decl_line(0xbe)
     761                    .dwattr $C$DW$44, DW_AT_decl_column(0x06)
     762                    .dwattr $C$DW$44, DW_AT_TI_max_frame_size(0x04)
     763                    .dwpsn  file "../MSP430F5xx_6xx/comp_b.c",line 191,column 1,is_stmt,address Comp_B_enable,isa 
     764            
MSP430 Assembler PC v15.12.3 Mon Oct 17 14:33:02 2016

Tools Copyright (c) 2003-2015 Texas Instruments Incorporated
C:\Users\madis\AppData\Local\Temp\041722                             PAGE   16

     765                    .dwfde $C$DW$CIE, Comp_B_enable
     766            $C$DW$45        .dwtag  DW_TAG_formal_parameter
     767                    .dwattr $C$DW$45, DW_AT_name("baseAddress")
     768                    .dwattr $C$DW$45, DW_AT_TI_symbol_name("baseAddress")
     769                    .dwattr $C$DW$45, DW_AT_type(*$C$DW$T$19)
     770                    .dwattr $C$DW$45, DW_AT_location[DW_OP_reg12]
     771            
     772            
     773            ;*****************************************************************************
     774            ;* FUNCTION NAME: Comp_B_enable                                              *
     775            ;*                                                                           *
     776            ;*   Regs Modified     : SP,SR,r12,r15                                       *
     777            ;*   Regs Used         : SP,SR,r12,r15                                       *
     778            ;*   Local Frame Size  : 0 Args + 0 Auto + 0 Save = 0 byte                   *
     779            ;*****************************************************************************
     780 000000       Comp_B_enable:
     781            ;* --------------------------------------------------------------------------*
     782                    .dwcfi  cfa_offset, 4
     783                    .dwcfi  save_reg_to_mem, 16, -4
     784                    .dwpsn  file "../MSP430F5xx_6xx/comp_b.c",line 192,column 5,is_stmt,isa 0
     785 000000 532C          ADD.W     #2,r12                ; [] |192| 
     786 000002 4C0F          MOV.W     r12,r15               ; [] |192| 
     787 000004 D0BF          OR.W      #1024,0(r15)          ; [] |192| 
         000006 0400 
         000008 0000 
     788                    .dwpsn  file "../MSP430F5xx_6xx/comp_b.c",line 193,column 1,is_stmt,isa 0
     789            $C$DW$46        .dwtag  DW_TAG_TI_branch
     790                    .dwattr $C$DW$46, DW_AT_low_pc(0x00)
     791                    .dwattr $C$DW$46, DW_AT_TI_return
     792            
     793 00000a 0110          RETA      ; [] 
     794                    ; [] 
     795                    .dwattr $C$DW$44, DW_AT_TI_end_file("../MSP430F5xx_6xx/comp_b.c")
     796                    .dwattr $C$DW$44, DW_AT_TI_end_line(0xc1)
     797                    .dwattr $C$DW$44, DW_AT_TI_end_column(0x01)
     798                    .dwendentry
     799                    .dwendtag $C$DW$44
     800            
     801 000000               .sect   ".text:Comp_B_disable"
     802                    .clink
     803                    .global Comp_B_disable
     804            
     805            $C$DW$47        .dwtag  DW_TAG_subprogram
     806                    .dwattr $C$DW$47, DW_AT_name("Comp_B_disable")
     807                    .dwattr $C$DW$47, DW_AT_low_pc(Comp_B_disable)
     808                    .dwattr $C$DW$47, DW_AT_high_pc(0x00)
     809                    .dwattr $C$DW$47, DW_AT_TI_symbol_name("Comp_B_disable")
     810                    .dwattr $C$DW$47, DW_AT_external
     811                    .dwattr $C$DW$47, DW_AT_TI_begin_file("../MSP430F5xx_6xx/comp_b.c")
     812                    .dwattr $C$DW$47, DW_AT_TI_begin_line(0xc3)
     813                    .dwattr $C$DW$47, DW_AT_TI_begin_column(0x06)
     814                    .dwattr $C$DW$47, DW_AT_decl_file("../MSP430F5xx_6xx/comp_b.c")
     815                    .dwattr $C$DW$47, DW_AT_decl_line(0xc3)
     816                    .dwattr $C$DW$47, DW_AT_decl_column(0x06)
     817                    .dwattr $C$DW$47, DW_AT_TI_max_frame_size(0x04)
MSP430 Assembler PC v15.12.3 Mon Oct 17 14:33:02 2016

Tools Copyright (c) 2003-2015 Texas Instruments Incorporated
C:\Users\madis\AppData\Local\Temp\041722                             PAGE   17

     818                    .dwpsn  file "../MSP430F5xx_6xx/comp_b.c",line 196,column 1,is_stmt,address Comp_B_disable,isa
     819            
     820                    .dwfde $C$DW$CIE, Comp_B_disable
     821            $C$DW$48        .dwtag  DW_TAG_formal_parameter
     822                    .dwattr $C$DW$48, DW_AT_name("baseAddress")
     823                    .dwattr $C$DW$48, DW_AT_TI_symbol_name("baseAddress")
     824                    .dwattr $C$DW$48, DW_AT_type(*$C$DW$T$19)
     825                    .dwattr $C$DW$48, DW_AT_location[DW_OP_reg12]
     826            
     827            
     828            ;*****************************************************************************
     829            ;* FUNCTION NAME: Comp_B_disable                                             *
     830            ;*                                                                           *
     831            ;*   Regs Modified     : SP,SR,r12,r15                                       *
     832            ;*   Regs Used         : SP,SR,r12,r15                                       *
     833            ;*   Local Frame Size  : 0 Args + 0 Auto + 0 Save = 0 byte                   *
     834            ;*****************************************************************************
     835 000000       Comp_B_disable:
     836            ;* --------------------------------------------------------------------------*
     837                    .dwcfi  cfa_offset, 4
     838                    .dwcfi  save_reg_to_mem, 16, -4
     839                    .dwpsn  file "../MSP430F5xx_6xx/comp_b.c",line 197,column 5,is_stmt,isa 0
     840 000000 532C          ADD.W     #2,r12                ; [] |197| 
     841 000002 4C0F          MOV.W     r12,r15               ; [] |197| 
     842 000004 F0BF          AND.W     #64511,0(r15)         ; [] |197| 
         000006 FBFF 
         000008 0000 
     843                    .dwpsn  file "../MSP430F5xx_6xx/comp_b.c",line 198,column 1,is_stmt,isa 0
     844            $C$DW$49        .dwtag  DW_TAG_TI_branch
     845                    .dwattr $C$DW$49, DW_AT_low_pc(0x00)
     846                    .dwattr $C$DW$49, DW_AT_TI_return
     847            
     848 00000a 0110          RETA      ; [] 
     849                    ; [] 
     850                    .dwattr $C$DW$47, DW_AT_TI_end_file("../MSP430F5xx_6xx/comp_b.c")
     851                    .dwattr $C$DW$47, DW_AT_TI_end_line(0xc6)
     852                    .dwattr $C$DW$47, DW_AT_TI_end_column(0x01)
     853                    .dwendentry
     854                    .dwendtag $C$DW$47
     855            
     856 000000               .sect   ".text:Comp_B_shortInputs"
     857                    .clink
     858                    .global Comp_B_shortInputs
     859            
     860            $C$DW$50        .dwtag  DW_TAG_subprogram
     861                    .dwattr $C$DW$50, DW_AT_name("Comp_B_shortInputs")
     862                    .dwattr $C$DW$50, DW_AT_low_pc(Comp_B_shortInputs)
     863                    .dwattr $C$DW$50, DW_AT_high_pc(0x00)
     864                    .dwattr $C$DW$50, DW_AT_TI_symbol_name("Comp_B_shortInputs")
     865                    .dwattr $C$DW$50, DW_AT_external
     866                    .dwattr $C$DW$50, DW_AT_TI_begin_file("../MSP430F5xx_6xx/comp_b.c")
     867                    .dwattr $C$DW$50, DW_AT_TI_begin_line(0xc8)
     868                    .dwattr $C$DW$50, DW_AT_TI_begin_column(0x06)
     869                    .dwattr $C$DW$50, DW_AT_decl_file("../MSP430F5xx_6xx/comp_b.c")
     870                    .dwattr $C$DW$50, DW_AT_decl_line(0xc8)
MSP430 Assembler PC v15.12.3 Mon Oct 17 14:33:02 2016

Tools Copyright (c) 2003-2015 Texas Instruments Incorporated
C:\Users\madis\AppData\Local\Temp\041722                             PAGE   18

     871                    .dwattr $C$DW$50, DW_AT_decl_column(0x06)
     872                    .dwattr $C$DW$50, DW_AT_TI_max_frame_size(0x04)
     873                    .dwpsn  file "../MSP430F5xx_6xx/comp_b.c",line 201,column 1,is_stmt,address Comp_B_shortInputs
     874            
     875                    .dwfde $C$DW$CIE, Comp_B_shortInputs
     876            $C$DW$51        .dwtag  DW_TAG_formal_parameter
     877                    .dwattr $C$DW$51, DW_AT_name("baseAddress")
     878                    .dwattr $C$DW$51, DW_AT_TI_symbol_name("baseAddress")
     879                    .dwattr $C$DW$51, DW_AT_type(*$C$DW$T$19)
     880                    .dwattr $C$DW$51, DW_AT_location[DW_OP_reg12]
     881            
     882            
     883            ;*****************************************************************************
     884            ;* FUNCTION NAME: Comp_B_shortInputs                                         *
     885            ;*                                                                           *
     886            ;*   Regs Modified     : SP,SR,r12,r15                                       *
     887            ;*   Regs Used         : SP,SR,r12,r15                                       *
     888            ;*   Local Frame Size  : 0 Args + 0 Auto + 0 Save = 0 byte                   *
     889            ;*****************************************************************************
     890 000000       Comp_B_shortInputs:
     891            ;* --------------------------------------------------------------------------*
     892                    .dwcfi  cfa_offset, 4
     893                    .dwcfi  save_reg_to_mem, 16, -4
     894                    .dwpsn  file "../MSP430F5xx_6xx/comp_b.c",line 202,column 5,is_stmt,isa 0
     895 000000 532C          ADD.W     #2,r12                ; [] |202| 
     896 000002 4C0F          MOV.W     r12,r15               ; [] |202| 
     897 000004 D0BF          OR.W      #16,0(r15)            ; [] |202| 
         000006 0010 
         000008 0000 
     898                    .dwpsn  file "../MSP430F5xx_6xx/comp_b.c",line 203,column 1,is_stmt,isa 0
     899            $C$DW$52        .dwtag  DW_TAG_TI_branch
     900                    .dwattr $C$DW$52, DW_AT_low_pc(0x00)
     901                    .dwattr $C$DW$52, DW_AT_TI_return
     902            
     903 00000a 0110          RETA      ; [] 
     904                    ; [] 
     905                    .dwattr $C$DW$50, DW_AT_TI_end_file("../MSP430F5xx_6xx/comp_b.c")
     906                    .dwattr $C$DW$50, DW_AT_TI_end_line(0xcb)
     907                    .dwattr $C$DW$50, DW_AT_TI_end_column(0x01)
     908                    .dwendentry
     909                    .dwendtag $C$DW$50
     910            
     911 000000               .sect   ".text:Comp_B_unshortInputs"
     912                    .clink
     913                    .global Comp_B_unshortInputs
     914            
     915            $C$DW$53        .dwtag  DW_TAG_subprogram
     916                    .dwattr $C$DW$53, DW_AT_name("Comp_B_unshortInputs")
     917                    .dwattr $C$DW$53, DW_AT_low_pc(Comp_B_unshortInputs)
     918                    .dwattr $C$DW$53, DW_AT_high_pc(0x00)
     919                    .dwattr $C$DW$53, DW_AT_TI_symbol_name("Comp_B_unshortInputs")
     920                    .dwattr $C$DW$53, DW_AT_external
     921                    .dwattr $C$DW$53, DW_AT_TI_begin_file("../MSP430F5xx_6xx/comp_b.c")
     922                    .dwattr $C$DW$53, DW_AT_TI_begin_line(0xcd)
     923                    .dwattr $C$DW$53, DW_AT_TI_begin_column(0x06)
MSP430 Assembler PC v15.12.3 Mon Oct 17 14:33:02 2016

Tools Copyright (c) 2003-2015 Texas Instruments Incorporated
C:\Users\madis\AppData\Local\Temp\041722                             PAGE   19

     924                    .dwattr $C$DW$53, DW_AT_decl_file("../MSP430F5xx_6xx/comp_b.c")
     925                    .dwattr $C$DW$53, DW_AT_decl_line(0xcd)
     926                    .dwattr $C$DW$53, DW_AT_decl_column(0x06)
     927                    .dwattr $C$DW$53, DW_AT_TI_max_frame_size(0x04)
     928                    .dwpsn  file "../MSP430F5xx_6xx/comp_b.c",line 206,column 1,is_stmt,address Comp_B_unshortInpu
     929            
     930                    .dwfde $C$DW$CIE, Comp_B_unshortInputs
     931            $C$DW$54        .dwtag  DW_TAG_formal_parameter
     932                    .dwattr $C$DW$54, DW_AT_name("baseAddress")
     933                    .dwattr $C$DW$54, DW_AT_TI_symbol_name("baseAddress")
     934                    .dwattr $C$DW$54, DW_AT_type(*$C$DW$T$19)
     935                    .dwattr $C$DW$54, DW_AT_location[DW_OP_reg12]
     936            
     937            
     938            ;*****************************************************************************
     939            ;* FUNCTION NAME: Comp_B_unshortInputs                                       *
     940            ;*                                                                           *
     941            ;*   Regs Modified     : SP,SR,r12,r15                                       *
     942            ;*   Regs Used         : SP,SR,r12,r15                                       *
     943            ;*   Local Frame Size  : 0 Args + 0 Auto + 0 Save = 0 byte                   *
     944            ;*****************************************************************************
     945 000000       Comp_B_unshortInputs:
     946            ;* --------------------------------------------------------------------------*
     947                    .dwcfi  cfa_offset, 4
     948                    .dwcfi  save_reg_to_mem, 16, -4
     949                    .dwpsn  file "../MSP430F5xx_6xx/comp_b.c",line 207,column 5,is_stmt,isa 0
     950 000000 532C          ADD.W     #2,r12                ; [] |207| 
     951 000002 4C0F          MOV.W     r12,r15               ; [] |207| 
     952 000004 F0BF          AND.W     #65519,0(r15)         ; [] |207| 
         000006 FFEF 
         000008 0000 
     953                    .dwpsn  file "../MSP430F5xx_6xx/comp_b.c",line 208,column 1,is_stmt,isa 0
     954            $C$DW$55        .dwtag  DW_TAG_TI_branch
     955                    .dwattr $C$DW$55, DW_AT_low_pc(0x00)
     956                    .dwattr $C$DW$55, DW_AT_TI_return
     957            
     958 00000a 0110          RETA      ; [] 
     959                    ; [] 
     960                    .dwattr $C$DW$53, DW_AT_TI_end_file("../MSP430F5xx_6xx/comp_b.c")
     961                    .dwattr $C$DW$53, DW_AT_TI_end_line(0xd0)
     962                    .dwattr $C$DW$53, DW_AT_TI_end_column(0x01)
     963                    .dwendentry
     964                    .dwendtag $C$DW$53
     965            
     966 000000               .sect   ".text:Comp_B_disableInputBuffer"
     967                    .clink
     968                    .global Comp_B_disableInputBuffer
     969            
     970            $C$DW$56        .dwtag  DW_TAG_subprogram
     971                    .dwattr $C$DW$56, DW_AT_name("Comp_B_disableInputBuffer")
     972                    .dwattr $C$DW$56, DW_AT_low_pc(Comp_B_disableInputBuffer)
     973                    .dwattr $C$DW$56, DW_AT_high_pc(0x00)
     974                    .dwattr $C$DW$56, DW_AT_TI_symbol_name("Comp_B_disableInputBuffer")
     975                    .dwattr $C$DW$56, DW_AT_external
     976                    .dwattr $C$DW$56, DW_AT_TI_begin_file("../MSP430F5xx_6xx/comp_b.c")
MSP430 Assembler PC v15.12.3 Mon Oct 17 14:33:02 2016

Tools Copyright (c) 2003-2015 Texas Instruments Incorporated
C:\Users\madis\AppData\Local\Temp\041722                             PAGE   20

     977                    .dwattr $C$DW$56, DW_AT_TI_begin_line(0xd2)
     978                    .dwattr $C$DW$56, DW_AT_TI_begin_column(0x06)
     979                    .dwattr $C$DW$56, DW_AT_decl_file("../MSP430F5xx_6xx/comp_b.c")
     980                    .dwattr $C$DW$56, DW_AT_decl_line(0xd2)
     981                    .dwattr $C$DW$56, DW_AT_decl_column(0x06)
     982                    .dwattr $C$DW$56, DW_AT_TI_max_frame_size(0x04)
     983                    .dwpsn  file "../MSP430F5xx_6xx/comp_b.c",line 212,column 1,is_stmt,address Comp_B_disableInpu
     984            
     985                    .dwfde $C$DW$CIE, Comp_B_disableInputBuffer
     986            $C$DW$57        .dwtag  DW_TAG_formal_parameter
     987                    .dwattr $C$DW$57, DW_AT_name("baseAddress")
     988                    .dwattr $C$DW$57, DW_AT_TI_symbol_name("baseAddress")
     989                    .dwattr $C$DW$57, DW_AT_type(*$C$DW$T$19)
     990                    .dwattr $C$DW$57, DW_AT_location[DW_OP_reg12]
     991            
     992            $C$DW$58        .dwtag  DW_TAG_formal_parameter
     993                    .dwattr $C$DW$58, DW_AT_name("inputPort")
     994                    .dwattr $C$DW$58, DW_AT_TI_symbol_name("inputPort")
     995                    .dwattr $C$DW$58, DW_AT_type(*$C$DW$T$21)
     996                    .dwattr $C$DW$58, DW_AT_location[DW_OP_reg13]
     997            
     998            
     999            ;*****************************************************************************
    1000            ;* FUNCTION NAME: Comp_B_disableInputBuffer                                  *
    1001            ;*                                                                           *
    1002            ;*   Regs Modified     : SP,SR,r12,r13,r15                                   *
    1003            ;*   Regs Used         : SP,SR,r12,r13,r15                                   *
    1004            ;*   Local Frame Size  : 0 Args + 0 Auto + 0 Save = 0 byte                   *
    1005            ;*****************************************************************************
    1006 000000       Comp_B_disableInputBuffer:
    1007            ;* --------------------------------------------------------------------------*
    1008                    .dwcfi  cfa_offset, 4
    1009                    .dwcfi  save_reg_to_mem, 16, -4
    1010            ;* r13   assigned to inputPort
    1011            $C$DW$59        .dwtag  DW_TAG_variable
    1012                    .dwattr $C$DW$59, DW_AT_name("inputPort")
    1013                    .dwattr $C$DW$59, DW_AT_TI_symbol_name("inputPort")
    1014                    .dwattr $C$DW$59, DW_AT_type(*$C$DW$T$21)
    1015                    .dwattr $C$DW$59, DW_AT_location[DW_OP_reg13]
    1016            
    1017                    .dwpsn  file "../MSP430F5xx_6xx/comp_b.c",line 213,column 5,is_stmt,isa 0
    1018 000000 503C          ADD.W     #6,r12                ; [] |213| 
         000002 0006 
    1019 000004 4C0F          MOV.W     r12,r15               ; [] |213| 
    1020 000006 4D4D          MOV.B     r13,r13               ; [] |213| 
    1021 000008 431C          MOV.W     #1,r12                ; [] |213| 
    1022            $C$DW$60        .dwtag  DW_TAG_TI_branch
    1023                    .dwattr $C$DW$60, DW_AT_low_pc(0x00)
    1024                    .dwattr $C$DW$60, DW_AT_name("__mspabi_slli")
    1025                    .dwattr $C$DW$60, DW_AT_TI_call
    1026            
    1027 00000a 13B0!         CALLA     #__mspabi_slli        ; [] |213| 
         00000c 0000 
    1028                                                      ; [] |213| 
    1029 00000e DC8F          OR.W      r12,0(r15)            ; [] |213| 
MSP430 Assembler PC v15.12.3 Mon Oct 17 14:33:02 2016

Tools Copyright (c) 2003-2015 Texas Instruments Incorporated
C:\Users\madis\AppData\Local\Temp\041722                             PAGE   21

         000010 0000 
    1030                    .dwpsn  file "../MSP430F5xx_6xx/comp_b.c",line 214,column 1,is_stmt,isa 0
    1031            $C$DW$61        .dwtag  DW_TAG_TI_branch
    1032                    .dwattr $C$DW$61, DW_AT_low_pc(0x00)
    1033                    .dwattr $C$DW$61, DW_AT_TI_return
    1034            
    1035 000012 0110          RETA      ; [] 
    1036                    ; [] 
    1037                    .dwattr $C$DW$56, DW_AT_TI_end_file("../MSP430F5xx_6xx/comp_b.c")
    1038                    .dwattr $C$DW$56, DW_AT_TI_end_line(0xd6)
    1039                    .dwattr $C$DW$56, DW_AT_TI_end_column(0x01)
    1040                    .dwendentry
    1041                    .dwendtag $C$DW$56
    1042            
    1043 000000               .sect   ".text:Comp_B_enableInputBuffer"
    1044                    .clink
    1045                    .global Comp_B_enableInputBuffer
    1046            
    1047            $C$DW$62        .dwtag  DW_TAG_subprogram
    1048                    .dwattr $C$DW$62, DW_AT_name("Comp_B_enableInputBuffer")
    1049                    .dwattr $C$DW$62, DW_AT_low_pc(Comp_B_enableInputBuffer)
    1050                    .dwattr $C$DW$62, DW_AT_high_pc(0x00)
    1051                    .dwattr $C$DW$62, DW_AT_TI_symbol_name("Comp_B_enableInputBuffer")
    1052                    .dwattr $C$DW$62, DW_AT_external
    1053                    .dwattr $C$DW$62, DW_AT_TI_begin_file("../MSP430F5xx_6xx/comp_b.c")
    1054                    .dwattr $C$DW$62, DW_AT_TI_begin_line(0xd8)
    1055                    .dwattr $C$DW$62, DW_AT_TI_begin_column(0x06)
    1056                    .dwattr $C$DW$62, DW_AT_decl_file("../MSP430F5xx_6xx/comp_b.c")
    1057                    .dwattr $C$DW$62, DW_AT_decl_line(0xd8)
    1058                    .dwattr $C$DW$62, DW_AT_decl_column(0x06)
    1059                    .dwattr $C$DW$62, DW_AT_TI_max_frame_size(0x04)
    1060                    .dwpsn  file "../MSP430F5xx_6xx/comp_b.c",line 218,column 1,is_stmt,address Comp_B_enableInput
    1061            
    1062                    .dwfde $C$DW$CIE, Comp_B_enableInputBuffer
    1063            $C$DW$63        .dwtag  DW_TAG_formal_parameter
    1064                    .dwattr $C$DW$63, DW_AT_name("baseAddress")
    1065                    .dwattr $C$DW$63, DW_AT_TI_symbol_name("baseAddress")
    1066                    .dwattr $C$DW$63, DW_AT_type(*$C$DW$T$19)
    1067                    .dwattr $C$DW$63, DW_AT_location[DW_OP_reg12]
    1068            
    1069            $C$DW$64        .dwtag  DW_TAG_formal_parameter
    1070                    .dwattr $C$DW$64, DW_AT_name("inputPort")
    1071                    .dwattr $C$DW$64, DW_AT_TI_symbol_name("inputPort")
    1072                    .dwattr $C$DW$64, DW_AT_type(*$C$DW$T$21)
    1073                    .dwattr $C$DW$64, DW_AT_location[DW_OP_reg13]
    1074            
    1075            
    1076            ;*****************************************************************************
    1077            ;* FUNCTION NAME: Comp_B_enableInputBuffer                                   *
    1078            ;*                                                                           *
    1079            ;*   Regs Modified     : SP,SR,r12,r13,r15                                   *
    1080            ;*   Regs Used         : SP,SR,r12,r13,r15                                   *
    1081            ;*   Local Frame Size  : 0 Args + 0 Auto + 0 Save = 0 byte                   *
    1082            ;*****************************************************************************
    1083 000000       Comp_B_enableInputBuffer:
MSP430 Assembler PC v15.12.3 Mon Oct 17 14:33:02 2016

Tools Copyright (c) 2003-2015 Texas Instruments Incorporated
C:\Users\madis\AppData\Local\Temp\041722                             PAGE   22

    1084            ;* --------------------------------------------------------------------------*
    1085                    .dwcfi  cfa_offset, 4
    1086                    .dwcfi  save_reg_to_mem, 16, -4
    1087            ;* r13   assigned to inputPort
    1088            $C$DW$65        .dwtag  DW_TAG_variable
    1089                    .dwattr $C$DW$65, DW_AT_name("inputPort")
    1090                    .dwattr $C$DW$65, DW_AT_TI_symbol_name("inputPort")
    1091                    .dwattr $C$DW$65, DW_AT_type(*$C$DW$T$21)
    1092                    .dwattr $C$DW$65, DW_AT_location[DW_OP_reg13]
    1093            
    1094                    .dwpsn  file "../MSP430F5xx_6xx/comp_b.c",line 219,column 5,is_stmt,isa 0
    1095 000000 503C          ADD.W     #6,r12                ; [] |219| 
         000002 0006 
    1096 000004 4C0F          MOV.W     r12,r15               ; [] |219| 
    1097 000006 4D4D          MOV.B     r13,r13               ; [] |219| 
    1098 000008 431C          MOV.W     #1,r12                ; [] |219| 
    1099            $C$DW$66        .dwtag  DW_TAG_TI_branch
    1100                    .dwattr $C$DW$66, DW_AT_low_pc(0x00)
    1101                    .dwattr $C$DW$66, DW_AT_name("__mspabi_slli")
    1102                    .dwattr $C$DW$66, DW_AT_TI_call
    1103            
    1104 00000a 13B0!         CALLA     #__mspabi_slli        ; [] |219| 
         00000c 0000 
    1105                                                      ; [] |219| 
    1106 00000e CC8F          BIC.W     r12,0(r15)            ; [] |219| 
         000010 0000 
    1107                    .dwpsn  file "../MSP430F5xx_6xx/comp_b.c",line 220,column 1,is_stmt,isa 0
    1108            $C$DW$67        .dwtag  DW_TAG_TI_branch
    1109                    .dwattr $C$DW$67, DW_AT_low_pc(0x00)
    1110                    .dwattr $C$DW$67, DW_AT_TI_return
    1111            
    1112 000012 0110          RETA      ; [] 
    1113                    ; [] 
    1114                    .dwattr $C$DW$62, DW_AT_TI_end_file("../MSP430F5xx_6xx/comp_b.c")
    1115                    .dwattr $C$DW$62, DW_AT_TI_end_line(0xdc)
    1116                    .dwattr $C$DW$62, DW_AT_TI_end_column(0x01)
    1117                    .dwendentry
    1118                    .dwendtag $C$DW$62
    1119            
    1120 000000               .sect   ".text:Comp_B_swapIO"
    1121                    .clink
    1122                    .global Comp_B_swapIO
    1123            
    1124            $C$DW$68        .dwtag  DW_TAG_subprogram
    1125                    .dwattr $C$DW$68, DW_AT_name("Comp_B_swapIO")
    1126                    .dwattr $C$DW$68, DW_AT_low_pc(Comp_B_swapIO)
    1127                    .dwattr $C$DW$68, DW_AT_high_pc(0x00)
    1128                    .dwattr $C$DW$68, DW_AT_TI_symbol_name("Comp_B_swapIO")
    1129                    .dwattr $C$DW$68, DW_AT_external
    1130                    .dwattr $C$DW$68, DW_AT_TI_begin_file("../MSP430F5xx_6xx/comp_b.c")
    1131                    .dwattr $C$DW$68, DW_AT_TI_begin_line(0xde)
    1132                    .dwattr $C$DW$68, DW_AT_TI_begin_column(0x06)
    1133                    .dwattr $C$DW$68, DW_AT_decl_file("../MSP430F5xx_6xx/comp_b.c")
    1134                    .dwattr $C$DW$68, DW_AT_decl_line(0xde)
    1135                    .dwattr $C$DW$68, DW_AT_decl_column(0x06)
MSP430 Assembler PC v15.12.3 Mon Oct 17 14:33:02 2016

Tools Copyright (c) 2003-2015 Texas Instruments Incorporated
C:\Users\madis\AppData\Local\Temp\041722                             PAGE   23

    1136                    .dwattr $C$DW$68, DW_AT_TI_max_frame_size(0x04)
    1137                    .dwpsn  file "../MSP430F5xx_6xx/comp_b.c",line 223,column 1,is_stmt,address Comp_B_swapIO,isa 
    1138            
    1139                    .dwfde $C$DW$CIE, Comp_B_swapIO
    1140            $C$DW$69        .dwtag  DW_TAG_formal_parameter
    1141                    .dwattr $C$DW$69, DW_AT_name("baseAddress")
    1142                    .dwattr $C$DW$69, DW_AT_TI_symbol_name("baseAddress")
    1143                    .dwattr $C$DW$69, DW_AT_type(*$C$DW$T$19)
    1144                    .dwattr $C$DW$69, DW_AT_location[DW_OP_reg12]
    1145            
    1146            
    1147            ;*****************************************************************************
    1148            ;* FUNCTION NAME: Comp_B_swapIO                                              *
    1149            ;*                                                                           *
    1150            ;*   Regs Modified     : SP,SR,r12,r15                                       *
    1151            ;*   Regs Used         : SP,SR,r12,r15                                       *
    1152            ;*   Local Frame Size  : 0 Args + 0 Auto + 0 Save = 0 byte                   *
    1153            ;*****************************************************************************
    1154 000000       Comp_B_swapIO:
    1155            ;* --------------------------------------------------------------------------*
    1156                    .dwcfi  cfa_offset, 4
    1157                    .dwcfi  save_reg_to_mem, 16, -4
    1158                    .dwpsn  file "../MSP430F5xx_6xx/comp_b.c",line 224,column 5,is_stmt,isa 0
    1159 000000 532C          ADD.W     #2,r12                ; [] |224| 
    1160 000002 4C0F          MOV.W     r12,r15               ; [] |224| 
    1161 000004 E0BF          XOR.W     #32,0(r15)            ; [] |224| 
         000006 0020 
         000008 0000 
    1162                    .dwpsn  file "../MSP430F5xx_6xx/comp_b.c",line 225,column 1,is_stmt,isa 0
    1163            $C$DW$70        .dwtag  DW_TAG_TI_branch
    1164                    .dwattr $C$DW$70, DW_AT_low_pc(0x00)
    1165                    .dwattr $C$DW$70, DW_AT_TI_return
    1166            
    1167 00000a 0110          RETA      ; [] 
    1168                    ; [] 
    1169                    .dwattr $C$DW$68, DW_AT_TI_end_file("../MSP430F5xx_6xx/comp_b.c")
    1170                    .dwattr $C$DW$68, DW_AT_TI_end_line(0xe1)
    1171                    .dwattr $C$DW$68, DW_AT_TI_end_column(0x01)
    1172                    .dwendentry
    1173                    .dwendtag $C$DW$68
    1174            
    1175 000000               .sect   ".text:Comp_B_outputValue"
    1176                    .clink
    1177                    .global Comp_B_outputValue
    1178            
    1179            $C$DW$71        .dwtag  DW_TAG_subprogram
    1180                    .dwattr $C$DW$71, DW_AT_name("Comp_B_outputValue")
    1181                    .dwattr $C$DW$71, DW_AT_low_pc(Comp_B_outputValue)
    1182                    .dwattr $C$DW$71, DW_AT_high_pc(0x00)
    1183                    .dwattr $C$DW$71, DW_AT_TI_symbol_name("Comp_B_outputValue")
    1184                    .dwattr $C$DW$71, DW_AT_external
    1185                    .dwattr $C$DW$71, DW_AT_type(*$C$DW$T$19)
    1186                    .dwattr $C$DW$71, DW_AT_TI_begin_file("../MSP430F5xx_6xx/comp_b.c")
    1187                    .dwattr $C$DW$71, DW_AT_TI_begin_line(0xe3)
    1188                    .dwattr $C$DW$71, DW_AT_TI_begin_column(0x0a)
MSP430 Assembler PC v15.12.3 Mon Oct 17 14:33:02 2016

Tools Copyright (c) 2003-2015 Texas Instruments Incorporated
C:\Users\madis\AppData\Local\Temp\041722                             PAGE   24

    1189                    .dwattr $C$DW$71, DW_AT_decl_file("../MSP430F5xx_6xx/comp_b.c")
    1190                    .dwattr $C$DW$71, DW_AT_decl_line(0xe3)
    1191                    .dwattr $C$DW$71, DW_AT_decl_column(0x0a)
    1192                    .dwattr $C$DW$71, DW_AT_TI_max_frame_size(0x04)
    1193                    .dwpsn  file "../MSP430F5xx_6xx/comp_b.c",line 228,column 1,is_stmt,address Comp_B_outputValue
    1194            
    1195                    .dwfde $C$DW$CIE, Comp_B_outputValue
    1196            $C$DW$72        .dwtag  DW_TAG_formal_parameter
    1197                    .dwattr $C$DW$72, DW_AT_name("baseAddress")
    1198                    .dwattr $C$DW$72, DW_AT_TI_symbol_name("baseAddress")
    1199                    .dwattr $C$DW$72, DW_AT_type(*$C$DW$T$19)
    1200                    .dwattr $C$DW$72, DW_AT_location[DW_OP_reg12]
    1201            
    1202            
    1203            ;*****************************************************************************
    1204            ;* FUNCTION NAME: Comp_B_outputValue                                         *
    1205            ;*                                                                           *
    1206            ;*   Regs Modified     : SP,SR,r12,r15                                       *
    1207            ;*   Regs Used         : SP,SR,r12,r15                                       *
    1208            ;*   Local Frame Size  : 0 Args + 0 Auto + 0 Save = 0 byte                   *
    1209            ;*****************************************************************************
    1210 000000       Comp_B_outputValue:
    1211            ;* --------------------------------------------------------------------------*
    1212                    .dwcfi  cfa_offset, 4
    1213                    .dwcfi  save_reg_to_mem, 16, -4
    1214                    .dwpsn  file "../MSP430F5xx_6xx/comp_b.c",line 229,column 5,is_stmt,isa 0
    1215 000000 532C          ADD.W     #2,r12                ; [] |229| 
    1216 000002 431F          MOV.W     #1,r15                ; [] |229| 
    1217 000004 FC2F          AND.W     @r12,r15              ; [] |229| 
    1218 000006 0FCC          MOVA      r15,r12               ; [] |229| 
    1219                    .dwpsn  file "../MSP430F5xx_6xx/comp_b.c",line 230,column 1,is_stmt,isa 0
    1220            $C$DW$73        .dwtag  DW_TAG_TI_branch
    1221                    .dwattr $C$DW$73, DW_AT_low_pc(0x00)
    1222                    .dwattr $C$DW$73, DW_AT_TI_return
    1223            
    1224 000008 0110          RETA      ; [] 
    1225                    ; [] 
    1226                    .dwattr $C$DW$71, DW_AT_TI_end_file("../MSP430F5xx_6xx/comp_b.c")
    1227                    .dwattr $C$DW$71, DW_AT_TI_end_line(0xe6)
    1228                    .dwattr $C$DW$71, DW_AT_TI_end_column(0x01)
    1229                    .dwendentry
    1230                    .dwendtag $C$DW$71
    1231            
    1232            ;*****************************************************************************
    1233            ;* UNDEFINED EXTERNAL REFERENCES                                             *
    1234            ;*****************************************************************************
    1235                    .global __mspabi_slli
    1236            
    1237            ;******************************************************************************
    1238            ;* BUILD ATTRIBUTES                                                           *
    1239            ;******************************************************************************
    1240                    .battr "TI", Tag_File, 1, Tag_LPM_INFO(1)
    1241                    .battr "TI", Tag_File, 1, Tag_PORTS_INIT_INFO("012345678901ABCDEFGHIJ0000000000001111000000000
    1242                    .battr "TI", Tag_File, 1, Tag_HW_MPY32_INFO(2)
    1243                    .battr "TI", Tag_File, 1, Tag_HW_MPY_ISR_INFO(1)
MSP430 Assembler PC v15.12.3 Mon Oct 17 14:33:02 2016

Tools Copyright (c) 2003-2015 Texas Instruments Incorporated
C:\Users\madis\AppData\Local\Temp\041722                             PAGE   25

    1244                    .battr "TI", Tag_File, 1, Tag_HW_MPY_INLINE_INFO(1)
    1245                    .battr "mspabi", Tag_File, 1, Tag_enum_size(3)
    1246            
    1247            ;******************************************************************************
    1248            ;* TYPE INFORMATION                                                           *
    1249            ;******************************************************************************
    1250            
    1251            $C$DW$T$20      .dwtag  DW_TAG_structure_type
    1252                    .dwattr $C$DW$T$20, DW_AT_name("Comp_B_configureReferenceVoltageParam")
    1253                    .dwattr $C$DW$T$20, DW_AT_byte_size(0x08)
    1254            $C$DW$74        .dwtag  DW_TAG_member
    1255                    .dwattr $C$DW$74, DW_AT_type(*$C$DW$T$19)
    1256                    .dwattr $C$DW$74, DW_AT_name("supplyVoltageReferenceBase")
    1257                    .dwattr $C$DW$74, DW_AT_TI_symbol_name("supplyVoltageReferenceBase")
    1258                    .dwattr $C$DW$74, DW_AT_data_member_location[DW_OP_plus_uconst 0x0]
    1259                    .dwattr $C$DW$74, DW_AT_accessibility(DW_ACCESS_public)
    1260                    .dwattr $C$DW$74, DW_AT_decl_file("..\MSP430F5xx_6xx\comp_b.h")
    1261                    .dwattr $C$DW$74, DW_AT_decl_line(0x8e)
    1262                    .dwattr $C$DW$74, DW_AT_decl_column(0x0e)
    1263            
    1264            $C$DW$75        .dwtag  DW_TAG_member
    1265                    .dwattr $C$DW$75, DW_AT_type(*$C$DW$T$19)
    1266                    .dwattr $C$DW$75, DW_AT_name("lowerLimitSupplyVoltageFractionOf32")
    1267                    .dwattr $C$DW$75, DW_AT_TI_symbol_name("lowerLimitSupplyVoltageFractionOf32")
    1268                    .dwattr $C$DW$75, DW_AT_data_member_location[DW_OP_plus_uconst 0x2]
    1269                    .dwattr $C$DW$75, DW_AT_accessibility(DW_ACCESS_public)
    1270                    .dwattr $C$DW$75, DW_AT_decl_file("..\MSP430F5xx_6xx\comp_b.h")
    1271                    .dwattr $C$DW$75, DW_AT_decl_line(0x91)
    1272                    .dwattr $C$DW$75, DW_AT_decl_column(0x0e)
    1273            
    1274            $C$DW$76        .dwtag  DW_TAG_member
    1275                    .dwattr $C$DW$76, DW_AT_type(*$C$DW$T$19)
    1276                    .dwattr $C$DW$76, DW_AT_name("upperLimitSupplyVoltageFractionOf32")
    1277                    .dwattr $C$DW$76, DW_AT_TI_symbol_name("upperLimitSupplyVoltageFractionOf32")
    1278                    .dwattr $C$DW$76, DW_AT_data_member_location[DW_OP_plus_uconst 0x4]
    1279                    .dwattr $C$DW$76, DW_AT_accessibility(DW_ACCESS_public)
    1280                    .dwattr $C$DW$76, DW_AT_decl_file("..\MSP430F5xx_6xx\comp_b.h")
    1281                    .dwattr $C$DW$76, DW_AT_decl_line(0x94)
    1282                    .dwattr $C$DW$76, DW_AT_decl_column(0x0e)
    1283            
    1284            $C$DW$77        .dwtag  DW_TAG_member
    1285                    .dwattr $C$DW$77, DW_AT_type(*$C$DW$T$19)
    1286                    .dwattr $C$DW$77, DW_AT_name("referenceAccuracy")
    1287                    .dwattr $C$DW$77, DW_AT_TI_symbol_name("referenceAccuracy")
    1288                    .dwattr $C$DW$77, DW_AT_data_member_location[DW_OP_plus_uconst 0x6]
    1289                    .dwattr $C$DW$77, DW_AT_accessibility(DW_ACCESS_public)
    1290                    .dwattr $C$DW$77, DW_AT_decl_file("..\MSP430F5xx_6xx\comp_b.h")
    1291                    .dwattr $C$DW$77, DW_AT_decl_line(0x9a)
    1292                    .dwattr $C$DW$77, DW_AT_decl_column(0x0e)
    1293            
    1294                    .dwattr $C$DW$T$20, DW_AT_decl_file("..\MSP430F5xx_6xx\comp_b.h")
    1295                    .dwattr $C$DW$T$20, DW_AT_decl_line(0x85)
    1296                    .dwattr $C$DW$T$20, DW_AT_decl_column(0x10)
    1297                    .dwendtag $C$DW$T$20
    1298            
MSP430 Assembler PC v15.12.3 Mon Oct 17 14:33:02 2016

Tools Copyright (c) 2003-2015 Texas Instruments Incorporated
C:\Users\madis\AppData\Local\Temp\041722                             PAGE   26

    1299            $C$DW$T$23      .dwtag  DW_TAG_typedef
    1300                    .dwattr $C$DW$T$23, DW_AT_name("Comp_B_configureReferenceVoltageParam")
    1301                    .dwattr $C$DW$T$23, DW_AT_type(*$C$DW$T$20)
    1302                    .dwattr $C$DW$T$23, DW_AT_language(DW_LANG_C)
    1303                    .dwattr $C$DW$T$23, DW_AT_decl_file("..\MSP430F5xx_6xx\comp_b.h")
    1304                    .dwattr $C$DW$T$23, DW_AT_decl_line(0x9b)
    1305                    .dwattr $C$DW$T$23, DW_AT_decl_column(0x03)
    1306            
    1307            $C$DW$T$24      .dwtag  DW_TAG_pointer_type
    1308                    .dwattr $C$DW$T$24, DW_AT_type(*$C$DW$T$23)
    1309                    .dwattr $C$DW$T$24, DW_AT_address_class(0x14)
    1310            
    1311            
    1312            $C$DW$T$22      .dwtag  DW_TAG_structure_type
    1313                    .dwattr $C$DW$T$22, DW_AT_name("Comp_B_initParam")
    1314                    .dwattr $C$DW$T$22, DW_AT_byte_size(0x08)
    1315            $C$DW$78        .dwtag  DW_TAG_member
    1316                    .dwattr $C$DW$78, DW_AT_type(*$C$DW$T$21)
    1317                    .dwattr $C$DW$78, DW_AT_name("positiveTerminalInput")
    1318                    .dwattr $C$DW$78, DW_AT_TI_symbol_name("positiveTerminalInput")
    1319                    .dwattr $C$DW$78, DW_AT_data_member_location[DW_OP_plus_uconst 0x0]
    1320                    .dwattr $C$DW$78, DW_AT_accessibility(DW_ACCESS_public)
    1321                    .dwattr $C$DW$78, DW_AT_decl_file("..\MSP430F5xx_6xx\comp_b.h")
    1322                    .dwattr $C$DW$78, DW_AT_decl_line(0x53)
    1323                    .dwattr $C$DW$78, DW_AT_decl_column(0x0d)
    1324            
    1325            $C$DW$79        .dwtag  DW_TAG_member
    1326                    .dwattr $C$DW$79, DW_AT_type(*$C$DW$T$21)
    1327                    .dwattr $C$DW$79, DW_AT_name("negativeTerminalInput")
    1328                    .dwattr $C$DW$79, DW_AT_TI_symbol_name("negativeTerminalInput")
    1329                    .dwattr $C$DW$79, DW_AT_data_member_location[DW_OP_plus_uconst 0x1]
    1330                    .dwattr $C$DW$79, DW_AT_accessibility(DW_ACCESS_public)
    1331                    .dwattr $C$DW$79, DW_AT_decl_file("..\MSP430F5xx_6xx\comp_b.h")
    1332                    .dwattr $C$DW$79, DW_AT_decl_line(0x67)
    1333                    .dwattr $C$DW$79, DW_AT_decl_column(0x0d)
    1334            
    1335            $C$DW$80        .dwtag  DW_TAG_member
    1336                    .dwattr $C$DW$80, DW_AT_type(*$C$DW$T$19)
    1337                    .dwattr $C$DW$80, DW_AT_name("powerModeSelect")
    1338                    .dwattr $C$DW$80, DW_AT_TI_symbol_name("powerModeSelect")
    1339                    .dwattr $C$DW$80, DW_AT_data_member_location[DW_OP_plus_uconst 0x2]
    1340                    .dwattr $C$DW$80, DW_AT_accessibility(DW_ACCESS_public)
    1341                    .dwattr $C$DW$80, DW_AT_decl_file("..\MSP430F5xx_6xx\comp_b.h")
    1342                    .dwattr $C$DW$80, DW_AT_decl_line(0x6d)
    1343                    .dwattr $C$DW$80, DW_AT_decl_column(0x0e)
    1344            
    1345            $C$DW$81        .dwtag  DW_TAG_member
    1346                    .dwattr $C$DW$81, DW_AT_type(*$C$DW$T$21)
    1347                    .dwattr $C$DW$81, DW_AT_name("outputFilterEnableAndDelayLevel")
    1348                    .dwattr $C$DW$81, DW_AT_TI_symbol_name("outputFilterEnableAndDelayLevel")
    1349                    .dwattr $C$DW$81, DW_AT_data_member_location[DW_OP_plus_uconst 0x4]
    1350                    .dwattr $C$DW$81, DW_AT_accessibility(DW_ACCESS_public)
    1351                    .dwattr $C$DW$81, DW_AT_decl_file("..\MSP430F5xx_6xx\comp_b.h")
    1352                    .dwattr $C$DW$81, DW_AT_decl_line(0x77)
    1353                    .dwattr $C$DW$81, DW_AT_decl_column(0x0d)
MSP430 Assembler PC v15.12.3 Mon Oct 17 14:33:02 2016

Tools Copyright (c) 2003-2015 Texas Instruments Incorporated
C:\Users\madis\AppData\Local\Temp\041722                             PAGE   27

    1354            
    1355            $C$DW$82        .dwtag  DW_TAG_member
    1356                    .dwattr $C$DW$82, DW_AT_type(*$C$DW$T$19)
    1357                    .dwattr $C$DW$82, DW_AT_name("invertedOutputPolarity")
    1358                    .dwattr $C$DW$82, DW_AT_TI_symbol_name("invertedOutputPolarity")
    1359                    .dwattr $C$DW$82, DW_AT_data_member_location[DW_OP_plus_uconst 0x6]
    1360                    .dwattr $C$DW$82, DW_AT_accessibility(DW_ACCESS_public)
    1361                    .dwattr $C$DW$82, DW_AT_decl_file("..\MSP430F5xx_6xx\comp_b.h")
    1362                    .dwattr $C$DW$82, DW_AT_decl_line(0x7c)
    1363                    .dwattr $C$DW$82, DW_AT_decl_column(0x0e)
    1364            
    1365                    .dwattr $C$DW$T$22, DW_AT_decl_file("..\MSP430F5xx_6xx\comp_b.h")
    1366                    .dwattr $C$DW$T$22, DW_AT_decl_line(0x3e)
    1367                    .dwattr $C$DW$T$22, DW_AT_decl_column(0x10)
    1368                    .dwendtag $C$DW$T$22
    1369            
    1370            $C$DW$T$26      .dwtag  DW_TAG_typedef
    1371                    .dwattr $C$DW$T$26, DW_AT_name("Comp_B_initParam")
    1372                    .dwattr $C$DW$T$26, DW_AT_type(*$C$DW$T$22)
    1373                    .dwattr $C$DW$T$26, DW_AT_language(DW_LANG_C)
    1374                    .dwattr $C$DW$T$26, DW_AT_decl_file("..\MSP430F5xx_6xx\comp_b.h")
    1375                    .dwattr $C$DW$T$26, DW_AT_decl_line(0x7d)
    1376                    .dwattr $C$DW$T$26, DW_AT_decl_column(0x03)
    1377            
    1378            $C$DW$T$27      .dwtag  DW_TAG_pointer_type
    1379                    .dwattr $C$DW$T$27, DW_AT_type(*$C$DW$T$26)
    1380                    .dwattr $C$DW$T$27, DW_AT_address_class(0x14)
    1381            
    1382            $C$DW$T$2       .dwtag  DW_TAG_unspecified_type
    1383                    .dwattr $C$DW$T$2, DW_AT_name("void")
    1384            
    1385            
    1386            $C$DW$T$33      .dwtag  DW_TAG_subroutine_type
    1387                    .dwattr $C$DW$T$33, DW_AT_language(DW_LANG_C)
    1388                    .dwendtag $C$DW$T$33
    1389            
    1390            $C$DW$T$34      .dwtag  DW_TAG_pointer_type
    1391                    .dwattr $C$DW$T$34, DW_AT_type(*$C$DW$T$33)
    1392                    .dwattr $C$DW$T$34, DW_AT_address_class(0x14)
    1393            
    1394            $C$DW$T$35      .dwtag  DW_TAG_typedef
    1395                    .dwattr $C$DW$T$35, DW_AT_name("__SFR_FARPTR")
    1396                    .dwattr $C$DW$T$35, DW_AT_type(*$C$DW$T$34)
    1397                    .dwattr $C$DW$T$35, DW_AT_language(DW_LANG_C)
    1398                    .dwattr $C$DW$T$35, DW_AT_decl_file("D:\ti\ccsv6\ccs_base\msp430\include\msp430f5529.h")
    1399                    .dwattr $C$DW$T$35, DW_AT_decl_line(0x47)
    1400                    .dwattr $C$DW$T$35, DW_AT_decl_column(0x11)
    1401            
    1402            $C$DW$T$4       .dwtag  DW_TAG_base_type
    1403                    .dwattr $C$DW$T$4, DW_AT_encoding(DW_ATE_boolean)
    1404                    .dwattr $C$DW$T$4, DW_AT_name("bool")
    1405                    .dwattr $C$DW$T$4, DW_AT_byte_size(0x01)
    1406            
    1407            $C$DW$T$5       .dwtag  DW_TAG_base_type
    1408                    .dwattr $C$DW$T$5, DW_AT_encoding(DW_ATE_signed_char)
MSP430 Assembler PC v15.12.3 Mon Oct 17 14:33:02 2016

Tools Copyright (c) 2003-2015 Texas Instruments Incorporated
C:\Users\madis\AppData\Local\Temp\041722                             PAGE   28

    1409                    .dwattr $C$DW$T$5, DW_AT_name("signed char")
    1410                    .dwattr $C$DW$T$5, DW_AT_byte_size(0x01)
    1411            
    1412            $C$DW$T$36      .dwtag  DW_TAG_typedef
    1413                    .dwattr $C$DW$T$36, DW_AT_name("int8_t")
    1414                    .dwattr $C$DW$T$36, DW_AT_type(*$C$DW$T$5)
    1415                    .dwattr $C$DW$T$36, DW_AT_language(DW_LANG_C)
    1416                    .dwattr $C$DW$T$36, DW_AT_decl_file("D:/ti/ccsv6/tools/compiler/msp430_15.12.3.LTS/include/std
    1417                    .dwattr $C$DW$T$36, DW_AT_decl_line(0x2a)
    1418                    .dwattr $C$DW$T$36, DW_AT_decl_column(0x1e)
    1419            
    1420            $C$DW$T$37      .dwtag  DW_TAG_typedef
    1421                    .dwattr $C$DW$T$37, DW_AT_name("int_least8_t")
    1422                    .dwattr $C$DW$T$37, DW_AT_type(*$C$DW$T$36)
    1423                    .dwattr $C$DW$T$37, DW_AT_language(DW_LANG_C)
    1424                    .dwattr $C$DW$T$37, DW_AT_decl_file("D:/ti/ccsv6/tools/compiler/msp430_15.12.3.LTS/include/std
    1425                    .dwattr $C$DW$T$37, DW_AT_decl_line(0x37)
    1426                    .dwattr $C$DW$T$37, DW_AT_decl_column(0x17)
    1427            
    1428            $C$DW$T$6       .dwtag  DW_TAG_base_type
    1429                    .dwattr $C$DW$T$6, DW_AT_encoding(DW_ATE_unsigned_char)
    1430                    .dwattr $C$DW$T$6, DW_AT_name("unsigned char")
    1431                    .dwattr $C$DW$T$6, DW_AT_byte_size(0x01)
    1432            
    1433            $C$DW$T$21      .dwtag  DW_TAG_typedef
    1434                    .dwattr $C$DW$T$21, DW_AT_name("uint8_t")
    1435                    .dwattr $C$DW$T$21, DW_AT_type(*$C$DW$T$6)
    1436                    .dwattr $C$DW$T$21, DW_AT_language(DW_LANG_C)
    1437                    .dwattr $C$DW$T$21, DW_AT_decl_file("D:/ti/ccsv6/tools/compiler/msp430_15.12.3.LTS/include/std
    1438                    .dwattr $C$DW$T$21, DW_AT_decl_line(0x2b)
    1439                    .dwattr $C$DW$T$21, DW_AT_decl_column(0x1d)
    1440            
    1441            $C$DW$T$41      .dwtag  DW_TAG_typedef
    1442                    .dwattr $C$DW$T$41, DW_AT_name("uint_least8_t")
    1443                    .dwattr $C$DW$T$41, DW_AT_type(*$C$DW$T$21)
    1444                    .dwattr $C$DW$T$41, DW_AT_language(DW_LANG_C)
    1445                    .dwattr $C$DW$T$41, DW_AT_decl_file("D:/ti/ccsv6/tools/compiler/msp430_15.12.3.LTS/include/std
    1446                    .dwattr $C$DW$T$41, DW_AT_decl_line(0x38)
    1447                    .dwattr $C$DW$T$41, DW_AT_decl_column(0x16)
    1448            
    1449            $C$DW$T$7       .dwtag  DW_TAG_base_type
    1450                    .dwattr $C$DW$T$7, DW_AT_encoding(DW_ATE_signed_char)
    1451                    .dwattr $C$DW$T$7, DW_AT_name("wchar_t")
    1452                    .dwattr $C$DW$T$7, DW_AT_byte_size(0x02)
    1453            
    1454            $C$DW$T$8       .dwtag  DW_TAG_base_type
    1455                    .dwattr $C$DW$T$8, DW_AT_encoding(DW_ATE_signed)
    1456                    .dwattr $C$DW$T$8, DW_AT_name("short")
    1457                    .dwattr $C$DW$T$8, DW_AT_byte_size(0x02)
    1458            
    1459            $C$DW$T$9       .dwtag  DW_TAG_base_type
    1460                    .dwattr $C$DW$T$9, DW_AT_encoding(DW_ATE_unsigned)
    1461                    .dwattr $C$DW$T$9, DW_AT_name("unsigned short")
    1462                    .dwattr $C$DW$T$9, DW_AT_byte_size(0x02)
    1463            
MSP430 Assembler PC v15.12.3 Mon Oct 17 14:33:02 2016

Tools Copyright (c) 2003-2015 Texas Instruments Incorporated
C:\Users\madis\AppData\Local\Temp\041722                             PAGE   29

    1464            $C$DW$T$10      .dwtag  DW_TAG_base_type
    1465                    .dwattr $C$DW$T$10, DW_AT_encoding(DW_ATE_signed)
    1466                    .dwattr $C$DW$T$10, DW_AT_name("int")
    1467                    .dwattr $C$DW$T$10, DW_AT_byte_size(0x02)
    1468            
    1469            $C$DW$T$42      .dwtag  DW_TAG_typedef
    1470                    .dwattr $C$DW$T$42, DW_AT_name("int16_t")
    1471                    .dwattr $C$DW$T$42, DW_AT_type(*$C$DW$T$10)
    1472                    .dwattr $C$DW$T$42, DW_AT_language(DW_LANG_C)
    1473                    .dwattr $C$DW$T$42, DW_AT_decl_file("D:/ti/ccsv6/tools/compiler/msp430_15.12.3.LTS/include/std
    1474                    .dwattr $C$DW$T$42, DW_AT_decl_line(0x2c)
    1475                    .dwattr $C$DW$T$42, DW_AT_decl_column(0x1d)
    1476            
    1477            $C$DW$T$43      .dwtag  DW_TAG_typedef
    1478                    .dwattr $C$DW$T$43, DW_AT_name("int_fast16_t")
    1479                    .dwattr $C$DW$T$43, DW_AT_type(*$C$DW$T$42)
    1480                    .dwattr $C$DW$T$43, DW_AT_language(DW_LANG_C)
    1481                    .dwattr $C$DW$T$43, DW_AT_decl_file("D:/ti/ccsv6/tools/compiler/msp430_15.12.3.LTS/include/std
    1482                    .dwattr $C$DW$T$43, DW_AT_decl_line(0x47)
    1483                    .dwattr $C$DW$T$43, DW_AT_decl_column(0x17)
    1484            
    1485            $C$DW$T$44      .dwtag  DW_TAG_typedef
    1486                    .dwattr $C$DW$T$44, DW_AT_name("int_fast8_t")
    1487                    .dwattr $C$DW$T$44, DW_AT_type(*$C$DW$T$42)
    1488                    .dwattr $C$DW$T$44, DW_AT_language(DW_LANG_C)
    1489                    .dwattr $C$DW$T$44, DW_AT_decl_file("D:/ti/ccsv6/tools/compiler/msp430_15.12.3.LTS/include/std
    1490                    .dwattr $C$DW$T$44, DW_AT_decl_line(0x45)
    1491                    .dwattr $C$DW$T$44, DW_AT_decl_column(0x17)
    1492            
    1493            $C$DW$T$45      .dwtag  DW_TAG_typedef
    1494                    .dwattr $C$DW$T$45, DW_AT_name("int_least16_t")
    1495                    .dwattr $C$DW$T$45, DW_AT_type(*$C$DW$T$42)
    1496                    .dwattr $C$DW$T$45, DW_AT_language(DW_LANG_C)
    1497                    .dwattr $C$DW$T$45, DW_AT_decl_file("D:/ti/ccsv6/tools/compiler/msp430_15.12.3.LTS/include/std
    1498                    .dwattr $C$DW$T$45, DW_AT_decl_line(0x3a)
    1499                    .dwattr $C$DW$T$45, DW_AT_decl_column(0x17)
    1500            
    1501            $C$DW$T$11      .dwtag  DW_TAG_base_type
    1502                    .dwattr $C$DW$T$11, DW_AT_encoding(DW_ATE_unsigned)
    1503                    .dwattr $C$DW$T$11, DW_AT_name("unsigned int")
    1504                    .dwattr $C$DW$T$11, DW_AT_byte_size(0x02)
    1505            
    1506            $C$DW$T$19      .dwtag  DW_TAG_typedef
    1507                    .dwattr $C$DW$T$19, DW_AT_name("uint16_t")
    1508                    .dwattr $C$DW$T$19, DW_AT_type(*$C$DW$T$11)
    1509                    .dwattr $C$DW$T$19, DW_AT_language(DW_LANG_C)
    1510                    .dwattr $C$DW$T$19, DW_AT_decl_file("D:/ti/ccsv6/tools/compiler/msp430_15.12.3.LTS/include/std
    1511                    .dwattr $C$DW$T$19, DW_AT_decl_line(0x2d)
    1512                    .dwattr $C$DW$T$19, DW_AT_decl_column(0x1c)
    1513            
    1514            $C$DW$T$50      .dwtag  DW_TAG_typedef
    1515                    .dwattr $C$DW$T$50, DW_AT_name("uint_fast16_t")
    1516                    .dwattr $C$DW$T$50, DW_AT_type(*$C$DW$T$19)
    1517                    .dwattr $C$DW$T$50, DW_AT_language(DW_LANG_C)
    1518                    .dwattr $C$DW$T$50, DW_AT_decl_file("D:/ti/ccsv6/tools/compiler/msp430_15.12.3.LTS/include/std
MSP430 Assembler PC v15.12.3 Mon Oct 17 14:33:02 2016

Tools Copyright (c) 2003-2015 Texas Instruments Incorporated
C:\Users\madis\AppData\Local\Temp\041722                             PAGE   30

    1519                    .dwattr $C$DW$T$50, DW_AT_decl_line(0x48)
    1520                    .dwattr $C$DW$T$50, DW_AT_decl_column(0x16)
    1521            
    1522            $C$DW$T$51      .dwtag  DW_TAG_typedef
    1523                    .dwattr $C$DW$T$51, DW_AT_name("uint_fast8_t")
    1524                    .dwattr $C$DW$T$51, DW_AT_type(*$C$DW$T$19)
    1525                    .dwattr $C$DW$T$51, DW_AT_language(DW_LANG_C)
    1526                    .dwattr $C$DW$T$51, DW_AT_decl_file("D:/ti/ccsv6/tools/compiler/msp430_15.12.3.LTS/include/std
    1527                    .dwattr $C$DW$T$51, DW_AT_decl_line(0x46)
    1528                    .dwattr $C$DW$T$51, DW_AT_decl_column(0x16)
    1529            
    1530            $C$DW$T$52      .dwtag  DW_TAG_typedef
    1531                    .dwattr $C$DW$T$52, DW_AT_name("uint_least16_t")
    1532                    .dwattr $C$DW$T$52, DW_AT_type(*$C$DW$T$19)
    1533                    .dwattr $C$DW$T$52, DW_AT_language(DW_LANG_C)
    1534                    .dwattr $C$DW$T$52, DW_AT_decl_file("D:/ti/ccsv6/tools/compiler/msp430_15.12.3.LTS/include/std
    1535                    .dwattr $C$DW$T$52, DW_AT_decl_line(0x3b)
    1536                    .dwattr $C$DW$T$52, DW_AT_decl_column(0x16)
    1537            
    1538            $C$DW$T$12      .dwtag  DW_TAG_base_type
    1539                    .dwattr $C$DW$T$12, DW_AT_encoding(DW_ATE_signed)
    1540                    .dwattr $C$DW$T$12, DW_AT_name("long")
    1541                    .dwattr $C$DW$T$12, DW_AT_byte_size(0x04)
    1542            
    1543            $C$DW$T$53      .dwtag  DW_TAG_typedef
    1544                    .dwattr $C$DW$T$53, DW_AT_name("int32_t")
    1545                    .dwattr $C$DW$T$53, DW_AT_type(*$C$DW$T$12)
    1546                    .dwattr $C$DW$T$53, DW_AT_language(DW_LANG_C)
    1547                    .dwattr $C$DW$T$53, DW_AT_decl_file("D:/ti/ccsv6/tools/compiler/msp430_15.12.3.LTS/include/std
    1548                    .dwattr $C$DW$T$53, DW_AT_decl_line(0x2e)
    1549                    .dwattr $C$DW$T$53, DW_AT_decl_column(0x1d)
    1550            
    1551            $C$DW$T$54      .dwtag  DW_TAG_typedef
    1552                    .dwattr $C$DW$T$54, DW_AT_name("int_fast32_t")
    1553                    .dwattr $C$DW$T$54, DW_AT_type(*$C$DW$T$53)
    1554                    .dwattr $C$DW$T$54, DW_AT_language(DW_LANG_C)
    1555                    .dwattr $C$DW$T$54, DW_AT_decl_file("D:/ti/ccsv6/tools/compiler/msp430_15.12.3.LTS/include/std
    1556                    .dwattr $C$DW$T$54, DW_AT_decl_line(0x4a)
    1557                    .dwattr $C$DW$T$54, DW_AT_decl_column(0x17)
    1558            
    1559            $C$DW$T$55      .dwtag  DW_TAG_typedef
    1560                    .dwattr $C$DW$T$55, DW_AT_name("int_least32_t")
    1561                    .dwattr $C$DW$T$55, DW_AT_type(*$C$DW$T$53)
    1562                    .dwattr $C$DW$T$55, DW_AT_language(DW_LANG_C)
    1563                    .dwattr $C$DW$T$55, DW_AT_decl_file("D:/ti/ccsv6/tools/compiler/msp430_15.12.3.LTS/include/std
    1564                    .dwattr $C$DW$T$55, DW_AT_decl_line(0x3c)
    1565                    .dwattr $C$DW$T$55, DW_AT_decl_column(0x17)
    1566            
    1567            $C$DW$T$56      .dwtag  DW_TAG_typedef
    1568                    .dwattr $C$DW$T$56, DW_AT_name("intptr_t")
    1569                    .dwattr $C$DW$T$56, DW_AT_type(*$C$DW$T$12)
    1570                    .dwattr $C$DW$T$56, DW_AT_language(DW_LANG_C)
    1571                    .dwattr $C$DW$T$56, DW_AT_decl_file("D:/ti/ccsv6/tools/compiler/msp430_15.12.3.LTS/include/std
    1572                    .dwattr $C$DW$T$56, DW_AT_decl_line(0x55)
    1573                    .dwattr $C$DW$T$56, DW_AT_decl_column(0x1b)
MSP430 Assembler PC v15.12.3 Mon Oct 17 14:33:02 2016

Tools Copyright (c) 2003-2015 Texas Instruments Incorporated
C:\Users\madis\AppData\Local\Temp\041722                             PAGE   31

    1574            
    1575            $C$DW$T$13      .dwtag  DW_TAG_base_type
    1576                    .dwattr $C$DW$T$13, DW_AT_encoding(DW_ATE_unsigned)
    1577                    .dwattr $C$DW$T$13, DW_AT_name("unsigned long")
    1578                    .dwattr $C$DW$T$13, DW_AT_byte_size(0x04)
    1579            
    1580            $C$DW$T$57      .dwtag  DW_TAG_typedef
    1581                    .dwattr $C$DW$T$57, DW_AT_name("uint32_t")
    1582                    .dwattr $C$DW$T$57, DW_AT_type(*$C$DW$T$13)
    1583                    .dwattr $C$DW$T$57, DW_AT_language(DW_LANG_C)
    1584                    .dwattr $C$DW$T$57, DW_AT_decl_file("D:/ti/ccsv6/tools/compiler/msp430_15.12.3.LTS/include/std
    1585                    .dwattr $C$DW$T$57, DW_AT_decl_line(0x2f)
    1586                    .dwattr $C$DW$T$57, DW_AT_decl_column(0x1c)
    1587            
    1588            $C$DW$T$58      .dwtag  DW_TAG_typedef
    1589                    .dwattr $C$DW$T$58, DW_AT_name("uint_fast32_t")
    1590                    .dwattr $C$DW$T$58, DW_AT_type(*$C$DW$T$57)
    1591                    .dwattr $C$DW$T$58, DW_AT_language(DW_LANG_C)
    1592                    .dwattr $C$DW$T$58, DW_AT_decl_file("D:/ti/ccsv6/tools/compiler/msp430_15.12.3.LTS/include/std
    1593                    .dwattr $C$DW$T$58, DW_AT_decl_line(0x4b)
    1594                    .dwattr $C$DW$T$58, DW_AT_decl_column(0x16)
    1595            
    1596            $C$DW$T$59      .dwtag  DW_TAG_typedef
    1597                    .dwattr $C$DW$T$59, DW_AT_name("uint_least32_t")
    1598                    .dwattr $C$DW$T$59, DW_AT_type(*$C$DW$T$57)
    1599                    .dwattr $C$DW$T$59, DW_AT_language(DW_LANG_C)
    1600                    .dwattr $C$DW$T$59, DW_AT_decl_file("D:/ti/ccsv6/tools/compiler/msp430_15.12.3.LTS/include/std
    1601                    .dwattr $C$DW$T$59, DW_AT_decl_line(0x3d)
    1602                    .dwattr $C$DW$T$59, DW_AT_decl_column(0x16)
    1603            
    1604            $C$DW$T$60      .dwtag  DW_TAG_typedef
    1605                    .dwattr $C$DW$T$60, DW_AT_name("uintptr_t")
    1606                    .dwattr $C$DW$T$60, DW_AT_type(*$C$DW$T$13)
    1607                    .dwattr $C$DW$T$60, DW_AT_language(DW_LANG_C)
    1608                    .dwattr $C$DW$T$60, DW_AT_decl_file("D:/ti/ccsv6/tools/compiler/msp430_15.12.3.LTS/include/std
    1609                    .dwattr $C$DW$T$60, DW_AT_decl_line(0x56)
    1610                    .dwattr $C$DW$T$60, DW_AT_decl_column(0x1b)
    1611            
    1612            $C$DW$T$14      .dwtag  DW_TAG_base_type
    1613                    .dwattr $C$DW$T$14, DW_AT_encoding(DW_ATE_signed)
    1614                    .dwattr $C$DW$T$14, DW_AT_name("long long")
    1615                    .dwattr $C$DW$T$14, DW_AT_byte_size(0x08)
    1616            
    1617            $C$DW$T$61      .dwtag  DW_TAG_typedef
    1618                    .dwattr $C$DW$T$61, DW_AT_name("int64_t")
    1619                    .dwattr $C$DW$T$61, DW_AT_type(*$C$DW$T$14)
    1620                    .dwattr $C$DW$T$61, DW_AT_language(DW_LANG_C)
    1621                    .dwattr $C$DW$T$61, DW_AT_decl_file("D:/ti/ccsv6/tools/compiler/msp430_15.12.3.LTS/include/std
    1622                    .dwattr $C$DW$T$61, DW_AT_decl_line(0x32)
    1623                    .dwattr $C$DW$T$61, DW_AT_decl_column(0x21)
    1624            
    1625            $C$DW$T$62      .dwtag  DW_TAG_typedef
    1626                    .dwattr $C$DW$T$62, DW_AT_name("int_fast64_t")
    1627                    .dwattr $C$DW$T$62, DW_AT_type(*$C$DW$T$61)
    1628                    .dwattr $C$DW$T$62, DW_AT_language(DW_LANG_C)
MSP430 Assembler PC v15.12.3 Mon Oct 17 14:33:02 2016

Tools Copyright (c) 2003-2015 Texas Instruments Incorporated
C:\Users\madis\AppData\Local\Temp\041722                             PAGE   32

    1629                    .dwattr $C$DW$T$62, DW_AT_decl_file("D:/ti/ccsv6/tools/compiler/msp430_15.12.3.LTS/include/std
    1630                    .dwattr $C$DW$T$62, DW_AT_decl_line(0x4e)
    1631                    .dwattr $C$DW$T$62, DW_AT_decl_column(0x17)
    1632            
    1633            $C$DW$T$63      .dwtag  DW_TAG_typedef
    1634                    .dwattr $C$DW$T$63, DW_AT_name("int_least64_t")
    1635                    .dwattr $C$DW$T$63, DW_AT_type(*$C$DW$T$61)
    1636                    .dwattr $C$DW$T$63, DW_AT_language(DW_LANG_C)
    1637                    .dwattr $C$DW$T$63, DW_AT_decl_file("D:/ti/ccsv6/tools/compiler/msp430_15.12.3.LTS/include/std
    1638                    .dwattr $C$DW$T$63, DW_AT_decl_line(0x40)
    1639                    .dwattr $C$DW$T$63, DW_AT_decl_column(0x17)
    1640            
    1641            $C$DW$T$64      .dwtag  DW_TAG_typedef
    1642                    .dwattr $C$DW$T$64, DW_AT_name("intmax_t")
    1643                    .dwattr $C$DW$T$64, DW_AT_type(*$C$DW$T$14)
    1644                    .dwattr $C$DW$T$64, DW_AT_language(DW_LANG_C)
    1645                    .dwattr $C$DW$T$64, DW_AT_decl_file("D:/ti/ccsv6/tools/compiler/msp430_15.12.3.LTS/include/std
    1646                    .dwattr $C$DW$T$64, DW_AT_decl_line(0x5d)
    1647                    .dwattr $C$DW$T$64, DW_AT_decl_column(0x20)
    1648            
    1649            $C$DW$T$15      .dwtag  DW_TAG_base_type
    1650                    .dwattr $C$DW$T$15, DW_AT_encoding(DW_ATE_unsigned)
    1651                    .dwattr $C$DW$T$15, DW_AT_name("unsigned long long")
    1652                    .dwattr $C$DW$T$15, DW_AT_byte_size(0x08)
    1653            
    1654            $C$DW$T$65      .dwtag  DW_TAG_typedef
    1655                    .dwattr $C$DW$T$65, DW_AT_name("uint64_t")
    1656                    .dwattr $C$DW$T$65, DW_AT_type(*$C$DW$T$15)
    1657                    .dwattr $C$DW$T$65, DW_AT_language(DW_LANG_C)
    1658                    .dwattr $C$DW$T$65, DW_AT_decl_file("D:/ti/ccsv6/tools/compiler/msp430_15.12.3.LTS/include/std
    1659                    .dwattr $C$DW$T$65, DW_AT_decl_line(0x33)
    1660                    .dwattr $C$DW$T$65, DW_AT_decl_column(0x20)
    1661            
    1662            $C$DW$T$66      .dwtag  DW_TAG_typedef
    1663                    .dwattr $C$DW$T$66, DW_AT_name("uint_fast64_t")
    1664                    .dwattr $C$DW$T$66, DW_AT_type(*$C$DW$T$65)
    1665                    .dwattr $C$DW$T$66, DW_AT_language(DW_LANG_C)
    1666                    .dwattr $C$DW$T$66, DW_AT_decl_file("D:/ti/ccsv6/tools/compiler/msp430_15.12.3.LTS/include/std
    1667                    .dwattr $C$DW$T$66, DW_AT_decl_line(0x4f)
    1668                    .dwattr $C$DW$T$66, DW_AT_decl_column(0x16)
    1669            
    1670            $C$DW$T$67      .dwtag  DW_TAG_typedef
    1671                    .dwattr $C$DW$T$67, DW_AT_name("uint_least64_t")
    1672                    .dwattr $C$DW$T$67, DW_AT_type(*$C$DW$T$65)
    1673                    .dwattr $C$DW$T$67, DW_AT_language(DW_LANG_C)
    1674                    .dwattr $C$DW$T$67, DW_AT_decl_file("D:/ti/ccsv6/tools/compiler/msp430_15.12.3.LTS/include/std
    1675                    .dwattr $C$DW$T$67, DW_AT_decl_line(0x41)
    1676                    .dwattr $C$DW$T$67, DW_AT_decl_column(0x16)
    1677            
    1678            $C$DW$T$68      .dwtag  DW_TAG_typedef
    1679                    .dwattr $C$DW$T$68, DW_AT_name("uintmax_t")
    1680                    .dwattr $C$DW$T$68, DW_AT_type(*$C$DW$T$15)
    1681                    .dwattr $C$DW$T$68, DW_AT_language(DW_LANG_C)
    1682                    .dwattr $C$DW$T$68, DW_AT_decl_file("D:/ti/ccsv6/tools/compiler/msp430_15.12.3.LTS/include/std
    1683                    .dwattr $C$DW$T$68, DW_AT_decl_line(0x5e)
MSP430 Assembler PC v15.12.3 Mon Oct 17 14:33:02 2016

Tools Copyright (c) 2003-2015 Texas Instruments Incorporated
C:\Users\madis\AppData\Local\Temp\041722                             PAGE   33

    1684                    .dwattr $C$DW$T$68, DW_AT_decl_column(0x20)
    1685            
    1686            $C$DW$T$16      .dwtag  DW_TAG_base_type
    1687                    .dwattr $C$DW$T$16, DW_AT_encoding(DW_ATE_float)
    1688                    .dwattr $C$DW$T$16, DW_AT_name("float")
    1689                    .dwattr $C$DW$T$16, DW_AT_byte_size(0x04)
    1690            
    1691            $C$DW$T$17      .dwtag  DW_TAG_base_type
    1692                    .dwattr $C$DW$T$17, DW_AT_encoding(DW_ATE_float)
    1693                    .dwattr $C$DW$T$17, DW_AT_name("double")
    1694                    .dwattr $C$DW$T$17, DW_AT_byte_size(0x08)
    1695            
    1696            $C$DW$T$18      .dwtag  DW_TAG_base_type
    1697                    .dwattr $C$DW$T$18, DW_AT_encoding(DW_ATE_float)
    1698                    .dwattr $C$DW$T$18, DW_AT_name("long double")
    1699                    .dwattr $C$DW$T$18, DW_AT_byte_size(0x08)
    1700            
    1701            $C$DW$T$69      .dwtag  DW_TAG_base_type
    1702                    .dwattr $C$DW$T$69, DW_AT_encoding(DW_ATE_unsigned_char)
    1703                    .dwattr $C$DW$T$69, DW_AT_name("unsigned char")
    1704                    .dwattr $C$DW$T$69, DW_AT_byte_size(0x01)
    1705            
    1706                    .dwattr $C$DW$CU, DW_AT_language(DW_LANG_C)
    1707            
    1708            ;***************************************************************
    1709            ;* DWARF CIE ENTRIES                                           *
    1710            ;***************************************************************
    1711            
    1712            $C$DW$CIE       .dwcie 16
    1713                    .dwcfi  cfa_register, 1
    1714                    .dwcfi  cfa_offset, 0
    1715                    .dwcfi  same_value, 0
    1716                    .dwcfi  same_value, 1
    1717                    .dwcfi  undefined, 2
    1718                    .dwcfi  same_value, 3
    1719                    .dwcfi  same_value, 4
    1720                    .dwcfi  same_value, 5
    1721                    .dwcfi  same_value, 6
    1722                    .dwcfi  same_value, 7
    1723                    .dwcfi  same_value, 8
    1724                    .dwcfi  same_value, 9
    1725                    .dwcfi  same_value, 10
    1726                    .dwcfi  undefined, 11
    1727                    .dwcfi  undefined, 12
    1728                    .dwcfi  undefined, 13
    1729                    .dwcfi  undefined, 14
    1730                    .dwcfi  undefined, 15
    1731                    .dwcfi  undefined, 16
    1732                    .dwendentry
    1733            
    1734            ;***************************************************************
    1735            ;* DWARF REGISTER MAP                                          *
    1736            ;***************************************************************
    1737            
    1738            $C$DW$83        .dwtag  DW_TAG_TI_assign_register
MSP430 Assembler PC v15.12.3 Mon Oct 17 14:33:02 2016

Tools Copyright (c) 2003-2015 Texas Instruments Incorporated
C:\Users\madis\AppData\Local\Temp\041722                             PAGE   34

    1739                    .dwattr $C$DW$83, DW_AT_name("PC")
    1740                    .dwattr $C$DW$83, DW_AT_location[DW_OP_reg0]
    1741            
    1742            $C$DW$84        .dwtag  DW_TAG_TI_assign_register
    1743                    .dwattr $C$DW$84, DW_AT_name("SP")
    1744                    .dwattr $C$DW$84, DW_AT_location[DW_OP_reg1]
    1745            
    1746            $C$DW$85        .dwtag  DW_TAG_TI_assign_register
    1747                    .dwattr $C$DW$85, DW_AT_name("SR")
    1748                    .dwattr $C$DW$85, DW_AT_location[DW_OP_reg2]
    1749            
    1750            $C$DW$86        .dwtag  DW_TAG_TI_assign_register
    1751                    .dwattr $C$DW$86, DW_AT_name("CG")
    1752                    .dwattr $C$DW$86, DW_AT_location[DW_OP_reg3]
    1753            
    1754            $C$DW$87        .dwtag  DW_TAG_TI_assign_register
    1755                    .dwattr $C$DW$87, DW_AT_name("r4")
    1756                    .dwattr $C$DW$87, DW_AT_location[DW_OP_reg4]
    1757            
    1758            $C$DW$88        .dwtag  DW_TAG_TI_assign_register
    1759                    .dwattr $C$DW$88, DW_AT_name("r5")
    1760                    .dwattr $C$DW$88, DW_AT_location[DW_OP_reg5]
    1761            
    1762            $C$DW$89        .dwtag  DW_TAG_TI_assign_register
    1763                    .dwattr $C$DW$89, DW_AT_name("r6")
    1764                    .dwattr $C$DW$89, DW_AT_location[DW_OP_reg6]
    1765            
    1766            $C$DW$90        .dwtag  DW_TAG_TI_assign_register
    1767                    .dwattr $C$DW$90, DW_AT_name("r7")
    1768                    .dwattr $C$DW$90, DW_AT_location[DW_OP_reg7]
    1769            
    1770            $C$DW$91        .dwtag  DW_TAG_TI_assign_register
    1771                    .dwattr $C$DW$91, DW_AT_name("r8")
    1772                    .dwattr $C$DW$91, DW_AT_location[DW_OP_reg8]
    1773            
    1774            $C$DW$92        .dwtag  DW_TAG_TI_assign_register
    1775                    .dwattr $C$DW$92, DW_AT_name("r9")
    1776                    .dwattr $C$DW$92, DW_AT_location[DW_OP_reg9]
    1777            
    1778            $C$DW$93        .dwtag  DW_TAG_TI_assign_register
    1779                    .dwattr $C$DW$93, DW_AT_name("r10")
    1780                    .dwattr $C$DW$93, DW_AT_location[DW_OP_reg10]
    1781            
    1782            $C$DW$94        .dwtag  DW_TAG_TI_assign_register
    1783                    .dwattr $C$DW$94, DW_AT_name("r11")
    1784                    .dwattr $C$DW$94, DW_AT_location[DW_OP_reg11]
    1785            
    1786            $C$DW$95        .dwtag  DW_TAG_TI_assign_register
    1787                    .dwattr $C$DW$95, DW_AT_name("r12")
    1788                    .dwattr $C$DW$95, DW_AT_location[DW_OP_reg12]
    1789            
    1790            $C$DW$96        .dwtag  DW_TAG_TI_assign_register
    1791                    .dwattr $C$DW$96, DW_AT_name("r13")
    1792                    .dwattr $C$DW$96, DW_AT_location[DW_OP_reg13]
    1793            
MSP430 Assembler PC v15.12.3 Mon Oct 17 14:33:02 2016

Tools Copyright (c) 2003-2015 Texas Instruments Incorporated
C:\Users\madis\AppData\Local\Temp\041722                             PAGE   35

    1794            $C$DW$97        .dwtag  DW_TAG_TI_assign_register
    1795                    .dwattr $C$DW$97, DW_AT_name("r14")
    1796                    .dwattr $C$DW$97, DW_AT_location[DW_OP_reg14]
    1797            
    1798            $C$DW$98        .dwtag  DW_TAG_TI_assign_register
    1799                    .dwattr $C$DW$98, DW_AT_name("r15")
    1800                    .dwattr $C$DW$98, DW_AT_location[DW_OP_reg15]
    1801            
    1802            $C$DW$99        .dwtag  DW_TAG_TI_assign_register
    1803                    .dwattr $C$DW$99, DW_AT_name("CIE_RETA")
    1804                    .dwattr $C$DW$99, DW_AT_location[DW_OP_reg16]
    1805            
    1806                    .dwendtag $C$DW$CU
    1807            

No Assembly Errors, No Assembly Warnings
