MSP430 Assembler PC v15.12.3 Mon Oct 17 15:18:00 2016

Tools Copyright (c) 2003-2015 Texas Instruments Incorporated
C:\Users\madis\AppData\Local\Temp\044962                             PAGE    1

       1            ;******************************************************************************
       2            ;* MSP430 C/C++ Codegen                                       PC v15.12.3.LTS *
       3            ;* Date/Time created: Mon Oct 17 15:18:00 2016                                *
       4            ;******************************************************************************
       5                    .compiler_opts --abi=eabi --diag_wrap=off --hll_source=on --mem_model:code=large --mem_model:d
       6            
       7            $C$DW$CU        .dwtag  DW_TAG_compile_unit
       8                    .dwattr $C$DW$CU, DW_AT_name("../MSP430F5xx_6xx/crc.c")
       9                    .dwattr $C$DW$CU, DW_AT_producer("TI MSP430 C/C++ Codegen PC v15.12.3.LTS Copyright (c) 2003-2
      10                    .dwattr $C$DW$CU, DW_AT_TI_version(0x01)
      11                    .dwattr $C$DW$CU, DW_AT_comp_dir("D:\CodeComposerProj\CardReader001\src\Debug")
      12            ;       D:\ti\ccsv6\tools\compiler\msp430_15.12.3.LTS\bin\opt430.exe D:/CodeComposerProj/CardReader001
      13 000000               .sect   ".text:CRC_setSeed"
      14                    .clink
      15                    .global CRC_setSeed
      16            
      17            $C$DW$1 .dwtag  DW_TAG_subprogram
      18                    .dwattr $C$DW$1, DW_AT_name("CRC_setSeed")
      19                    .dwattr $C$DW$1, DW_AT_low_pc(CRC_setSeed)
      20                    .dwattr $C$DW$1, DW_AT_high_pc(0x00)
      21                    .dwattr $C$DW$1, DW_AT_TI_symbol_name("CRC_setSeed")
      22                    .dwattr $C$DW$1, DW_AT_external
      23                    .dwattr $C$DW$1, DW_AT_TI_begin_file("../MSP430F5xx_6xx/crc.c")
      24                    .dwattr $C$DW$1, DW_AT_TI_begin_line(0x34)
      25                    .dwattr $C$DW$1, DW_AT_TI_begin_column(0x06)
      26                    .dwattr $C$DW$1, DW_AT_decl_file("../MSP430F5xx_6xx/crc.c")
      27                    .dwattr $C$DW$1, DW_AT_decl_line(0x34)
      28                    .dwattr $C$DW$1, DW_AT_decl_column(0x06)
      29                    .dwattr $C$DW$1, DW_AT_TI_max_frame_size(0x04)
      30                    .dwpsn  file "../MSP430F5xx_6xx/crc.c",line 54,column 1,is_stmt,address CRC_setSeed,isa 0
      31            
      32                    .dwfde $C$DW$CIE, CRC_setSeed
      33            $C$DW$2 .dwtag  DW_TAG_formal_parameter
      34                    .dwattr $C$DW$2, DW_AT_name("baseAddress")
      35                    .dwattr $C$DW$2, DW_AT_TI_symbol_name("baseAddress")
      36                    .dwattr $C$DW$2, DW_AT_type(*$C$DW$T$19)
      37                    .dwattr $C$DW$2, DW_AT_location[DW_OP_reg12]
      38            
      39            $C$DW$3 .dwtag  DW_TAG_formal_parameter
      40                    .dwattr $C$DW$3, DW_AT_name("seed")
      41                    .dwattr $C$DW$3, DW_AT_TI_symbol_name("seed")
      42                    .dwattr $C$DW$3, DW_AT_type(*$C$DW$T$19)
      43                    .dwattr $C$DW$3, DW_AT_location[DW_OP_reg13]
      44            
      45            
      46            ;*****************************************************************************
      47            ;* FUNCTION NAME: CRC_setSeed                                                *
      48            ;*                                                                           *
      49            ;*   Regs Modified     : SP,SR,r12                                           *
      50            ;*   Regs Used         : SP,SR,r12,r13                                       *
      51            ;*   Local Frame Size  : 0 Args + 0 Auto + 0 Save = 0 byte                   *
      52            ;*****************************************************************************
      53 000000       CRC_setSeed:
      54            ;* --------------------------------------------------------------------------*
      55                    .dwcfi  cfa_offset, 4
MSP430 Assembler PC v15.12.3 Mon Oct 17 15:18:00 2016

Tools Copyright (c) 2003-2015 Texas Instruments Incorporated
C:\Users\madis\AppData\Local\Temp\044962                             PAGE    2

      56                    .dwcfi  save_reg_to_mem, 16, -4
      57            ;* r13   assigned to seed
      58            $C$DW$4 .dwtag  DW_TAG_variable
      59                    .dwattr $C$DW$4, DW_AT_name("seed")
      60                    .dwattr $C$DW$4, DW_AT_TI_symbol_name("seed")
      61                    .dwattr $C$DW$4, DW_AT_type(*$C$DW$T$19)
      62                    .dwattr $C$DW$4, DW_AT_location[DW_OP_reg13]
      63            
      64                    .dwpsn  file "../MSP430F5xx_6xx/crc.c",line 55,column 5,is_stmt,isa 0
      65 000000 522C          ADD.W     #4,r12                ; [] |55| 
      66 000002 4D8C          MOV.W     r13,0(r12)            ; [] |55| 
         000004 0000 
      67                    .dwpsn  file "../MSP430F5xx_6xx/crc.c",line 56,column 1,is_stmt,isa 0
      68            $C$DW$5 .dwtag  DW_TAG_TI_branch
      69                    .dwattr $C$DW$5, DW_AT_low_pc(0x00)
      70                    .dwattr $C$DW$5, DW_AT_TI_return
      71            
      72 000006 0110          RETA      ; [] 
      73                    ; [] 
      74                    .dwattr $C$DW$1, DW_AT_TI_end_file("../MSP430F5xx_6xx/crc.c")
      75                    .dwattr $C$DW$1, DW_AT_TI_end_line(0x38)
      76                    .dwattr $C$DW$1, DW_AT_TI_end_column(0x01)
      77                    .dwendentry
      78                    .dwendtag $C$DW$1
      79            
      80 000000               .sect   ".text:CRC_set16BitData"
      81                    .clink
      82                    .global CRC_set16BitData
      83            
      84            $C$DW$6 .dwtag  DW_TAG_subprogram
      85                    .dwattr $C$DW$6, DW_AT_name("CRC_set16BitData")
      86                    .dwattr $C$DW$6, DW_AT_low_pc(CRC_set16BitData)
      87                    .dwattr $C$DW$6, DW_AT_high_pc(0x00)
      88                    .dwattr $C$DW$6, DW_AT_TI_symbol_name("CRC_set16BitData")
      89                    .dwattr $C$DW$6, DW_AT_external
      90                    .dwattr $C$DW$6, DW_AT_TI_begin_file("../MSP430F5xx_6xx/crc.c")
      91                    .dwattr $C$DW$6, DW_AT_TI_begin_line(0x3a)
      92                    .dwattr $C$DW$6, DW_AT_TI_begin_column(0x06)
      93                    .dwattr $C$DW$6, DW_AT_decl_file("../MSP430F5xx_6xx/crc.c")
      94                    .dwattr $C$DW$6, DW_AT_decl_line(0x3a)
      95                    .dwattr $C$DW$6, DW_AT_decl_column(0x06)
      96                    .dwattr $C$DW$6, DW_AT_TI_max_frame_size(0x04)
      97                    .dwpsn  file "../MSP430F5xx_6xx/crc.c",line 60,column 1,is_stmt,address CRC_set16BitData,isa 0
      98            
      99                    .dwfde $C$DW$CIE, CRC_set16BitData
     100            $C$DW$7 .dwtag  DW_TAG_formal_parameter
     101                    .dwattr $C$DW$7, DW_AT_name("baseAddress")
     102                    .dwattr $C$DW$7, DW_AT_TI_symbol_name("baseAddress")
     103                    .dwattr $C$DW$7, DW_AT_type(*$C$DW$T$19)
     104                    .dwattr $C$DW$7, DW_AT_location[DW_OP_reg12]
     105            
     106            $C$DW$8 .dwtag  DW_TAG_formal_parameter
     107                    .dwattr $C$DW$8, DW_AT_name("dataIn")
     108                    .dwattr $C$DW$8, DW_AT_TI_symbol_name("dataIn")
     109                    .dwattr $C$DW$8, DW_AT_type(*$C$DW$T$19)
MSP430 Assembler PC v15.12.3 Mon Oct 17 15:18:00 2016

Tools Copyright (c) 2003-2015 Texas Instruments Incorporated
C:\Users\madis\AppData\Local\Temp\044962                             PAGE    3

     110                    .dwattr $C$DW$8, DW_AT_location[DW_OP_reg13]
     111            
     112            
     113            ;*****************************************************************************
     114            ;* FUNCTION NAME: CRC_set16BitData                                           *
     115            ;*                                                                           *
     116            ;*   Regs Modified     : SP                                                  *
     117            ;*   Regs Used         : SP,r12,r13                                          *
     118            ;*   Local Frame Size  : 0 Args + 0 Auto + 0 Save = 0 byte                   *
     119            ;*****************************************************************************
     120 000000       CRC_set16BitData:
     121            ;* --------------------------------------------------------------------------*
     122                    .dwcfi  cfa_offset, 4
     123                    .dwcfi  save_reg_to_mem, 16, -4
     124            ;* r12   assigned to baseAddress
     125            $C$DW$9 .dwtag  DW_TAG_variable
     126                    .dwattr $C$DW$9, DW_AT_name("baseAddress")
     127                    .dwattr $C$DW$9, DW_AT_TI_symbol_name("baseAddress")
     128                    .dwattr $C$DW$9, DW_AT_type(*$C$DW$T$19)
     129                    .dwattr $C$DW$9, DW_AT_location[DW_OP_reg12]
     130            
     131            ;* r13   assigned to dataIn
     132            $C$DW$10        .dwtag  DW_TAG_variable
     133                    .dwattr $C$DW$10, DW_AT_name("dataIn")
     134                    .dwattr $C$DW$10, DW_AT_TI_symbol_name("dataIn")
     135                    .dwattr $C$DW$10, DW_AT_type(*$C$DW$T$19)
     136                    .dwattr $C$DW$10, DW_AT_location[DW_OP_reg13]
     137            
     138                    .dwpsn  file "../MSP430F5xx_6xx/crc.c",line 61,column 5,is_stmt,isa 0
     139 000000 4D8C          MOV.W     r13,0(r12)            ; [] |61| 
         000002 0000 
     140                    .dwpsn  file "../MSP430F5xx_6xx/crc.c",line 62,column 1,is_stmt,isa 0
     141            $C$DW$11        .dwtag  DW_TAG_TI_branch
     142                    .dwattr $C$DW$11, DW_AT_low_pc(0x00)
     143                    .dwattr $C$DW$11, DW_AT_TI_return
     144            
     145 000004 0110          RETA      ; [] 
     146                    ; [] 
     147                    .dwattr $C$DW$6, DW_AT_TI_end_file("../MSP430F5xx_6xx/crc.c")
     148                    .dwattr $C$DW$6, DW_AT_TI_end_line(0x3e)
     149                    .dwattr $C$DW$6, DW_AT_TI_end_column(0x01)
     150                    .dwendentry
     151                    .dwendtag $C$DW$6
     152            
     153 000000               .sect   ".text:CRC_set8BitData"
     154                    .clink
     155                    .global CRC_set8BitData
     156            
     157            $C$DW$12        .dwtag  DW_TAG_subprogram
     158                    .dwattr $C$DW$12, DW_AT_name("CRC_set8BitData")
     159                    .dwattr $C$DW$12, DW_AT_low_pc(CRC_set8BitData)
     160                    .dwattr $C$DW$12, DW_AT_high_pc(0x00)
     161                    .dwattr $C$DW$12, DW_AT_TI_symbol_name("CRC_set8BitData")
     162                    .dwattr $C$DW$12, DW_AT_external
     163                    .dwattr $C$DW$12, DW_AT_TI_begin_file("../MSP430F5xx_6xx/crc.c")
MSP430 Assembler PC v15.12.3 Mon Oct 17 15:18:00 2016

Tools Copyright (c) 2003-2015 Texas Instruments Incorporated
C:\Users\madis\AppData\Local\Temp\044962                             PAGE    4

     164                    .dwattr $C$DW$12, DW_AT_TI_begin_line(0x40)
     165                    .dwattr $C$DW$12, DW_AT_TI_begin_column(0x06)
     166                    .dwattr $C$DW$12, DW_AT_decl_file("../MSP430F5xx_6xx/crc.c")
     167                    .dwattr $C$DW$12, DW_AT_decl_line(0x40)
     168                    .dwattr $C$DW$12, DW_AT_decl_column(0x06)
     169                    .dwattr $C$DW$12, DW_AT_TI_max_frame_size(0x04)
     170                    .dwpsn  file "../MSP430F5xx_6xx/crc.c",line 66,column 1,is_stmt,address CRC_set8BitData,isa 0
     171            
     172                    .dwfde $C$DW$CIE, CRC_set8BitData
     173            $C$DW$13        .dwtag  DW_TAG_formal_parameter
     174                    .dwattr $C$DW$13, DW_AT_name("baseAddress")
     175                    .dwattr $C$DW$13, DW_AT_TI_symbol_name("baseAddress")
     176                    .dwattr $C$DW$13, DW_AT_type(*$C$DW$T$19)
     177                    .dwattr $C$DW$13, DW_AT_location[DW_OP_reg12]
     178            
     179            $C$DW$14        .dwtag  DW_TAG_formal_parameter
     180                    .dwattr $C$DW$14, DW_AT_name("dataIn")
     181                    .dwattr $C$DW$14, DW_AT_TI_symbol_name("dataIn")
     182                    .dwattr $C$DW$14, DW_AT_type(*$C$DW$T$21)
     183                    .dwattr $C$DW$14, DW_AT_location[DW_OP_reg13]
     184            
     185            
     186            ;*****************************************************************************
     187            ;* FUNCTION NAME: CRC_set8BitData                                            *
     188            ;*                                                                           *
     189            ;*   Regs Modified     : SP                                                  *
     190            ;*   Regs Used         : SP,r12,r13                                          *
     191            ;*   Local Frame Size  : 0 Args + 0 Auto + 0 Save = 0 byte                   *
     192            ;*****************************************************************************
     193 000000       CRC_set8BitData:
     194            ;* --------------------------------------------------------------------------*
     195                    .dwcfi  cfa_offset, 4
     196                    .dwcfi  save_reg_to_mem, 16, -4
     197            ;* r12   assigned to baseAddress
     198            $C$DW$15        .dwtag  DW_TAG_variable
     199                    .dwattr $C$DW$15, DW_AT_name("baseAddress")
     200                    .dwattr $C$DW$15, DW_AT_TI_symbol_name("baseAddress")
     201                    .dwattr $C$DW$15, DW_AT_type(*$C$DW$T$19)
     202                    .dwattr $C$DW$15, DW_AT_location[DW_OP_reg12]
     203            
     204            ;* r13   assigned to dataIn
     205            $C$DW$16        .dwtag  DW_TAG_variable
     206                    .dwattr $C$DW$16, DW_AT_name("dataIn")
     207                    .dwattr $C$DW$16, DW_AT_TI_symbol_name("dataIn")
     208                    .dwattr $C$DW$16, DW_AT_type(*$C$DW$T$21)
     209                    .dwattr $C$DW$16, DW_AT_location[DW_OP_reg13]
     210            
     211                    .dwpsn  file "../MSP430F5xx_6xx/crc.c",line 67,column 5,is_stmt,isa 0
     212 000000 4DCC          MOV.B     r13,0(r12)            ; [] |67| 
         000002 0000 
     213                    .dwpsn  file "../MSP430F5xx_6xx/crc.c",line 68,column 1,is_stmt,isa 0
     214            $C$DW$17        .dwtag  DW_TAG_TI_branch
     215                    .dwattr $C$DW$17, DW_AT_low_pc(0x00)
     216                    .dwattr $C$DW$17, DW_AT_TI_return
     217            
MSP430 Assembler PC v15.12.3 Mon Oct 17 15:18:00 2016

Tools Copyright (c) 2003-2015 Texas Instruments Incorporated
C:\Users\madis\AppData\Local\Temp\044962                             PAGE    5

     218 000004 0110          RETA      ; [] 
     219                    ; [] 
     220                    .dwattr $C$DW$12, DW_AT_TI_end_file("../MSP430F5xx_6xx/crc.c")
     221                    .dwattr $C$DW$12, DW_AT_TI_end_line(0x44)
     222                    .dwattr $C$DW$12, DW_AT_TI_end_column(0x01)
     223                    .dwendentry
     224                    .dwendtag $C$DW$12
     225            
     226 000000               .sect   ".text:CRC_set16BitDataReversed"
     227                    .clink
     228                    .global CRC_set16BitDataReversed
     229            
     230            $C$DW$18        .dwtag  DW_TAG_subprogram
     231                    .dwattr $C$DW$18, DW_AT_name("CRC_set16BitDataReversed")
     232                    .dwattr $C$DW$18, DW_AT_low_pc(CRC_set16BitDataReversed)
     233                    .dwattr $C$DW$18, DW_AT_high_pc(0x00)
     234                    .dwattr $C$DW$18, DW_AT_TI_symbol_name("CRC_set16BitDataReversed")
     235                    .dwattr $C$DW$18, DW_AT_external
     236                    .dwattr $C$DW$18, DW_AT_TI_begin_file("../MSP430F5xx_6xx/crc.c")
     237                    .dwattr $C$DW$18, DW_AT_TI_begin_line(0x46)
     238                    .dwattr $C$DW$18, DW_AT_TI_begin_column(0x06)
     239                    .dwattr $C$DW$18, DW_AT_decl_file("../MSP430F5xx_6xx/crc.c")
     240                    .dwattr $C$DW$18, DW_AT_decl_line(0x46)
     241                    .dwattr $C$DW$18, DW_AT_decl_column(0x06)
     242                    .dwattr $C$DW$18, DW_AT_TI_max_frame_size(0x04)
     243                    .dwpsn  file "../MSP430F5xx_6xx/crc.c",line 72,column 1,is_stmt,address CRC_set16BitDataRevers
     244            
     245                    .dwfde $C$DW$CIE, CRC_set16BitDataReversed
     246            $C$DW$19        .dwtag  DW_TAG_formal_parameter
     247                    .dwattr $C$DW$19, DW_AT_name("baseAddress")
     248                    .dwattr $C$DW$19, DW_AT_TI_symbol_name("baseAddress")
     249                    .dwattr $C$DW$19, DW_AT_type(*$C$DW$T$19)
     250                    .dwattr $C$DW$19, DW_AT_location[DW_OP_reg12]
     251            
     252            $C$DW$20        .dwtag  DW_TAG_formal_parameter
     253                    .dwattr $C$DW$20, DW_AT_name("dataIn")
     254                    .dwattr $C$DW$20, DW_AT_TI_symbol_name("dataIn")
     255                    .dwattr $C$DW$20, DW_AT_type(*$C$DW$T$19)
     256                    .dwattr $C$DW$20, DW_AT_location[DW_OP_reg13]
     257            
     258            
     259            ;*****************************************************************************
     260            ;* FUNCTION NAME: CRC_set16BitDataReversed                                   *
     261            ;*                                                                           *
     262            ;*   Regs Modified     : SP,SR,r12                                           *
     263            ;*   Regs Used         : SP,SR,r12,r13                                       *
     264            ;*   Local Frame Size  : 0 Args + 0 Auto + 0 Save = 0 byte                   *
     265            ;*****************************************************************************
     266 000000       CRC_set16BitDataReversed:
     267            ;* --------------------------------------------------------------------------*
     268                    .dwcfi  cfa_offset, 4
     269                    .dwcfi  save_reg_to_mem, 16, -4
     270            ;* r13   assigned to dataIn
     271            $C$DW$21        .dwtag  DW_TAG_variable
     272                    .dwattr $C$DW$21, DW_AT_name("dataIn")
MSP430 Assembler PC v15.12.3 Mon Oct 17 15:18:00 2016

Tools Copyright (c) 2003-2015 Texas Instruments Incorporated
C:\Users\madis\AppData\Local\Temp\044962                             PAGE    6

     273                    .dwattr $C$DW$21, DW_AT_TI_symbol_name("dataIn")
     274                    .dwattr $C$DW$21, DW_AT_type(*$C$DW$T$19)
     275                    .dwattr $C$DW$21, DW_AT_location[DW_OP_reg13]
     276            
     277                    .dwpsn  file "../MSP430F5xx_6xx/crc.c",line 73,column 5,is_stmt,isa 0
     278 000000 532C          ADD.W     #2,r12                ; [] |73| 
     279 000002 4D8C          MOV.W     r13,0(r12)            ; [] |73| 
         000004 0000 
     280                    .dwpsn  file "../MSP430F5xx_6xx/crc.c",line 74,column 1,is_stmt,isa 0
     281            $C$DW$22        .dwtag  DW_TAG_TI_branch
     282                    .dwattr $C$DW$22, DW_AT_low_pc(0x00)
     283                    .dwattr $C$DW$22, DW_AT_TI_return
     284            
     285 000006 0110          RETA      ; [] 
     286                    ; [] 
     287                    .dwattr $C$DW$18, DW_AT_TI_end_file("../MSP430F5xx_6xx/crc.c")
     288                    .dwattr $C$DW$18, DW_AT_TI_end_line(0x4a)
     289                    .dwattr $C$DW$18, DW_AT_TI_end_column(0x01)
     290                    .dwendentry
     291                    .dwendtag $C$DW$18
     292            
     293 000000               .sect   ".text:CRC_set8BitDataReversed"
     294                    .clink
     295                    .global CRC_set8BitDataReversed
     296            
     297            $C$DW$23        .dwtag  DW_TAG_subprogram
     298                    .dwattr $C$DW$23, DW_AT_name("CRC_set8BitDataReversed")
     299                    .dwattr $C$DW$23, DW_AT_low_pc(CRC_set8BitDataReversed)
     300                    .dwattr $C$DW$23, DW_AT_high_pc(0x00)
     301                    .dwattr $C$DW$23, DW_AT_TI_symbol_name("CRC_set8BitDataReversed")
     302                    .dwattr $C$DW$23, DW_AT_external
     303                    .dwattr $C$DW$23, DW_AT_TI_begin_file("../MSP430F5xx_6xx/crc.c")
     304                    .dwattr $C$DW$23, DW_AT_TI_begin_line(0x4c)
     305                    .dwattr $C$DW$23, DW_AT_TI_begin_column(0x06)
     306                    .dwattr $C$DW$23, DW_AT_decl_file("../MSP430F5xx_6xx/crc.c")
     307                    .dwattr $C$DW$23, DW_AT_decl_line(0x4c)
     308                    .dwattr $C$DW$23, DW_AT_decl_column(0x06)
     309                    .dwattr $C$DW$23, DW_AT_TI_max_frame_size(0x04)
     310                    .dwpsn  file "../MSP430F5xx_6xx/crc.c",line 78,column 1,is_stmt,address CRC_set8BitDataReverse
     311            
     312                    .dwfde $C$DW$CIE, CRC_set8BitDataReversed
     313            $C$DW$24        .dwtag  DW_TAG_formal_parameter
     314                    .dwattr $C$DW$24, DW_AT_name("baseAddress")
     315                    .dwattr $C$DW$24, DW_AT_TI_symbol_name("baseAddress")
     316                    .dwattr $C$DW$24, DW_AT_type(*$C$DW$T$19)
     317                    .dwattr $C$DW$24, DW_AT_location[DW_OP_reg12]
     318            
     319            $C$DW$25        .dwtag  DW_TAG_formal_parameter
     320                    .dwattr $C$DW$25, DW_AT_name("dataIn")
     321                    .dwattr $C$DW$25, DW_AT_TI_symbol_name("dataIn")
     322                    .dwattr $C$DW$25, DW_AT_type(*$C$DW$T$21)
     323                    .dwattr $C$DW$25, DW_AT_location[DW_OP_reg13]
     324            
     325            
     326            ;*****************************************************************************
MSP430 Assembler PC v15.12.3 Mon Oct 17 15:18:00 2016

Tools Copyright (c) 2003-2015 Texas Instruments Incorporated
C:\Users\madis\AppData\Local\Temp\044962                             PAGE    7

     327            ;* FUNCTION NAME: CRC_set8BitDataReversed                                    *
     328            ;*                                                                           *
     329            ;*   Regs Modified     : SP,SR,r12                                           *
     330            ;*   Regs Used         : SP,SR,r12,r13                                       *
     331            ;*   Local Frame Size  : 0 Args + 0 Auto + 0 Save = 0 byte                   *
     332            ;*****************************************************************************
     333 000000       CRC_set8BitDataReversed:
     334            ;* --------------------------------------------------------------------------*
     335                    .dwcfi  cfa_offset, 4
     336                    .dwcfi  save_reg_to_mem, 16, -4
     337            ;* r13   assigned to dataIn
     338            $C$DW$26        .dwtag  DW_TAG_variable
     339                    .dwattr $C$DW$26, DW_AT_name("dataIn")
     340                    .dwattr $C$DW$26, DW_AT_TI_symbol_name("dataIn")
     341                    .dwattr $C$DW$26, DW_AT_type(*$C$DW$T$21)
     342                    .dwattr $C$DW$26, DW_AT_location[DW_OP_reg13]
     343            
     344                    .dwpsn  file "../MSP430F5xx_6xx/crc.c",line 79,column 5,is_stmt,isa 0
     345 000000 532C          ADD.W     #2,r12                ; [] |79| 
     346 000002 4DCC          MOV.B     r13,0(r12)            ; [] |79| 
         000004 0000 
     347                    .dwpsn  file "../MSP430F5xx_6xx/crc.c",line 80,column 1,is_stmt,isa 0
     348            $C$DW$27        .dwtag  DW_TAG_TI_branch
     349                    .dwattr $C$DW$27, DW_AT_low_pc(0x00)
     350                    .dwattr $C$DW$27, DW_AT_TI_return
     351            
     352 000006 0110          RETA      ; [] 
     353                    ; [] 
     354                    .dwattr $C$DW$23, DW_AT_TI_end_file("../MSP430F5xx_6xx/crc.c")
     355                    .dwattr $C$DW$23, DW_AT_TI_end_line(0x50)
     356                    .dwattr $C$DW$23, DW_AT_TI_end_column(0x01)
     357                    .dwendentry
     358                    .dwendtag $C$DW$23
     359            
     360 000000               .sect   ".text:CRC_getData"
     361                    .clink
     362                    .global CRC_getData
     363            
     364            $C$DW$28        .dwtag  DW_TAG_subprogram
     365                    .dwattr $C$DW$28, DW_AT_name("CRC_getData")
     366                    .dwattr $C$DW$28, DW_AT_low_pc(CRC_getData)
     367                    .dwattr $C$DW$28, DW_AT_high_pc(0x00)
     368                    .dwattr $C$DW$28, DW_AT_TI_symbol_name("CRC_getData")
     369                    .dwattr $C$DW$28, DW_AT_external
     370                    .dwattr $C$DW$28, DW_AT_type(*$C$DW$T$19)
     371                    .dwattr $C$DW$28, DW_AT_TI_begin_file("../MSP430F5xx_6xx/crc.c")
     372                    .dwattr $C$DW$28, DW_AT_TI_begin_line(0x52)
     373                    .dwattr $C$DW$28, DW_AT_TI_begin_column(0x0a)
     374                    .dwattr $C$DW$28, DW_AT_decl_file("../MSP430F5xx_6xx/crc.c")
     375                    .dwattr $C$DW$28, DW_AT_decl_line(0x52)
     376                    .dwattr $C$DW$28, DW_AT_decl_column(0x0a)
     377                    .dwattr $C$DW$28, DW_AT_TI_max_frame_size(0x04)
     378                    .dwpsn  file "../MSP430F5xx_6xx/crc.c",line 83,column 1,is_stmt,address CRC_getData,isa 0
     379            
     380                    .dwfde $C$DW$CIE, CRC_getData
MSP430 Assembler PC v15.12.3 Mon Oct 17 15:18:00 2016

Tools Copyright (c) 2003-2015 Texas Instruments Incorporated
C:\Users\madis\AppData\Local\Temp\044962                             PAGE    8

     381            $C$DW$29        .dwtag  DW_TAG_formal_parameter
     382                    .dwattr $C$DW$29, DW_AT_name("baseAddress")
     383                    .dwattr $C$DW$29, DW_AT_TI_symbol_name("baseAddress")
     384                    .dwattr $C$DW$29, DW_AT_type(*$C$DW$T$19)
     385                    .dwattr $C$DW$29, DW_AT_location[DW_OP_reg12]
     386            
     387            
     388            ;*****************************************************************************
     389            ;* FUNCTION NAME: CRC_getData                                                *
     390            ;*                                                                           *
     391            ;*   Regs Modified     : SP,r12                                              *
     392            ;*   Regs Used         : SP,r12                                              *
     393            ;*   Local Frame Size  : 0 Args + 0 Auto + 0 Save = 0 byte                   *
     394            ;*****************************************************************************
     395 000000       CRC_getData:
     396            ;* --------------------------------------------------------------------------*
     397                    .dwcfi  cfa_offset, 4
     398                    .dwcfi  save_reg_to_mem, 16, -4
     399            ;* r12   assigned to baseAddress
     400            $C$DW$30        .dwtag  DW_TAG_variable
     401                    .dwattr $C$DW$30, DW_AT_name("baseAddress")
     402                    .dwattr $C$DW$30, DW_AT_TI_symbol_name("baseAddress")
     403                    .dwattr $C$DW$30, DW_AT_type(*$C$DW$T$19)
     404                    .dwattr $C$DW$30, DW_AT_location[DW_OP_reg12]
     405            
     406                    .dwpsn  file "../MSP430F5xx_6xx/crc.c",line 84,column 5,is_stmt,isa 0
     407 000000 4C2C          MOV.W     @r12,r12              ; [] |84| 
     408                    .dwpsn  file "../MSP430F5xx_6xx/crc.c",line 85,column 1,is_stmt,isa 0
     409            $C$DW$31        .dwtag  DW_TAG_TI_branch
     410                    .dwattr $C$DW$31, DW_AT_low_pc(0x00)
     411                    .dwattr $C$DW$31, DW_AT_TI_return
     412            
     413 000002 0110          RETA      ; [] 
     414                    ; [] 
     415                    .dwattr $C$DW$28, DW_AT_TI_end_file("../MSP430F5xx_6xx/crc.c")
     416                    .dwattr $C$DW$28, DW_AT_TI_end_line(0x55)
     417                    .dwattr $C$DW$28, DW_AT_TI_end_column(0x01)
     418                    .dwendentry
     419                    .dwendtag $C$DW$28
     420            
     421 000000               .sect   ".text:CRC_getResult"
     422                    .clink
     423                    .global CRC_getResult
     424            
     425            $C$DW$32        .dwtag  DW_TAG_subprogram
     426                    .dwattr $C$DW$32, DW_AT_name("CRC_getResult")
     427                    .dwattr $C$DW$32, DW_AT_low_pc(CRC_getResult)
     428                    .dwattr $C$DW$32, DW_AT_high_pc(0x00)
     429                    .dwattr $C$DW$32, DW_AT_TI_symbol_name("CRC_getResult")
     430                    .dwattr $C$DW$32, DW_AT_external
     431                    .dwattr $C$DW$32, DW_AT_type(*$C$DW$T$19)
     432                    .dwattr $C$DW$32, DW_AT_TI_begin_file("../MSP430F5xx_6xx/crc.c")
     433                    .dwattr $C$DW$32, DW_AT_TI_begin_line(0x57)
     434                    .dwattr $C$DW$32, DW_AT_TI_begin_column(0x0a)
     435                    .dwattr $C$DW$32, DW_AT_decl_file("../MSP430F5xx_6xx/crc.c")
MSP430 Assembler PC v15.12.3 Mon Oct 17 15:18:00 2016

Tools Copyright (c) 2003-2015 Texas Instruments Incorporated
C:\Users\madis\AppData\Local\Temp\044962                             PAGE    9

     436                    .dwattr $C$DW$32, DW_AT_decl_line(0x57)
     437                    .dwattr $C$DW$32, DW_AT_decl_column(0x0a)
     438                    .dwattr $C$DW$32, DW_AT_TI_max_frame_size(0x04)
     439                    .dwpsn  file "../MSP430F5xx_6xx/crc.c",line 88,column 1,is_stmt,address CRC_getResult,isa 0
     440            
     441                    .dwfde $C$DW$CIE, CRC_getResult
     442            $C$DW$33        .dwtag  DW_TAG_formal_parameter
     443                    .dwattr $C$DW$33, DW_AT_name("baseAddress")
     444                    .dwattr $C$DW$33, DW_AT_TI_symbol_name("baseAddress")
     445                    .dwattr $C$DW$33, DW_AT_type(*$C$DW$T$19)
     446                    .dwattr $C$DW$33, DW_AT_location[DW_OP_reg12]
     447            
     448            
     449            ;*****************************************************************************
     450            ;* FUNCTION NAME: CRC_getResult                                              *
     451            ;*                                                                           *
     452            ;*   Regs Modified     : SP,SR,r12                                           *
     453            ;*   Regs Used         : SP,SR,r12                                           *
     454            ;*   Local Frame Size  : 0 Args + 0 Auto + 0 Save = 0 byte                   *
     455            ;*****************************************************************************
     456 000000       CRC_getResult:
     457            ;* --------------------------------------------------------------------------*
     458                    .dwcfi  cfa_offset, 4
     459                    .dwcfi  save_reg_to_mem, 16, -4
     460                    .dwpsn  file "../MSP430F5xx_6xx/crc.c",line 89,column 5,is_stmt,isa 0
     461 000000 522C          ADD.W     #4,r12                ; [] |89| 
     462 000002 4C2C          MOV.W     @r12,r12              ; [] |89| 
     463                    .dwpsn  file "../MSP430F5xx_6xx/crc.c",line 90,column 1,is_stmt,isa 0
     464            $C$DW$34        .dwtag  DW_TAG_TI_branch
     465                    .dwattr $C$DW$34, DW_AT_low_pc(0x00)
     466                    .dwattr $C$DW$34, DW_AT_TI_return
     467            
     468 000004 0110          RETA      ; [] 
     469                    ; [] 
     470                    .dwattr $C$DW$32, DW_AT_TI_end_file("../MSP430F5xx_6xx/crc.c")
     471                    .dwattr $C$DW$32, DW_AT_TI_end_line(0x5a)
     472                    .dwattr $C$DW$32, DW_AT_TI_end_column(0x01)
     473                    .dwendentry
     474                    .dwendtag $C$DW$32
     475            
     476 000000               .sect   ".text:CRC_getResultBitsReversed"
     477                    .clink
     478                    .global CRC_getResultBitsReversed
     479            
     480            $C$DW$35        .dwtag  DW_TAG_subprogram
     481                    .dwattr $C$DW$35, DW_AT_name("CRC_getResultBitsReversed")
     482                    .dwattr $C$DW$35, DW_AT_low_pc(CRC_getResultBitsReversed)
     483                    .dwattr $C$DW$35, DW_AT_high_pc(0x00)
     484                    .dwattr $C$DW$35, DW_AT_TI_symbol_name("CRC_getResultBitsReversed")
     485                    .dwattr $C$DW$35, DW_AT_external
     486                    .dwattr $C$DW$35, DW_AT_type(*$C$DW$T$19)
     487                    .dwattr $C$DW$35, DW_AT_TI_begin_file("../MSP430F5xx_6xx/crc.c")
     488                    .dwattr $C$DW$35, DW_AT_TI_begin_line(0x5c)
     489                    .dwattr $C$DW$35, DW_AT_TI_begin_column(0x0a)
     490                    .dwattr $C$DW$35, DW_AT_decl_file("../MSP430F5xx_6xx/crc.c")
MSP430 Assembler PC v15.12.3 Mon Oct 17 15:18:00 2016

Tools Copyright (c) 2003-2015 Texas Instruments Incorporated
C:\Users\madis\AppData\Local\Temp\044962                             PAGE   10

     491                    .dwattr $C$DW$35, DW_AT_decl_line(0x5c)
     492                    .dwattr $C$DW$35, DW_AT_decl_column(0x0a)
     493                    .dwattr $C$DW$35, DW_AT_TI_max_frame_size(0x04)
     494                    .dwpsn  file "../MSP430F5xx_6xx/crc.c",line 93,column 1,is_stmt,address CRC_getResultBitsRever
     495            
     496                    .dwfde $C$DW$CIE, CRC_getResultBitsReversed
     497            $C$DW$36        .dwtag  DW_TAG_formal_parameter
     498                    .dwattr $C$DW$36, DW_AT_name("baseAddress")
     499                    .dwattr $C$DW$36, DW_AT_TI_symbol_name("baseAddress")
     500                    .dwattr $C$DW$36, DW_AT_type(*$C$DW$T$19)
     501                    .dwattr $C$DW$36, DW_AT_location[DW_OP_reg12]
     502            
     503            
     504            ;*****************************************************************************
     505            ;* FUNCTION NAME: CRC_getResultBitsReversed                                  *
     506            ;*                                                                           *
     507            ;*   Regs Modified     : SP,SR,r12                                           *
     508            ;*   Regs Used         : SP,SR,r12                                           *
     509            ;*   Local Frame Size  : 0 Args + 0 Auto + 0 Save = 0 byte                   *
     510            ;*****************************************************************************
     511 000000       CRC_getResultBitsReversed:
     512            ;* --------------------------------------------------------------------------*
     513                    .dwcfi  cfa_offset, 4
     514                    .dwcfi  save_reg_to_mem, 16, -4
     515                    .dwpsn  file "../MSP430F5xx_6xx/crc.c",line 94,column 5,is_stmt,isa 0
     516 000000 503C          ADD.W     #6,r12                ; [] |94| 
         000002 0006 
     517 000004 4C2C          MOV.W     @r12,r12              ; [] |94| 
     518                    .dwpsn  file "../MSP430F5xx_6xx/crc.c",line 95,column 1,is_stmt,isa 0
     519            $C$DW$37        .dwtag  DW_TAG_TI_branch
     520                    .dwattr $C$DW$37, DW_AT_low_pc(0x00)
     521                    .dwattr $C$DW$37, DW_AT_TI_return
     522            
     523 000006 0110          RETA      ; [] 
     524                    ; [] 
     525                    .dwattr $C$DW$35, DW_AT_TI_end_file("../MSP430F5xx_6xx/crc.c")
     526                    .dwattr $C$DW$35, DW_AT_TI_end_line(0x5f)
     527                    .dwattr $C$DW$35, DW_AT_TI_end_column(0x01)
     528                    .dwendentry
     529                    .dwendtag $C$DW$35
     530            
     531            
     532            ;******************************************************************************
     533            ;* BUILD ATTRIBUTES                                                           *
     534            ;******************************************************************************
     535                    .battr "TI", Tag_File, 1, Tag_LPM_INFO(1)
     536                    .battr "TI", Tag_File, 1, Tag_PORTS_INIT_INFO("012345678901ABCDEFGHIJ0000000000001111000000000
     537                    .battr "TI", Tag_File, 1, Tag_HW_MPY32_INFO(2)
     538                    .battr "TI", Tag_File, 1, Tag_HW_MPY_ISR_INFO(1)
     539                    .battr "TI", Tag_File, 1, Tag_HW_MPY_INLINE_INFO(1)
     540                    .battr "mspabi", Tag_File, 1, Tag_enum_size(3)
     541            
     542            ;******************************************************************************
     543            ;* TYPE INFORMATION                                                           *
     544            ;******************************************************************************
MSP430 Assembler PC v15.12.3 Mon Oct 17 15:18:00 2016

Tools Copyright (c) 2003-2015 Texas Instruments Incorporated
C:\Users\madis\AppData\Local\Temp\044962                             PAGE   11

     545            $C$DW$T$2       .dwtag  DW_TAG_unspecified_type
     546                    .dwattr $C$DW$T$2, DW_AT_name("void")
     547            
     548            
     549            $C$DW$T$23      .dwtag  DW_TAG_subroutine_type
     550                    .dwattr $C$DW$T$23, DW_AT_language(DW_LANG_C)
     551                    .dwendtag $C$DW$T$23
     552            
     553            $C$DW$T$24      .dwtag  DW_TAG_pointer_type
     554                    .dwattr $C$DW$T$24, DW_AT_type(*$C$DW$T$23)
     555                    .dwattr $C$DW$T$24, DW_AT_address_class(0x14)
     556            
     557            $C$DW$T$25      .dwtag  DW_TAG_typedef
     558                    .dwattr $C$DW$T$25, DW_AT_name("__SFR_FARPTR")
     559                    .dwattr $C$DW$T$25, DW_AT_type(*$C$DW$T$24)
     560                    .dwattr $C$DW$T$25, DW_AT_language(DW_LANG_C)
     561                    .dwattr $C$DW$T$25, DW_AT_decl_file("D:\ti\ccsv6\ccs_base\msp430\include\msp430f5529.h")
     562                    .dwattr $C$DW$T$25, DW_AT_decl_line(0x47)
     563                    .dwattr $C$DW$T$25, DW_AT_decl_column(0x11)
     564            
     565            $C$DW$T$4       .dwtag  DW_TAG_base_type
     566                    .dwattr $C$DW$T$4, DW_AT_encoding(DW_ATE_boolean)
     567                    .dwattr $C$DW$T$4, DW_AT_name("bool")
     568                    .dwattr $C$DW$T$4, DW_AT_byte_size(0x01)
     569            
     570            $C$DW$T$5       .dwtag  DW_TAG_base_type
     571                    .dwattr $C$DW$T$5, DW_AT_encoding(DW_ATE_signed_char)
     572                    .dwattr $C$DW$T$5, DW_AT_name("signed char")
     573                    .dwattr $C$DW$T$5, DW_AT_byte_size(0x01)
     574            
     575            $C$DW$T$26      .dwtag  DW_TAG_typedef
     576                    .dwattr $C$DW$T$26, DW_AT_name("int8_t")
     577                    .dwattr $C$DW$T$26, DW_AT_type(*$C$DW$T$5)
     578                    .dwattr $C$DW$T$26, DW_AT_language(DW_LANG_C)
     579                    .dwattr $C$DW$T$26, DW_AT_decl_file("D:/ti/ccsv6/tools/compiler/msp430_15.12.3.LTS/include/std
     580                    .dwattr $C$DW$T$26, DW_AT_decl_line(0x2a)
     581                    .dwattr $C$DW$T$26, DW_AT_decl_column(0x1e)
     582            
     583            $C$DW$T$27      .dwtag  DW_TAG_typedef
     584                    .dwattr $C$DW$T$27, DW_AT_name("int_least8_t")
     585                    .dwattr $C$DW$T$27, DW_AT_type(*$C$DW$T$26)
     586                    .dwattr $C$DW$T$27, DW_AT_language(DW_LANG_C)
     587                    .dwattr $C$DW$T$27, DW_AT_decl_file("D:/ti/ccsv6/tools/compiler/msp430_15.12.3.LTS/include/std
     588                    .dwattr $C$DW$T$27, DW_AT_decl_line(0x37)
     589                    .dwattr $C$DW$T$27, DW_AT_decl_column(0x17)
     590            
     591            $C$DW$T$6       .dwtag  DW_TAG_base_type
     592                    .dwattr $C$DW$T$6, DW_AT_encoding(DW_ATE_unsigned_char)
     593                    .dwattr $C$DW$T$6, DW_AT_name("unsigned char")
     594                    .dwattr $C$DW$T$6, DW_AT_byte_size(0x01)
     595            
     596            $C$DW$T$21      .dwtag  DW_TAG_typedef
     597                    .dwattr $C$DW$T$21, DW_AT_name("uint8_t")
     598                    .dwattr $C$DW$T$21, DW_AT_type(*$C$DW$T$6)
     599                    .dwattr $C$DW$T$21, DW_AT_language(DW_LANG_C)
MSP430 Assembler PC v15.12.3 Mon Oct 17 15:18:00 2016

Tools Copyright (c) 2003-2015 Texas Instruments Incorporated
C:\Users\madis\AppData\Local\Temp\044962                             PAGE   12

     600                    .dwattr $C$DW$T$21, DW_AT_decl_file("D:/ti/ccsv6/tools/compiler/msp430_15.12.3.LTS/include/std
     601                    .dwattr $C$DW$T$21, DW_AT_decl_line(0x2b)
     602                    .dwattr $C$DW$T$21, DW_AT_decl_column(0x1d)
     603            
     604            $C$DW$T$30      .dwtag  DW_TAG_typedef
     605                    .dwattr $C$DW$T$30, DW_AT_name("uint_least8_t")
     606                    .dwattr $C$DW$T$30, DW_AT_type(*$C$DW$T$21)
     607                    .dwattr $C$DW$T$30, DW_AT_language(DW_LANG_C)
     608                    .dwattr $C$DW$T$30, DW_AT_decl_file("D:/ti/ccsv6/tools/compiler/msp430_15.12.3.LTS/include/std
     609                    .dwattr $C$DW$T$30, DW_AT_decl_line(0x38)
     610                    .dwattr $C$DW$T$30, DW_AT_decl_column(0x16)
     611            
     612            $C$DW$T$7       .dwtag  DW_TAG_base_type
     613                    .dwattr $C$DW$T$7, DW_AT_encoding(DW_ATE_signed_char)
     614                    .dwattr $C$DW$T$7, DW_AT_name("wchar_t")
     615                    .dwattr $C$DW$T$7, DW_AT_byte_size(0x02)
     616            
     617            $C$DW$T$8       .dwtag  DW_TAG_base_type
     618                    .dwattr $C$DW$T$8, DW_AT_encoding(DW_ATE_signed)
     619                    .dwattr $C$DW$T$8, DW_AT_name("short")
     620                    .dwattr $C$DW$T$8, DW_AT_byte_size(0x02)
     621            
     622            $C$DW$T$9       .dwtag  DW_TAG_base_type
     623                    .dwattr $C$DW$T$9, DW_AT_encoding(DW_ATE_unsigned)
     624                    .dwattr $C$DW$T$9, DW_AT_name("unsigned short")
     625                    .dwattr $C$DW$T$9, DW_AT_byte_size(0x02)
     626            
     627            $C$DW$T$10      .dwtag  DW_TAG_base_type
     628                    .dwattr $C$DW$T$10, DW_AT_encoding(DW_ATE_signed)
     629                    .dwattr $C$DW$T$10, DW_AT_name("int")
     630                    .dwattr $C$DW$T$10, DW_AT_byte_size(0x02)
     631            
     632            $C$DW$T$31      .dwtag  DW_TAG_typedef
     633                    .dwattr $C$DW$T$31, DW_AT_name("int16_t")
     634                    .dwattr $C$DW$T$31, DW_AT_type(*$C$DW$T$10)
     635                    .dwattr $C$DW$T$31, DW_AT_language(DW_LANG_C)
     636                    .dwattr $C$DW$T$31, DW_AT_decl_file("D:/ti/ccsv6/tools/compiler/msp430_15.12.3.LTS/include/std
     637                    .dwattr $C$DW$T$31, DW_AT_decl_line(0x2c)
     638                    .dwattr $C$DW$T$31, DW_AT_decl_column(0x1d)
     639            
     640            $C$DW$T$32      .dwtag  DW_TAG_typedef
     641                    .dwattr $C$DW$T$32, DW_AT_name("int_fast16_t")
     642                    .dwattr $C$DW$T$32, DW_AT_type(*$C$DW$T$31)
     643                    .dwattr $C$DW$T$32, DW_AT_language(DW_LANG_C)
     644                    .dwattr $C$DW$T$32, DW_AT_decl_file("D:/ti/ccsv6/tools/compiler/msp430_15.12.3.LTS/include/std
     645                    .dwattr $C$DW$T$32, DW_AT_decl_line(0x47)
     646                    .dwattr $C$DW$T$32, DW_AT_decl_column(0x17)
     647            
     648            $C$DW$T$33      .dwtag  DW_TAG_typedef
     649                    .dwattr $C$DW$T$33, DW_AT_name("int_fast8_t")
     650                    .dwattr $C$DW$T$33, DW_AT_type(*$C$DW$T$31)
     651                    .dwattr $C$DW$T$33, DW_AT_language(DW_LANG_C)
     652                    .dwattr $C$DW$T$33, DW_AT_decl_file("D:/ti/ccsv6/tools/compiler/msp430_15.12.3.LTS/include/std
     653                    .dwattr $C$DW$T$33, DW_AT_decl_line(0x45)
     654                    .dwattr $C$DW$T$33, DW_AT_decl_column(0x17)
MSP430 Assembler PC v15.12.3 Mon Oct 17 15:18:00 2016

Tools Copyright (c) 2003-2015 Texas Instruments Incorporated
C:\Users\madis\AppData\Local\Temp\044962                             PAGE   13

     655            
     656            $C$DW$T$34      .dwtag  DW_TAG_typedef
     657                    .dwattr $C$DW$T$34, DW_AT_name("int_least16_t")
     658                    .dwattr $C$DW$T$34, DW_AT_type(*$C$DW$T$31)
     659                    .dwattr $C$DW$T$34, DW_AT_language(DW_LANG_C)
     660                    .dwattr $C$DW$T$34, DW_AT_decl_file("D:/ti/ccsv6/tools/compiler/msp430_15.12.3.LTS/include/std
     661                    .dwattr $C$DW$T$34, DW_AT_decl_line(0x3a)
     662                    .dwattr $C$DW$T$34, DW_AT_decl_column(0x17)
     663            
     664            $C$DW$T$11      .dwtag  DW_TAG_base_type
     665                    .dwattr $C$DW$T$11, DW_AT_encoding(DW_ATE_unsigned)
     666                    .dwattr $C$DW$T$11, DW_AT_name("unsigned int")
     667                    .dwattr $C$DW$T$11, DW_AT_byte_size(0x02)
     668            
     669            $C$DW$T$19      .dwtag  DW_TAG_typedef
     670                    .dwattr $C$DW$T$19, DW_AT_name("uint16_t")
     671                    .dwattr $C$DW$T$19, DW_AT_type(*$C$DW$T$11)
     672                    .dwattr $C$DW$T$19, DW_AT_language(DW_LANG_C)
     673                    .dwattr $C$DW$T$19, DW_AT_decl_file("D:/ti/ccsv6/tools/compiler/msp430_15.12.3.LTS/include/std
     674                    .dwattr $C$DW$T$19, DW_AT_decl_line(0x2d)
     675                    .dwattr $C$DW$T$19, DW_AT_decl_column(0x1c)
     676            
     677            $C$DW$T$39      .dwtag  DW_TAG_typedef
     678                    .dwattr $C$DW$T$39, DW_AT_name("uint_fast16_t")
     679                    .dwattr $C$DW$T$39, DW_AT_type(*$C$DW$T$19)
     680                    .dwattr $C$DW$T$39, DW_AT_language(DW_LANG_C)
     681                    .dwattr $C$DW$T$39, DW_AT_decl_file("D:/ti/ccsv6/tools/compiler/msp430_15.12.3.LTS/include/std
     682                    .dwattr $C$DW$T$39, DW_AT_decl_line(0x48)
     683                    .dwattr $C$DW$T$39, DW_AT_decl_column(0x16)
     684            
     685            $C$DW$T$40      .dwtag  DW_TAG_typedef
     686                    .dwattr $C$DW$T$40, DW_AT_name("uint_fast8_t")
     687                    .dwattr $C$DW$T$40, DW_AT_type(*$C$DW$T$19)
     688                    .dwattr $C$DW$T$40, DW_AT_language(DW_LANG_C)
     689                    .dwattr $C$DW$T$40, DW_AT_decl_file("D:/ti/ccsv6/tools/compiler/msp430_15.12.3.LTS/include/std
     690                    .dwattr $C$DW$T$40, DW_AT_decl_line(0x46)
     691                    .dwattr $C$DW$T$40, DW_AT_decl_column(0x16)
     692            
     693            $C$DW$T$41      .dwtag  DW_TAG_typedef
     694                    .dwattr $C$DW$T$41, DW_AT_name("uint_least16_t")
     695                    .dwattr $C$DW$T$41, DW_AT_type(*$C$DW$T$19)
     696                    .dwattr $C$DW$T$41, DW_AT_language(DW_LANG_C)
     697                    .dwattr $C$DW$T$41, DW_AT_decl_file("D:/ti/ccsv6/tools/compiler/msp430_15.12.3.LTS/include/std
     698                    .dwattr $C$DW$T$41, DW_AT_decl_line(0x3b)
     699                    .dwattr $C$DW$T$41, DW_AT_decl_column(0x16)
     700            
     701            $C$DW$T$12      .dwtag  DW_TAG_base_type
     702                    .dwattr $C$DW$T$12, DW_AT_encoding(DW_ATE_signed)
     703                    .dwattr $C$DW$T$12, DW_AT_name("long")
     704                    .dwattr $C$DW$T$12, DW_AT_byte_size(0x04)
     705            
     706            $C$DW$T$42      .dwtag  DW_TAG_typedef
     707                    .dwattr $C$DW$T$42, DW_AT_name("int32_t")
     708                    .dwattr $C$DW$T$42, DW_AT_type(*$C$DW$T$12)
     709                    .dwattr $C$DW$T$42, DW_AT_language(DW_LANG_C)
MSP430 Assembler PC v15.12.3 Mon Oct 17 15:18:00 2016

Tools Copyright (c) 2003-2015 Texas Instruments Incorporated
C:\Users\madis\AppData\Local\Temp\044962                             PAGE   14

     710                    .dwattr $C$DW$T$42, DW_AT_decl_file("D:/ti/ccsv6/tools/compiler/msp430_15.12.3.LTS/include/std
     711                    .dwattr $C$DW$T$42, DW_AT_decl_line(0x2e)
     712                    .dwattr $C$DW$T$42, DW_AT_decl_column(0x1d)
     713            
     714            $C$DW$T$43      .dwtag  DW_TAG_typedef
     715                    .dwattr $C$DW$T$43, DW_AT_name("int_fast32_t")
     716                    .dwattr $C$DW$T$43, DW_AT_type(*$C$DW$T$42)
     717                    .dwattr $C$DW$T$43, DW_AT_language(DW_LANG_C)
     718                    .dwattr $C$DW$T$43, DW_AT_decl_file("D:/ti/ccsv6/tools/compiler/msp430_15.12.3.LTS/include/std
     719                    .dwattr $C$DW$T$43, DW_AT_decl_line(0x4a)
     720                    .dwattr $C$DW$T$43, DW_AT_decl_column(0x17)
     721            
     722            $C$DW$T$44      .dwtag  DW_TAG_typedef
     723                    .dwattr $C$DW$T$44, DW_AT_name("int_least32_t")
     724                    .dwattr $C$DW$T$44, DW_AT_type(*$C$DW$T$42)
     725                    .dwattr $C$DW$T$44, DW_AT_language(DW_LANG_C)
     726                    .dwattr $C$DW$T$44, DW_AT_decl_file("D:/ti/ccsv6/tools/compiler/msp430_15.12.3.LTS/include/std
     727                    .dwattr $C$DW$T$44, DW_AT_decl_line(0x3c)
     728                    .dwattr $C$DW$T$44, DW_AT_decl_column(0x17)
     729            
     730            $C$DW$T$45      .dwtag  DW_TAG_typedef
     731                    .dwattr $C$DW$T$45, DW_AT_name("intptr_t")
     732                    .dwattr $C$DW$T$45, DW_AT_type(*$C$DW$T$12)
     733                    .dwattr $C$DW$T$45, DW_AT_language(DW_LANG_C)
     734                    .dwattr $C$DW$T$45, DW_AT_decl_file("D:/ti/ccsv6/tools/compiler/msp430_15.12.3.LTS/include/std
     735                    .dwattr $C$DW$T$45, DW_AT_decl_line(0x55)
     736                    .dwattr $C$DW$T$45, DW_AT_decl_column(0x1b)
     737            
     738            $C$DW$T$13      .dwtag  DW_TAG_base_type
     739                    .dwattr $C$DW$T$13, DW_AT_encoding(DW_ATE_unsigned)
     740                    .dwattr $C$DW$T$13, DW_AT_name("unsigned long")
     741                    .dwattr $C$DW$T$13, DW_AT_byte_size(0x04)
     742            
     743            $C$DW$T$46      .dwtag  DW_TAG_typedef
     744                    .dwattr $C$DW$T$46, DW_AT_name("uint32_t")
     745                    .dwattr $C$DW$T$46, DW_AT_type(*$C$DW$T$13)
     746                    .dwattr $C$DW$T$46, DW_AT_language(DW_LANG_C)
     747                    .dwattr $C$DW$T$46, DW_AT_decl_file("D:/ti/ccsv6/tools/compiler/msp430_15.12.3.LTS/include/std
     748                    .dwattr $C$DW$T$46, DW_AT_decl_line(0x2f)
     749                    .dwattr $C$DW$T$46, DW_AT_decl_column(0x1c)
     750            
     751            $C$DW$T$47      .dwtag  DW_TAG_typedef
     752                    .dwattr $C$DW$T$47, DW_AT_name("uint_fast32_t")
     753                    .dwattr $C$DW$T$47, DW_AT_type(*$C$DW$T$46)
     754                    .dwattr $C$DW$T$47, DW_AT_language(DW_LANG_C)
     755                    .dwattr $C$DW$T$47, DW_AT_decl_file("D:/ti/ccsv6/tools/compiler/msp430_15.12.3.LTS/include/std
     756                    .dwattr $C$DW$T$47, DW_AT_decl_line(0x4b)
     757                    .dwattr $C$DW$T$47, DW_AT_decl_column(0x16)
     758            
     759            $C$DW$T$48      .dwtag  DW_TAG_typedef
     760                    .dwattr $C$DW$T$48, DW_AT_name("uint_least32_t")
     761                    .dwattr $C$DW$T$48, DW_AT_type(*$C$DW$T$46)
     762                    .dwattr $C$DW$T$48, DW_AT_language(DW_LANG_C)
     763                    .dwattr $C$DW$T$48, DW_AT_decl_file("D:/ti/ccsv6/tools/compiler/msp430_15.12.3.LTS/include/std
     764                    .dwattr $C$DW$T$48, DW_AT_decl_line(0x3d)
MSP430 Assembler PC v15.12.3 Mon Oct 17 15:18:00 2016

Tools Copyright (c) 2003-2015 Texas Instruments Incorporated
C:\Users\madis\AppData\Local\Temp\044962                             PAGE   15

     765                    .dwattr $C$DW$T$48, DW_AT_decl_column(0x16)
     766            
     767            $C$DW$T$49      .dwtag  DW_TAG_typedef
     768                    .dwattr $C$DW$T$49, DW_AT_name("uintptr_t")
     769                    .dwattr $C$DW$T$49, DW_AT_type(*$C$DW$T$13)
     770                    .dwattr $C$DW$T$49, DW_AT_language(DW_LANG_C)
     771                    .dwattr $C$DW$T$49, DW_AT_decl_file("D:/ti/ccsv6/tools/compiler/msp430_15.12.3.LTS/include/std
     772                    .dwattr $C$DW$T$49, DW_AT_decl_line(0x56)
     773                    .dwattr $C$DW$T$49, DW_AT_decl_column(0x1b)
     774            
     775            $C$DW$T$14      .dwtag  DW_TAG_base_type
     776                    .dwattr $C$DW$T$14, DW_AT_encoding(DW_ATE_signed)
     777                    .dwattr $C$DW$T$14, DW_AT_name("long long")
     778                    .dwattr $C$DW$T$14, DW_AT_byte_size(0x08)
     779            
     780            $C$DW$T$50      .dwtag  DW_TAG_typedef
     781                    .dwattr $C$DW$T$50, DW_AT_name("int64_t")
     782                    .dwattr $C$DW$T$50, DW_AT_type(*$C$DW$T$14)
     783                    .dwattr $C$DW$T$50, DW_AT_language(DW_LANG_C)
     784                    .dwattr $C$DW$T$50, DW_AT_decl_file("D:/ti/ccsv6/tools/compiler/msp430_15.12.3.LTS/include/std
     785                    .dwattr $C$DW$T$50, DW_AT_decl_line(0x32)
     786                    .dwattr $C$DW$T$50, DW_AT_decl_column(0x21)
     787            
     788            $C$DW$T$51      .dwtag  DW_TAG_typedef
     789                    .dwattr $C$DW$T$51, DW_AT_name("int_fast64_t")
     790                    .dwattr $C$DW$T$51, DW_AT_type(*$C$DW$T$50)
     791                    .dwattr $C$DW$T$51, DW_AT_language(DW_LANG_C)
     792                    .dwattr $C$DW$T$51, DW_AT_decl_file("D:/ti/ccsv6/tools/compiler/msp430_15.12.3.LTS/include/std
     793                    .dwattr $C$DW$T$51, DW_AT_decl_line(0x4e)
     794                    .dwattr $C$DW$T$51, DW_AT_decl_column(0x17)
     795            
     796            $C$DW$T$52      .dwtag  DW_TAG_typedef
     797                    .dwattr $C$DW$T$52, DW_AT_name("int_least64_t")
     798                    .dwattr $C$DW$T$52, DW_AT_type(*$C$DW$T$50)
     799                    .dwattr $C$DW$T$52, DW_AT_language(DW_LANG_C)
     800                    .dwattr $C$DW$T$52, DW_AT_decl_file("D:/ti/ccsv6/tools/compiler/msp430_15.12.3.LTS/include/std
     801                    .dwattr $C$DW$T$52, DW_AT_decl_line(0x40)
     802                    .dwattr $C$DW$T$52, DW_AT_decl_column(0x17)
     803            
     804            $C$DW$T$53      .dwtag  DW_TAG_typedef
     805                    .dwattr $C$DW$T$53, DW_AT_name("intmax_t")
     806                    .dwattr $C$DW$T$53, DW_AT_type(*$C$DW$T$14)
     807                    .dwattr $C$DW$T$53, DW_AT_language(DW_LANG_C)
     808                    .dwattr $C$DW$T$53, DW_AT_decl_file("D:/ti/ccsv6/tools/compiler/msp430_15.12.3.LTS/include/std
     809                    .dwattr $C$DW$T$53, DW_AT_decl_line(0x5d)
     810                    .dwattr $C$DW$T$53, DW_AT_decl_column(0x20)
     811            
     812            $C$DW$T$15      .dwtag  DW_TAG_base_type
     813                    .dwattr $C$DW$T$15, DW_AT_encoding(DW_ATE_unsigned)
     814                    .dwattr $C$DW$T$15, DW_AT_name("unsigned long long")
     815                    .dwattr $C$DW$T$15, DW_AT_byte_size(0x08)
     816            
     817            $C$DW$T$54      .dwtag  DW_TAG_typedef
     818                    .dwattr $C$DW$T$54, DW_AT_name("uint64_t")
     819                    .dwattr $C$DW$T$54, DW_AT_type(*$C$DW$T$15)
MSP430 Assembler PC v15.12.3 Mon Oct 17 15:18:00 2016

Tools Copyright (c) 2003-2015 Texas Instruments Incorporated
C:\Users\madis\AppData\Local\Temp\044962                             PAGE   16

     820                    .dwattr $C$DW$T$54, DW_AT_language(DW_LANG_C)
     821                    .dwattr $C$DW$T$54, DW_AT_decl_file("D:/ti/ccsv6/tools/compiler/msp430_15.12.3.LTS/include/std
     822                    .dwattr $C$DW$T$54, DW_AT_decl_line(0x33)
     823                    .dwattr $C$DW$T$54, DW_AT_decl_column(0x20)
     824            
     825            $C$DW$T$55      .dwtag  DW_TAG_typedef
     826                    .dwattr $C$DW$T$55, DW_AT_name("uint_fast64_t")
     827                    .dwattr $C$DW$T$55, DW_AT_type(*$C$DW$T$54)
     828                    .dwattr $C$DW$T$55, DW_AT_language(DW_LANG_C)
     829                    .dwattr $C$DW$T$55, DW_AT_decl_file("D:/ti/ccsv6/tools/compiler/msp430_15.12.3.LTS/include/std
     830                    .dwattr $C$DW$T$55, DW_AT_decl_line(0x4f)
     831                    .dwattr $C$DW$T$55, DW_AT_decl_column(0x16)
     832            
     833            $C$DW$T$56      .dwtag  DW_TAG_typedef
     834                    .dwattr $C$DW$T$56, DW_AT_name("uint_least64_t")
     835                    .dwattr $C$DW$T$56, DW_AT_type(*$C$DW$T$54)
     836                    .dwattr $C$DW$T$56, DW_AT_language(DW_LANG_C)
     837                    .dwattr $C$DW$T$56, DW_AT_decl_file("D:/ti/ccsv6/tools/compiler/msp430_15.12.3.LTS/include/std
     838                    .dwattr $C$DW$T$56, DW_AT_decl_line(0x41)
     839                    .dwattr $C$DW$T$56, DW_AT_decl_column(0x16)
     840            
     841            $C$DW$T$57      .dwtag  DW_TAG_typedef
     842                    .dwattr $C$DW$T$57, DW_AT_name("uintmax_t")
     843                    .dwattr $C$DW$T$57, DW_AT_type(*$C$DW$T$15)
     844                    .dwattr $C$DW$T$57, DW_AT_language(DW_LANG_C)
     845                    .dwattr $C$DW$T$57, DW_AT_decl_file("D:/ti/ccsv6/tools/compiler/msp430_15.12.3.LTS/include/std
     846                    .dwattr $C$DW$T$57, DW_AT_decl_line(0x5e)
     847                    .dwattr $C$DW$T$57, DW_AT_decl_column(0x20)
     848            
     849            $C$DW$T$16      .dwtag  DW_TAG_base_type
     850                    .dwattr $C$DW$T$16, DW_AT_encoding(DW_ATE_float)
     851                    .dwattr $C$DW$T$16, DW_AT_name("float")
     852                    .dwattr $C$DW$T$16, DW_AT_byte_size(0x04)
     853            
     854            $C$DW$T$17      .dwtag  DW_TAG_base_type
     855                    .dwattr $C$DW$T$17, DW_AT_encoding(DW_ATE_float)
     856                    .dwattr $C$DW$T$17, DW_AT_name("double")
     857                    .dwattr $C$DW$T$17, DW_AT_byte_size(0x08)
     858            
     859            $C$DW$T$18      .dwtag  DW_TAG_base_type
     860                    .dwattr $C$DW$T$18, DW_AT_encoding(DW_ATE_float)
     861                    .dwattr $C$DW$T$18, DW_AT_name("long double")
     862                    .dwattr $C$DW$T$18, DW_AT_byte_size(0x08)
     863            
     864                    .dwattr $C$DW$CU, DW_AT_language(DW_LANG_C)
     865            
     866            ;***************************************************************
     867            ;* DWARF CIE ENTRIES                                           *
     868            ;***************************************************************
     869            
     870            $C$DW$CIE       .dwcie 16
     871                    .dwcfi  cfa_register, 1
     872                    .dwcfi  cfa_offset, 0
     873                    .dwcfi  same_value, 0
     874                    .dwcfi  same_value, 1
MSP430 Assembler PC v15.12.3 Mon Oct 17 15:18:00 2016

Tools Copyright (c) 2003-2015 Texas Instruments Incorporated
C:\Users\madis\AppData\Local\Temp\044962                             PAGE   17

     875                    .dwcfi  undefined, 2
     876                    .dwcfi  same_value, 3
     877                    .dwcfi  same_value, 4
     878                    .dwcfi  same_value, 5
     879                    .dwcfi  same_value, 6
     880                    .dwcfi  same_value, 7
     881                    .dwcfi  same_value, 8
     882                    .dwcfi  same_value, 9
     883                    .dwcfi  same_value, 10
     884                    .dwcfi  undefined, 11
     885                    .dwcfi  undefined, 12
     886                    .dwcfi  undefined, 13
     887                    .dwcfi  undefined, 14
     888                    .dwcfi  undefined, 15
     889                    .dwcfi  undefined, 16
     890                    .dwendentry
     891            
     892            ;***************************************************************
     893            ;* DWARF REGISTER MAP                                          *
     894            ;***************************************************************
     895            
     896            $C$DW$38        .dwtag  DW_TAG_TI_assign_register
     897                    .dwattr $C$DW$38, DW_AT_name("PC")
     898                    .dwattr $C$DW$38, DW_AT_location[DW_OP_reg0]
     899            
     900            $C$DW$39        .dwtag  DW_TAG_TI_assign_register
     901                    .dwattr $C$DW$39, DW_AT_name("SP")
     902                    .dwattr $C$DW$39, DW_AT_location[DW_OP_reg1]
     903            
     904            $C$DW$40        .dwtag  DW_TAG_TI_assign_register
     905                    .dwattr $C$DW$40, DW_AT_name("SR")
     906                    .dwattr $C$DW$40, DW_AT_location[DW_OP_reg2]
     907            
     908            $C$DW$41        .dwtag  DW_TAG_TI_assign_register
     909                    .dwattr $C$DW$41, DW_AT_name("CG")
     910                    .dwattr $C$DW$41, DW_AT_location[DW_OP_reg3]
     911            
     912            $C$DW$42        .dwtag  DW_TAG_TI_assign_register
     913                    .dwattr $C$DW$42, DW_AT_name("r4")
     914                    .dwattr $C$DW$42, DW_AT_location[DW_OP_reg4]
     915            
     916            $C$DW$43        .dwtag  DW_TAG_TI_assign_register
     917                    .dwattr $C$DW$43, DW_AT_name("r5")
     918                    .dwattr $C$DW$43, DW_AT_location[DW_OP_reg5]
     919            
     920            $C$DW$44        .dwtag  DW_TAG_TI_assign_register
     921                    .dwattr $C$DW$44, DW_AT_name("r6")
     922                    .dwattr $C$DW$44, DW_AT_location[DW_OP_reg6]
     923            
     924            $C$DW$45        .dwtag  DW_TAG_TI_assign_register
     925                    .dwattr $C$DW$45, DW_AT_name("r7")
     926                    .dwattr $C$DW$45, DW_AT_location[DW_OP_reg7]
     927            
     928            $C$DW$46        .dwtag  DW_TAG_TI_assign_register
     929                    .dwattr $C$DW$46, DW_AT_name("r8")
MSP430 Assembler PC v15.12.3 Mon Oct 17 15:18:00 2016

Tools Copyright (c) 2003-2015 Texas Instruments Incorporated
C:\Users\madis\AppData\Local\Temp\044962                             PAGE   18

     930                    .dwattr $C$DW$46, DW_AT_location[DW_OP_reg8]
     931            
     932            $C$DW$47        .dwtag  DW_TAG_TI_assign_register
     933                    .dwattr $C$DW$47, DW_AT_name("r9")
     934                    .dwattr $C$DW$47, DW_AT_location[DW_OP_reg9]
     935            
     936            $C$DW$48        .dwtag  DW_TAG_TI_assign_register
     937                    .dwattr $C$DW$48, DW_AT_name("r10")
     938                    .dwattr $C$DW$48, DW_AT_location[DW_OP_reg10]
     939            
     940            $C$DW$49        .dwtag  DW_TAG_TI_assign_register
     941                    .dwattr $C$DW$49, DW_AT_name("r11")
     942                    .dwattr $C$DW$49, DW_AT_location[DW_OP_reg11]
     943            
     944            $C$DW$50        .dwtag  DW_TAG_TI_assign_register
     945                    .dwattr $C$DW$50, DW_AT_name("r12")
     946                    .dwattr $C$DW$50, DW_AT_location[DW_OP_reg12]
     947            
     948            $C$DW$51        .dwtag  DW_TAG_TI_assign_register
     949                    .dwattr $C$DW$51, DW_AT_name("r13")
     950                    .dwattr $C$DW$51, DW_AT_location[DW_OP_reg13]
     951            
     952            $C$DW$52        .dwtag  DW_TAG_TI_assign_register
     953                    .dwattr $C$DW$52, DW_AT_name("r14")
     954                    .dwattr $C$DW$52, DW_AT_location[DW_OP_reg14]
     955            
     956            $C$DW$53        .dwtag  DW_TAG_TI_assign_register
     957                    .dwattr $C$DW$53, DW_AT_name("r15")
     958                    .dwattr $C$DW$53, DW_AT_location[DW_OP_reg15]
     959            
     960            $C$DW$54        .dwtag  DW_TAG_TI_assign_register
     961                    .dwattr $C$DW$54, DW_AT_name("CIE_RETA")
     962                    .dwattr $C$DW$54, DW_AT_location[DW_OP_reg16]
     963            
     964                    .dwendtag $C$DW$CU
     965            

No Assembly Errors, No Assembly Warnings
