MSP430 Assembler PC v15.12.3 Mon Oct 17 14:33:04 2016

Tools Copyright (c) 2003-2015 Texas Instruments Incorporated
C:\Users\madis\AppData\Local\Temp\044362                             PAGE    1

       1            ;******************************************************************************
       2            ;* MSP430 C/C++ Codegen                                       PC v15.12.3.LTS *
       3            ;* Date/Time created: Mon Oct 17 14:33:04 2016                                *
       4            ;******************************************************************************
       5                    .compiler_opts --abi=eabi --diag_wrap=off --hll_source=on --mem_model:code=large --mem_model:d
       6            
       7            $C$DW$CU        .dwtag  DW_TAG_compile_unit
       8                    .dwattr $C$DW$CU, DW_AT_name("../MSP430F5xx_6xx/flashctl.c")
       9                    .dwattr $C$DW$CU, DW_AT_producer("TI MSP430 C/C++ Codegen PC v15.12.3.LTS Copyright (c) 2003-2
      10                    .dwattr $C$DW$CU, DW_AT_TI_version(0x01)
      11                    .dwattr $C$DW$CU, DW_AT_comp_dir("D:\CodeComposerProj\CardReader001\src\Debug")
      12            
      13            $C$DW$1 .dwtag  DW_TAG_subprogram
      14                    .dwattr $C$DW$1, DW_AT_name("__bis_SR_register")
      15                    .dwattr $C$DW$1, DW_AT_TI_symbol_name("__bis_SR_register")
      16                    .dwattr $C$DW$1, DW_AT_type(*$C$DW$T$9)
      17                    .dwattr $C$DW$1, DW_AT_declaration
      18                    .dwattr $C$DW$1, DW_AT_external
      19                    .dwattr $C$DW$1, DW_AT_decl_file("D:/ti/ccsv6/tools/compiler/msp430_15.12.3.LTS/include/intrin
      20                    .dwattr $C$DW$1, DW_AT_decl_line(0x39)
      21                    .dwattr $C$DW$1, DW_AT_decl_column(0x10)
      22            $C$DW$2 .dwtag  DW_TAG_formal_parameter
      23                    .dwattr $C$DW$2, DW_AT_type(*$C$DW$T$9)
      24            
      25                    .dwendtag $C$DW$1
      26            
      27            
      28            $C$DW$3 .dwtag  DW_TAG_subprogram
      29                    .dwattr $C$DW$3, DW_AT_name("__get_SR_register")
      30                    .dwattr $C$DW$3, DW_AT_TI_symbol_name("__get_SR_register")
      31                    .dwattr $C$DW$3, DW_AT_type(*$C$DW$T$9)
      32                    .dwattr $C$DW$3, DW_AT_declaration
      33                    .dwattr $C$DW$3, DW_AT_external
      34                    .dwattr $C$DW$3, DW_AT_decl_file("D:/ti/ccsv6/tools/compiler/msp430_15.12.3.LTS/include/intrin
      35                    .dwattr $C$DW$3, DW_AT_decl_line(0x3b)
      36                    .dwattr $C$DW$3, DW_AT_decl_column(0x10)
      37                    .dwendtag $C$DW$3
      38            
      39            
      40            $C$DW$4 .dwtag  DW_TAG_subprogram
      41                    .dwattr $C$DW$4, DW_AT_name("__disable_interrupt")
      42                    .dwattr $C$DW$4, DW_AT_TI_symbol_name("__disable_interrupt")
      43                    .dwattr $C$DW$4, DW_AT_declaration
      44                    .dwattr $C$DW$4, DW_AT_external
      45                    .dwattr $C$DW$4, DW_AT_decl_file("D:/ti/ccsv6/tools/compiler/msp430_15.12.3.LTS/include/intrin
      46                    .dwattr $C$DW$4, DW_AT_decl_line(0x51)
      47                    .dwattr $C$DW$4, DW_AT_decl_column(0x12)
      48                    .dwendtag $C$DW$4
      49            
      50            ;       D:\ti\ccsv6\tools\compiler\msp430_15.12.3.LTS\bin\opt430.exe D:/CodeComposerProj/CardReader001
      51 000000               .sect   ".text:FlashCtl_eraseSegment"
      52                    .clink
      53                    .global FlashCtl_eraseSegment
      54            
      55            $C$DW$5 .dwtag  DW_TAG_subprogram
MSP430 Assembler PC v15.12.3 Mon Oct 17 14:33:04 2016

Tools Copyright (c) 2003-2015 Texas Instruments Incorporated
C:\Users\madis\AppData\Local\Temp\044362                             PAGE    2

      56                    .dwattr $C$DW$5, DW_AT_name("FlashCtl_eraseSegment")
      57                    .dwattr $C$DW$5, DW_AT_low_pc(FlashCtl_eraseSegment)
      58                    .dwattr $C$DW$5, DW_AT_high_pc(0x00)
      59                    .dwattr $C$DW$5, DW_AT_TI_symbol_name("FlashCtl_eraseSegment")
      60                    .dwattr $C$DW$5, DW_AT_external
      61                    .dwattr $C$DW$5, DW_AT_TI_begin_file("../MSP430F5xx_6xx/flashctl.c")
      62                    .dwattr $C$DW$5, DW_AT_TI_begin_line(0x34)
      63                    .dwattr $C$DW$5, DW_AT_TI_begin_column(0x06)
      64                    .dwattr $C$DW$5, DW_AT_decl_file("../MSP430F5xx_6xx/flashctl.c")
      65                    .dwattr $C$DW$5, DW_AT_decl_line(0x34)
      66                    .dwattr $C$DW$5, DW_AT_decl_column(0x06)
      67                    .dwattr $C$DW$5, DW_AT_TI_max_frame_size(0x04)
      68                    .dwpsn  file "../MSP430F5xx_6xx/flashctl.c",line 52,column 47,is_stmt,address FlashCtl_eraseSe
      69            
      70                    .dwfde $C$DW$CIE, FlashCtl_eraseSegment
      71            $C$DW$6 .dwtag  DW_TAG_formal_parameter
      72                    .dwattr $C$DW$6, DW_AT_name("flash_ptr")
      73                    .dwattr $C$DW$6, DW_AT_TI_symbol_name("flash_ptr")
      74                    .dwattr $C$DW$6, DW_AT_type(*$C$DW$T$21)
      75                    .dwattr $C$DW$6, DW_AT_location[DW_OP_reg12]
      76            
      77            
      78            ;*****************************************************************************
      79            ;* FUNCTION NAME: FlashCtl_eraseSegment                                      *
      80            ;*                                                                           *
      81            ;*   Regs Modified     : SP,SR                                               *
      82            ;*   Regs Used         : SP,SR,r12                                           *
      83            ;*   Local Frame Size  : 0 Args + 0 Auto + 0 Save = 0 byte                   *
      84            ;*****************************************************************************
      85 000000       FlashCtl_eraseSegment:
      86            ;* --------------------------------------------------------------------------*
      87                    .dwcfi  cfa_offset, 4
      88                    .dwcfi  save_reg_to_mem, 16, -4
      89            ;* r12   assigned to flash_ptr
      90            $C$DW$7 .dwtag  DW_TAG_variable
      91                    .dwattr $C$DW$7, DW_AT_name("flash_ptr")
      92                    .dwattr $C$DW$7, DW_AT_TI_symbol_name("flash_ptr")
      93                    .dwattr $C$DW$7, DW_AT_type(*$C$DW$T$21)
      94                    .dwattr $C$DW$7, DW_AT_location[DW_OP_reg12]
      95            
      96                    .dwpsn  file "../MSP430F5xx_6xx/flashctl.c",line 54,column 5,is_stmt,isa 0
      97 000000 40B2          MOV.W     #42240,&0x144         ; [] |54| 
         000002 A500 
         000004 0144 
      98                    .dwpsn  file "../MSP430F5xx_6xx/flashctl.c",line 57,column 5,is_stmt,isa 0
      99 000006 40B2          MOV.W     #42242,&0x140         ; [] |57| 
         000008 A502 
         00000a 0140 
     100                    .dwpsn  file "../MSP430F5xx_6xx/flashctl.c",line 60,column 5,is_stmt,isa 0
     101 00000c 43CC          MOV.B     #0,0(r12)             ; [] |60| 
         00000e 0000 
     102            ;* --------------------------------------------------------------------------*
     103            ;*   BEGIN LOOP $C$L1
     104            ;*
     105            ;*   Loop source line                : 63
MSP430 Assembler PC v15.12.3 Mon Oct 17 14:33:04 2016

Tools Copyright (c) 2003-2015 Texas Instruments Incorporated
C:\Users\madis\AppData\Local\Temp\044362                             PAGE    3

     106            ;*   Loop closing brace source line  : 66
     107            ;*   Known Minimum Trip Count        : 1
     108            ;*   Known Maximum Trip Count        : 4294967295
     109            ;*   Known Max Trip Count Factor     : 1
     110            ;* --------------------------------------------------------------------------*
     111 000010       $C$L1:    
     112                    .dwpsn  file "../MSP430F5xx_6xx/flashctl.c",line 63,column 5,is_stmt,isa 0
     113 000010 B3D2          BIT.B     #1,&0x144             ; [] |63| 
         000012 0144 
     114 000014 23FD          JNE       $C$L1                 ; [] |63| 
     115                                                      ; [] |63| 
     116            ;* --------------------------------------------------------------------------*
     117                    .dwpsn  file "../MSP430F5xx_6xx/flashctl.c",line 69,column 5,is_stmt,isa 0
     118 000016 40B2          MOV.W     #42240,&0x140         ; [] |69| 
         000018 A500 
         00001a 0140 
     119                    .dwpsn  file "../MSP430F5xx_6xx/flashctl.c",line 72,column 5,is_stmt,isa 0
     120 00001c 40B2          MOV.W     #42256,&0x144         ; [] |72| 
         00001e A510 
         000020 0144 
     121                    .dwpsn  file "../MSP430F5xx_6xx/flashctl.c",line 73,column 1,is_stmt,isa 0
     122            $C$DW$8 .dwtag  DW_TAG_TI_branch
     123                    .dwattr $C$DW$8, DW_AT_low_pc(0x00)
     124                    .dwattr $C$DW$8, DW_AT_TI_return
     125            
     126 000022 0110          RETA      ; [] 
     127                    ; [] 
     128                    .dwattr $C$DW$5, DW_AT_TI_end_file("../MSP430F5xx_6xx/flashctl.c")
     129                    .dwattr $C$DW$5, DW_AT_TI_end_line(0x49)
     130                    .dwattr $C$DW$5, DW_AT_TI_end_column(0x01)
     131                    .dwendentry
     132                    .dwendtag $C$DW$5
     133            
     134 000000               .sect   ".text:FlashCtl_eraseBank"
     135                    .clink
     136                    .global FlashCtl_eraseBank
     137            
     138            $C$DW$9 .dwtag  DW_TAG_subprogram
     139                    .dwattr $C$DW$9, DW_AT_name("FlashCtl_eraseBank")
     140                    .dwattr $C$DW$9, DW_AT_low_pc(FlashCtl_eraseBank)
     141                    .dwattr $C$DW$9, DW_AT_high_pc(0x00)
     142                    .dwattr $C$DW$9, DW_AT_TI_symbol_name("FlashCtl_eraseBank")
     143                    .dwattr $C$DW$9, DW_AT_external
     144                    .dwattr $C$DW$9, DW_AT_TI_begin_file("../MSP430F5xx_6xx/flashctl.c")
     145                    .dwattr $C$DW$9, DW_AT_TI_begin_line(0x4b)
     146                    .dwattr $C$DW$9, DW_AT_TI_begin_column(0x06)
     147                    .dwattr $C$DW$9, DW_AT_decl_file("../MSP430F5xx_6xx/flashctl.c")
     148                    .dwattr $C$DW$9, DW_AT_decl_line(0x4b)
     149                    .dwattr $C$DW$9, DW_AT_decl_column(0x06)
     150                    .dwattr $C$DW$9, DW_AT_TI_max_frame_size(0x04)
     151                    .dwpsn  file "../MSP430F5xx_6xx/flashctl.c",line 75,column 44,is_stmt,address FlashCtl_eraseBa
     152            
     153                    .dwfde $C$DW$CIE, FlashCtl_eraseBank
     154            $C$DW$10        .dwtag  DW_TAG_formal_parameter
     155                    .dwattr $C$DW$10, DW_AT_name("flash_ptr")
MSP430 Assembler PC v15.12.3 Mon Oct 17 14:33:04 2016

Tools Copyright (c) 2003-2015 Texas Instruments Incorporated
C:\Users\madis\AppData\Local\Temp\044362                             PAGE    4

     156                    .dwattr $C$DW$10, DW_AT_TI_symbol_name("flash_ptr")
     157                    .dwattr $C$DW$10, DW_AT_type(*$C$DW$T$21)
     158                    .dwattr $C$DW$10, DW_AT_location[DW_OP_reg12]
     159            
     160            
     161            ;*****************************************************************************
     162            ;* FUNCTION NAME: FlashCtl_eraseBank                                         *
     163            ;*                                                                           *
     164            ;*   Regs Modified     : SP,SR                                               *
     165            ;*   Regs Used         : SP,SR,r12                                           *
     166            ;*   Local Frame Size  : 0 Args + 0 Auto + 0 Save = 0 byte                   *
     167            ;*****************************************************************************
     168 000000       FlashCtl_eraseBank:
     169            ;* --------------------------------------------------------------------------*
     170                    .dwcfi  cfa_offset, 4
     171                    .dwcfi  save_reg_to_mem, 16, -4
     172            ;* r12   assigned to flash_ptr
     173            $C$DW$11        .dwtag  DW_TAG_variable
     174                    .dwattr $C$DW$11, DW_AT_name("flash_ptr")
     175                    .dwattr $C$DW$11, DW_AT_TI_symbol_name("flash_ptr")
     176                    .dwattr $C$DW$11, DW_AT_type(*$C$DW$T$21)
     177                    .dwattr $C$DW$11, DW_AT_location[DW_OP_reg12]
     178            
     179                    .dwpsn  file "../MSP430F5xx_6xx/flashctl.c",line 77,column 5,is_stmt,isa 0
     180 000000 40B2          MOV.W     #42240,&0x144         ; [] |77| 
         000002 A500 
         000004 0144 
     181            ;* --------------------------------------------------------------------------*
     182            ;*   BEGIN LOOP $C$L2
     183            ;*
     184            ;*   Loop source line                : 79
     185            ;*   Loop closing brace source line  : 82
     186            ;*   Known Minimum Trip Count        : 1
     187            ;*   Known Maximum Trip Count        : 4294967295
     188            ;*   Known Max Trip Count Factor     : 1
     189            ;* --------------------------------------------------------------------------*
     190 000006       $C$L2:    
     191                    .dwpsn  file "../MSP430F5xx_6xx/flashctl.c",line 79,column 5,is_stmt,isa 0
     192 000006 B3D2          BIT.B     #1,&0x144             ; [] |79| 
         000008 0144 
     193 00000a 23FD          JNE       $C$L2                 ; [] |79| 
     194                                                      ; [] |79| 
     195            ;* --------------------------------------------------------------------------*
     196                    .dwpsn  file "../MSP430F5xx_6xx/flashctl.c",line 85,column 5,is_stmt,isa 0
     197 00000c 40B2          MOV.W     #42244,&0x140         ; [] |85| 
         00000e A504 
         000010 0140 
     198                    .dwpsn  file "../MSP430F5xx_6xx/flashctl.c",line 88,column 5,is_stmt,isa 0
     199 000012 43CC          MOV.B     #0,0(r12)             ; [] |88| 
         000014 0000 
     200            ;* --------------------------------------------------------------------------*
     201            ;*   BEGIN LOOP $C$L3
     202            ;*
     203            ;*   Loop source line                : 91
     204            ;*   Loop closing brace source line  : 94
MSP430 Assembler PC v15.12.3 Mon Oct 17 14:33:04 2016

Tools Copyright (c) 2003-2015 Texas Instruments Incorporated
C:\Users\madis\AppData\Local\Temp\044362                             PAGE    5

     205            ;*   Known Minimum Trip Count        : 1
     206            ;*   Known Maximum Trip Count        : 4294967295
     207            ;*   Known Max Trip Count Factor     : 1
     208            ;* --------------------------------------------------------------------------*
     209 000016       $C$L3:    
     210                    .dwpsn  file "../MSP430F5xx_6xx/flashctl.c",line 91,column 5,is_stmt,isa 0
     211 000016 B3D2          BIT.B     #1,&0x144             ; [] |91| 
         000018 0144 
     212 00001a 23FD          JNE       $C$L3                 ; [] |91| 
     213                                                      ; [] |91| 
     214            ;* --------------------------------------------------------------------------*
     215                    .dwpsn  file "../MSP430F5xx_6xx/flashctl.c",line 97,column 5,is_stmt,isa 0
     216 00001c 40B2          MOV.W     #42240,&0x140         ; [] |97| 
         00001e A500 
         000020 0140 
     217                    .dwpsn  file "../MSP430F5xx_6xx/flashctl.c",line 100,column 5,is_stmt,isa 0
     218 000022 40B2          MOV.W     #42256,&0x144         ; [] |100| 
         000024 A510 
         000026 0144 
     219                    .dwpsn  file "../MSP430F5xx_6xx/flashctl.c",line 101,column 1,is_stmt,isa 0
     220            $C$DW$12        .dwtag  DW_TAG_TI_branch
     221                    .dwattr $C$DW$12, DW_AT_low_pc(0x00)
     222                    .dwattr $C$DW$12, DW_AT_TI_return
     223            
     224 000028 0110          RETA      ; [] 
     225                    ; [] 
     226                    .dwattr $C$DW$9, DW_AT_TI_end_file("../MSP430F5xx_6xx/flashctl.c")
     227                    .dwattr $C$DW$9, DW_AT_TI_end_line(0x65)
     228                    .dwattr $C$DW$9, DW_AT_TI_end_column(0x01)
     229                    .dwendentry
     230                    .dwendtag $C$DW$9
     231            
     232 000000               .sect   ".text:FlashCtl_performMassErase"
     233                    .clink
     234                    .global FlashCtl_performMassErase
     235            
     236            $C$DW$13        .dwtag  DW_TAG_subprogram
     237                    .dwattr $C$DW$13, DW_AT_name("FlashCtl_performMassErase")
     238                    .dwattr $C$DW$13, DW_AT_low_pc(FlashCtl_performMassErase)
     239                    .dwattr $C$DW$13, DW_AT_high_pc(0x00)
     240                    .dwattr $C$DW$13, DW_AT_TI_symbol_name("FlashCtl_performMassErase")
     241                    .dwattr $C$DW$13, DW_AT_external
     242                    .dwattr $C$DW$13, DW_AT_TI_begin_file("../MSP430F5xx_6xx/flashctl.c")
     243                    .dwattr $C$DW$13, DW_AT_TI_begin_line(0x67)
     244                    .dwattr $C$DW$13, DW_AT_TI_begin_column(0x06)
     245                    .dwattr $C$DW$13, DW_AT_decl_file("../MSP430F5xx_6xx/flashctl.c")
     246                    .dwattr $C$DW$13, DW_AT_decl_line(0x67)
     247                    .dwattr $C$DW$13, DW_AT_decl_column(0x06)
     248                    .dwattr $C$DW$13, DW_AT_TI_max_frame_size(0x04)
     249                    .dwpsn  file "../MSP430F5xx_6xx/flashctl.c",line 103,column 51,is_stmt,address FlashCtl_perfor
     250            
     251                    .dwfde $C$DW$CIE, FlashCtl_performMassErase
     252            $C$DW$14        .dwtag  DW_TAG_formal_parameter
     253                    .dwattr $C$DW$14, DW_AT_name("flash_ptr")
     254                    .dwattr $C$DW$14, DW_AT_TI_symbol_name("flash_ptr")
MSP430 Assembler PC v15.12.3 Mon Oct 17 14:33:04 2016

Tools Copyright (c) 2003-2015 Texas Instruments Incorporated
C:\Users\madis\AppData\Local\Temp\044362                             PAGE    6

     255                    .dwattr $C$DW$14, DW_AT_type(*$C$DW$T$21)
     256                    .dwattr $C$DW$14, DW_AT_location[DW_OP_reg12]
     257            
     258            
     259            ;*****************************************************************************
     260            ;* FUNCTION NAME: FlashCtl_performMassErase                                  *
     261            ;*                                                                           *
     262            ;*   Regs Modified     : SP,SR                                               *
     263            ;*   Regs Used         : SP,SR,r12                                           *
     264            ;*   Local Frame Size  : 0 Args + 0 Auto + 0 Save = 0 byte                   *
     265            ;*****************************************************************************
     266 000000       FlashCtl_performMassErase:
     267            ;* --------------------------------------------------------------------------*
     268                    .dwcfi  cfa_offset, 4
     269                    .dwcfi  save_reg_to_mem, 16, -4
     270            ;* r12   assigned to flash_ptr
     271            $C$DW$15        .dwtag  DW_TAG_variable
     272                    .dwattr $C$DW$15, DW_AT_name("flash_ptr")
     273                    .dwattr $C$DW$15, DW_AT_TI_symbol_name("flash_ptr")
     274                    .dwattr $C$DW$15, DW_AT_type(*$C$DW$T$21)
     275                    .dwattr $C$DW$15, DW_AT_location[DW_OP_reg12]
     276            
     277                    .dwpsn  file "../MSP430F5xx_6xx/flashctl.c",line 105,column 5,is_stmt,isa 0
     278 000000 40B2          MOV.W     #42240,&0x144         ; [] |105| 
         000002 A500 
         000004 0144 
     279            ;* --------------------------------------------------------------------------*
     280            ;*   BEGIN LOOP $C$L4
     281            ;*
     282            ;*   Loop source line                : 107
     283            ;*   Loop closing brace source line  : 110
     284            ;*   Known Minimum Trip Count        : 1
     285            ;*   Known Maximum Trip Count        : 4294967295
     286            ;*   Known Max Trip Count Factor     : 1
     287            ;* --------------------------------------------------------------------------*
     288 000006       $C$L4:    
     289                    .dwpsn  file "../MSP430F5xx_6xx/flashctl.c",line 107,column 5,is_stmt,isa 0
     290 000006 B3D2          BIT.B     #1,&0x144             ; [] |107| 
         000008 0144 
     291 00000a 23FD          JNE       $C$L4                 ; [] |107| 
     292                                                      ; [] |107| 
     293            ;* --------------------------------------------------------------------------*
     294                    .dwpsn  file "../MSP430F5xx_6xx/flashctl.c",line 113,column 5,is_stmt,isa 0
     295 00000c 40B2          MOV.W     #42246,&0x140         ; [] |113| 
         00000e A506 
         000010 0140 
     296                    .dwpsn  file "../MSP430F5xx_6xx/flashctl.c",line 116,column 5,is_stmt,isa 0
     297 000012 43CC          MOV.B     #0,0(r12)             ; [] |116| 
         000014 0000 
     298            ;* --------------------------------------------------------------------------*
     299            ;*   BEGIN LOOP $C$L5
     300            ;*
     301            ;*   Loop source line                : 119
     302            ;*   Loop closing brace source line  : 122
     303            ;*   Known Minimum Trip Count        : 1
MSP430 Assembler PC v15.12.3 Mon Oct 17 14:33:04 2016

Tools Copyright (c) 2003-2015 Texas Instruments Incorporated
C:\Users\madis\AppData\Local\Temp\044362                             PAGE    7

     304            ;*   Known Maximum Trip Count        : 4294967295
     305            ;*   Known Max Trip Count Factor     : 1
     306            ;* --------------------------------------------------------------------------*
     307 000016       $C$L5:    
     308                    .dwpsn  file "../MSP430F5xx_6xx/flashctl.c",line 119,column 5,is_stmt,isa 0
     309 000016 B3D2          BIT.B     #1,&0x144             ; [] |119| 
         000018 0144 
     310 00001a 23FD          JNE       $C$L5                 ; [] |119| 
     311                                                      ; [] |119| 
     312            ;* --------------------------------------------------------------------------*
     313                    .dwpsn  file "../MSP430F5xx_6xx/flashctl.c",line 125,column 5,is_stmt,isa 0
     314 00001c 40B2          MOV.W     #42240,&0x140         ; [] |125| 
         00001e A500 
         000020 0140 
     315                    .dwpsn  file "../MSP430F5xx_6xx/flashctl.c",line 128,column 5,is_stmt,isa 0
     316 000022 40B2          MOV.W     #42256,&0x144         ; [] |128| 
         000024 A510 
         000026 0144 
     317                    .dwpsn  file "../MSP430F5xx_6xx/flashctl.c",line 129,column 1,is_stmt,isa 0
     318            $C$DW$16        .dwtag  DW_TAG_TI_branch
     319                    .dwattr $C$DW$16, DW_AT_low_pc(0x00)
     320                    .dwattr $C$DW$16, DW_AT_TI_return
     321            
     322 000028 0110          RETA      ; [] 
     323                    ; [] 
     324                    .dwattr $C$DW$13, DW_AT_TI_end_file("../MSP430F5xx_6xx/flashctl.c")
     325                    .dwattr $C$DW$13, DW_AT_TI_end_line(0x81)
     326                    .dwattr $C$DW$13, DW_AT_TI_end_column(0x01)
     327                    .dwendentry
     328                    .dwendtag $C$DW$13
     329            
     330 000000               .sect   ".text:FlashCtl_performEraseCheck"
     331                    .clink
     332                    .global FlashCtl_performEraseCheck
     333            
     334            $C$DW$17        .dwtag  DW_TAG_subprogram
     335                    .dwattr $C$DW$17, DW_AT_name("FlashCtl_performEraseCheck")
     336                    .dwattr $C$DW$17, DW_AT_low_pc(FlashCtl_performEraseCheck)
     337                    .dwattr $C$DW$17, DW_AT_high_pc(0x00)
     338                    .dwattr $C$DW$17, DW_AT_TI_symbol_name("FlashCtl_performEraseCheck")
     339                    .dwattr $C$DW$17, DW_AT_external
     340                    .dwattr $C$DW$17, DW_AT_type(*$C$DW$T$71)
     341                    .dwattr $C$DW$17, DW_AT_TI_begin_file("../MSP430F5xx_6xx/flashctl.c")
     342                    .dwattr $C$DW$17, DW_AT_TI_begin_line(0x83)
     343                    .dwattr $C$DW$17, DW_AT_TI_begin_column(0x06)
     344                    .dwattr $C$DW$17, DW_AT_decl_file("../MSP430F5xx_6xx/flashctl.c")
     345                    .dwattr $C$DW$17, DW_AT_decl_line(0x83)
     346                    .dwattr $C$DW$17, DW_AT_decl_column(0x06)
     347                    .dwattr $C$DW$17, DW_AT_TI_max_frame_size(0x04)
     348                    .dwpsn  file "../MSP430F5xx_6xx/flashctl.c",line 133,column 1,is_stmt,address FlashCtl_perform
     349            
     350                    .dwfde $C$DW$CIE, FlashCtl_performEraseCheck
     351            $C$DW$18        .dwtag  DW_TAG_formal_parameter
     352                    .dwattr $C$DW$18, DW_AT_name("flash_ptr")
     353                    .dwattr $C$DW$18, DW_AT_TI_symbol_name("flash_ptr")
MSP430 Assembler PC v15.12.3 Mon Oct 17 14:33:04 2016

Tools Copyright (c) 2003-2015 Texas Instruments Incorporated
C:\Users\madis\AppData\Local\Temp\044362                             PAGE    8

     354                    .dwattr $C$DW$18, DW_AT_type(*$C$DW$T$21)
     355                    .dwattr $C$DW$18, DW_AT_location[DW_OP_reg12]
     356            
     357            $C$DW$19        .dwtag  DW_TAG_formal_parameter
     358                    .dwattr $C$DW$19, DW_AT_name("numberOfBytes")
     359                    .dwattr $C$DW$19, DW_AT_TI_symbol_name("numberOfBytes")
     360                    .dwattr $C$DW$19, DW_AT_type(*$C$DW$T$23)
     361                    .dwattr $C$DW$19, DW_AT_location[DW_OP_reg13]
     362            
     363            
     364            ;*****************************************************************************
     365            ;* FUNCTION NAME: FlashCtl_performEraseCheck                                 *
     366            ;*                                                                           *
     367            ;*   Regs Modified     : SP,SR,r11,r12,r14,r15                               *
     368            ;*   Regs Used         : SP,SR,r11,r12,r13,r14,r15                           *
     369            ;*   Local Frame Size  : 0 Args + 0 Auto + 0 Save = 0 byte                   *
     370            ;*****************************************************************************
     371 000000       FlashCtl_performEraseCheck:
     372            ;* --------------------------------------------------------------------------*
     373                    .dwcfi  cfa_offset, 4
     374                    .dwcfi  save_reg_to_mem, 16, -4
     375            ;* r12   assigned to flash_ptr
     376            $C$DW$20        .dwtag  DW_TAG_variable
     377                    .dwattr $C$DW$20, DW_AT_name("flash_ptr")
     378                    .dwattr $C$DW$20, DW_AT_TI_symbol_name("flash_ptr")
     379                    .dwattr $C$DW$20, DW_AT_type(*$C$DW$T$21)
     380                    .dwattr $C$DW$20, DW_AT_location[DW_OP_reg12]
     381            
     382            ;* r13   assigned to numberOfBytes
     383            $C$DW$21        .dwtag  DW_TAG_variable
     384                    .dwattr $C$DW$21, DW_AT_name("numberOfBytes")
     385                    .dwattr $C$DW$21, DW_AT_TI_symbol_name("numberOfBytes")
     386                    .dwattr $C$DW$21, DW_AT_type(*$C$DW$T$23)
     387                    .dwattr $C$DW$21, DW_AT_location[DW_OP_reg13]
     388            
     389            ;* r14   assigned to i
     390            $C$DW$22        .dwtag  DW_TAG_variable
     391                    .dwattr $C$DW$22, DW_AT_name("i")
     392                    .dwattr $C$DW$22, DW_AT_TI_symbol_name("i")
     393                    .dwattr $C$DW$22, DW_AT_type(*$C$DW$T$23)
     394                    .dwattr $C$DW$22, DW_AT_location[DW_OP_reg14]
     395            
     396                    .dwpsn  file "../MSP430F5xx_6xx/flashctl.c",line 136,column 16,is_stmt,isa 0
     397 000000 430E          MOV.W     #0,r14                ; [] |136| 
     398 000002 9D0E          CMP.W     r13,r14               ; [] |136| 
     399 000004 2C0D          JHS       $C$L8                 ; [] |136| 
     400                                                      ; [] |136| 
     401            ;* --------------------------------------------------------------------------*
     402            ;*   BEGIN LOOP $C$L6
     403            ;*
     404            ;*   Loop source line                : 136
     405            ;*   Loop closing brace source line  : 143
     406            ;*   Known Minimum Trip Count        : 1
     407            ;*   Known Maximum Trip Count        : 4294967295
     408            ;*   Known Max Trip Count Factor     : 1
MSP430 Assembler PC v15.12.3 Mon Oct 17 14:33:04 2016

Tools Copyright (c) 2003-2015 Texas Instruments Incorporated
C:\Users\madis\AppData\Local\Temp\044362                             PAGE    9

     409            ;* --------------------------------------------------------------------------*
     410 000006       $C$L6:    
     411                    .dwpsn  file "../MSP430F5xx_6xx/flashctl.c",line 139,column 9,is_stmt,isa 0
     412 000006 0ECF          MOVA      r14,r15               ; [] |139| 
     413 000008 0E4F          RLAM.A    #4,r15                ; [] |139| 
     414 00000a 0D4F          RRAM.A    #4,r15                ; [] |139| 
     415 00000c 0CEF          ADDA      r12,r15               ; [] |139| 
     416 00000e 403B          MOV.W     #255,r11              ; [] |139| 
         000010 00FF 
     417 000012 9F6B          CMP.B     @r15,r11              ; [] |139| 
     418 000014 2402          JEQ       $C$L7                 ; [] |139| 
     419                                                      ; [] |139| 
     420            ;* --------------------------------------------------------------------------*
     421                    .dwpsn  file "../MSP430F5xx_6xx/flashctl.c",line 141,column 13,is_stmt,isa 0
     422 000016 434C          MOV.B     #0,r12                ; [] |141| 
     423 000018 3C04          JMP       $C$L9                 ; [] |141| 
     424                                                      ; [] |141| 
     425            ;* --------------------------------------------------------------------------*
     426 00001a       $C$L7:    
     427                    .dwpsn  file "../MSP430F5xx_6xx/flashctl.c",line 136,column 16,is_stmt,isa 0
     428 00001a 531E          ADD.W     #1,r14                ; [] |136| 
     429 00001c 9D0E          CMP.W     r13,r14               ; [] |136| 
     430 00001e 2BF3          JLO       $C$L6                 ; [] |136| 
     431                                                      ; [] |136| 
     432            ;* --------------------------------------------------------------------------*
     433 000020       $C$L8:    
     434                    .dwpsn  file "../MSP430F5xx_6xx/flashctl.c",line 144,column 5,is_stmt,isa 0
     435 000020 435C          MOV.B     #1,r12                ; [] |144| 
     436            ;* --------------------------------------------------------------------------*
     437 000022       $C$L9:    
     438                    .dwpsn  file "../MSP430F5xx_6xx/flashctl.c",line 145,column 1,is_stmt,isa 0
     439            $C$DW$23        .dwtag  DW_TAG_TI_branch
     440                    .dwattr $C$DW$23, DW_AT_low_pc(0x00)
     441                    .dwattr $C$DW$23, DW_AT_TI_return
     442            
     443 000022 0110          RETA      ; [] 
     444                    ; [] 
     445                    .dwattr $C$DW$17, DW_AT_TI_end_file("../MSP430F5xx_6xx/flashctl.c")
     446                    .dwattr $C$DW$17, DW_AT_TI_end_line(0x91)
     447                    .dwattr $C$DW$17, DW_AT_TI_end_column(0x01)
     448                    .dwendentry
     449                    .dwendtag $C$DW$17
     450            
     451 000000               .sect   ".text:FlashCtl_write8"
     452                    .clink
     453                    .global FlashCtl_write8
     454            
     455            $C$DW$24        .dwtag  DW_TAG_subprogram
     456                    .dwattr $C$DW$24, DW_AT_name("FlashCtl_write8")
     457                    .dwattr $C$DW$24, DW_AT_low_pc(FlashCtl_write8)
     458                    .dwattr $C$DW$24, DW_AT_high_pc(0x00)
     459                    .dwattr $C$DW$24, DW_AT_TI_symbol_name("FlashCtl_write8")
     460                    .dwattr $C$DW$24, DW_AT_external
     461                    .dwattr $C$DW$24, DW_AT_TI_begin_file("../MSP430F5xx_6xx/flashctl.c")
     462                    .dwattr $C$DW$24, DW_AT_TI_begin_line(0x93)
MSP430 Assembler PC v15.12.3 Mon Oct 17 14:33:04 2016

Tools Copyright (c) 2003-2015 Texas Instruments Incorporated
C:\Users\madis\AppData\Local\Temp\044362                             PAGE   10

     463                    .dwattr $C$DW$24, DW_AT_TI_begin_column(0x06)
     464                    .dwattr $C$DW$24, DW_AT_decl_file("../MSP430F5xx_6xx/flashctl.c")
     465                    .dwattr $C$DW$24, DW_AT_decl_line(0x93)
     466                    .dwattr $C$DW$24, DW_AT_decl_column(0x06)
     467                    .dwattr $C$DW$24, DW_AT_TI_max_frame_size(0x04)
     468                    .dwpsn  file "../MSP430F5xx_6xx/flashctl.c",line 150,column 1,is_stmt,address FlashCtl_write8,
     469            
     470                    .dwfde $C$DW$CIE, FlashCtl_write8
     471            $C$DW$25        .dwtag  DW_TAG_formal_parameter
     472                    .dwattr $C$DW$25, DW_AT_name("data_ptr")
     473                    .dwattr $C$DW$25, DW_AT_TI_symbol_name("data_ptr")
     474                    .dwattr $C$DW$25, DW_AT_type(*$C$DW$T$21)
     475                    .dwattr $C$DW$25, DW_AT_location[DW_OP_reg12]
     476            
     477            $C$DW$26        .dwtag  DW_TAG_formal_parameter
     478                    .dwattr $C$DW$26, DW_AT_name("flash_ptr")
     479                    .dwattr $C$DW$26, DW_AT_TI_symbol_name("flash_ptr")
     480                    .dwattr $C$DW$26, DW_AT_type(*$C$DW$T$21)
     481                    .dwattr $C$DW$26, DW_AT_location[DW_OP_reg13]
     482            
     483            $C$DW$27        .dwtag  DW_TAG_formal_parameter
     484                    .dwattr $C$DW$27, DW_AT_name("count")
     485                    .dwattr $C$DW$27, DW_AT_TI_symbol_name("count")
     486                    .dwattr $C$DW$27, DW_AT_type(*$C$DW$T$23)
     487                    .dwattr $C$DW$27, DW_AT_location[DW_OP_reg14]
     488            
     489            
     490            ;*****************************************************************************
     491            ;* FUNCTION NAME: FlashCtl_write8                                            *
     492            ;*                                                                           *
     493            ;*   Regs Modified     : SP,SR,r12,r13,r14                                   *
     494            ;*   Regs Used         : SP,SR,r12,r13,r14                                   *
     495            ;*   Local Frame Size  : 0 Args + 0 Auto + 0 Save = 0 byte                   *
     496            ;*****************************************************************************
     497 000000       FlashCtl_write8:
     498            ;* --------------------------------------------------------------------------*
     499                    .dwcfi  cfa_offset, 4
     500                    .dwcfi  save_reg_to_mem, 16, -4
     501            ;* r12   assigned to data_ptr
     502            $C$DW$28        .dwtag  DW_TAG_variable
     503                    .dwattr $C$DW$28, DW_AT_name("data_ptr")
     504                    .dwattr $C$DW$28, DW_AT_TI_symbol_name("data_ptr")
     505                    .dwattr $C$DW$28, DW_AT_type(*$C$DW$T$21)
     506                    .dwattr $C$DW$28, DW_AT_location[DW_OP_reg12]
     507            
     508            ;* r13   assigned to flash_ptr
     509            $C$DW$29        .dwtag  DW_TAG_variable
     510                    .dwattr $C$DW$29, DW_AT_name("flash_ptr")
     511                    .dwattr $C$DW$29, DW_AT_TI_symbol_name("flash_ptr")
     512                    .dwattr $C$DW$29, DW_AT_type(*$C$DW$T$21)
     513                    .dwattr $C$DW$29, DW_AT_location[DW_OP_reg13]
     514            
     515            ;* r14   assigned to count
     516            $C$DW$30        .dwtag  DW_TAG_variable
     517                    .dwattr $C$DW$30, DW_AT_name("count")
MSP430 Assembler PC v15.12.3 Mon Oct 17 14:33:04 2016

Tools Copyright (c) 2003-2015 Texas Instruments Incorporated
C:\Users\madis\AppData\Local\Temp\044362                             PAGE   11

     518                    .dwattr $C$DW$30, DW_AT_TI_symbol_name("count")
     519                    .dwattr $C$DW$30, DW_AT_type(*$C$DW$T$23)
     520                    .dwattr $C$DW$30, DW_AT_location[DW_OP_reg14]
     521            
     522                    .dwpsn  file "../MSP430F5xx_6xx/flashctl.c",line 152,column 5,is_stmt,isa 0
     523 000000 40B2          MOV.W     #42240,&0x144         ; [] |152| 
         000002 A500 
         000004 0144 
     524                    .dwpsn  file "../MSP430F5xx_6xx/flashctl.c",line 155,column 5,is_stmt,isa 0
     525 000006 40B2          MOV.W     #42304,&0x140         ; [] |155| 
         000008 A540 
         00000a 0140 
     526                    .dwpsn  file "../MSP430F5xx_6xx/flashctl.c",line 157,column 11,is_stmt,isa 0
     527 00000c 930E          TST.W     r14                   ; [] |157| 
     528 00000e 2409          JEQ       $C$L11                ; [] |157| 
     529                                                      ; [] |157| 
     530            ;* --------------------------------------------------------------------------*
     531            ;*   BEGIN LOOP $C$L10
     532            ;*
     533            ;*   Loop source line                : 160
     534            ;*   Loop closing brace source line  : 163
     535            ;*   Known Minimum Trip Count        : 1
     536            ;*   Known Maximum Trip Count        : 4294967295
     537            ;*   Known Max Trip Count Factor     : 1
     538            ;* --------------------------------------------------------------------------*
     539 000010       $C$L10:    
     540                    .dwpsn  file "../MSP430F5xx_6xx/flashctl.c",line 160,column 9,is_stmt,isa 0
     541 000010 B3D2          BIT.B     #1,&0x144             ; [] |160| 
         000012 0144 
     542 000014 23FD          JNE       $C$L10                ; [] |160| 
     543                                                      ; [] |160| 
     544            ;* --------------------------------------------------------------------------*
     545                    .dwpsn  file "../MSP430F5xx_6xx/flashctl.c",line 166,column 9,is_stmt,isa 0
     546 000016 00AD          ADDA      #1,r13                ; [] |166| 
         000018 0001 
     547 00001a 4CFD          MOV.B     @r12+,-1(r13)         ; [] |166| 
         00001c FFFF 
     548                    .dwpsn  file "../MSP430F5xx_6xx/flashctl.c",line 167,column 9,is_stmt,isa 0
     549 00001e 831E          SUB.W     #1,r14                ; [] |167| 
     550 000020 23F7          JNE       $C$L10                ; [] |167| 
     551                                                      ; [] |167| 
     552            ;* --------------------------------------------------------------------------*
     553 000022       $C$L11:    
     554                    .dwpsn  file "../MSP430F5xx_6xx/flashctl.c",line 171,column 5,is_stmt,isa 0
     555 000022 40B2          MOV.W     #42240,&0x140         ; [] |171| 
         000024 A500 
         000026 0140 
     556                    .dwpsn  file "../MSP430F5xx_6xx/flashctl.c",line 174,column 5,is_stmt,isa 0
     557 000028 40B2          MOV.W     #42256,&0x144         ; [] |174| 
         00002a A510 
         00002c 0144 
     558                    .dwpsn  file "../MSP430F5xx_6xx/flashctl.c",line 175,column 1,is_stmt,isa 0
     559            $C$DW$31        .dwtag  DW_TAG_TI_branch
     560                    .dwattr $C$DW$31, DW_AT_low_pc(0x00)
     561                    .dwattr $C$DW$31, DW_AT_TI_return
MSP430 Assembler PC v15.12.3 Mon Oct 17 14:33:04 2016

Tools Copyright (c) 2003-2015 Texas Instruments Incorporated
C:\Users\madis\AppData\Local\Temp\044362                             PAGE   12

     562            
     563 00002e 0110          RETA      ; [] 
     564                    ; [] 
     565                    .dwattr $C$DW$24, DW_AT_TI_end_file("../MSP430F5xx_6xx/flashctl.c")
     566                    .dwattr $C$DW$24, DW_AT_TI_end_line(0xaf)
     567                    .dwattr $C$DW$24, DW_AT_TI_end_column(0x01)
     568                    .dwendentry
     569                    .dwendtag $C$DW$24
     570            
     571 000000               .sect   ".text:FlashCtl_write16"
     572                    .clink
     573                    .global FlashCtl_write16
     574            
     575            $C$DW$32        .dwtag  DW_TAG_subprogram
     576                    .dwattr $C$DW$32, DW_AT_name("FlashCtl_write16")
     577                    .dwattr $C$DW$32, DW_AT_low_pc(FlashCtl_write16)
     578                    .dwattr $C$DW$32, DW_AT_high_pc(0x00)
     579                    .dwattr $C$DW$32, DW_AT_TI_symbol_name("FlashCtl_write16")
     580                    .dwattr $C$DW$32, DW_AT_external
     581                    .dwattr $C$DW$32, DW_AT_TI_begin_file("../MSP430F5xx_6xx/flashctl.c")
     582                    .dwattr $C$DW$32, DW_AT_TI_begin_line(0xb1)
     583                    .dwattr $C$DW$32, DW_AT_TI_begin_column(0x06)
     584                    .dwattr $C$DW$32, DW_AT_decl_file("../MSP430F5xx_6xx/flashctl.c")
     585                    .dwattr $C$DW$32, DW_AT_decl_line(0xb1)
     586                    .dwattr $C$DW$32, DW_AT_decl_column(0x06)
     587                    .dwattr $C$DW$32, DW_AT_TI_max_frame_size(0x04)
     588                    .dwpsn  file "../MSP430F5xx_6xx/flashctl.c",line 180,column 1,is_stmt,address FlashCtl_write16
     589            
     590                    .dwfde $C$DW$CIE, FlashCtl_write16
     591            $C$DW$33        .dwtag  DW_TAG_formal_parameter
     592                    .dwattr $C$DW$33, DW_AT_name("data_ptr")
     593                    .dwattr $C$DW$33, DW_AT_TI_symbol_name("data_ptr")
     594                    .dwattr $C$DW$33, DW_AT_type(*$C$DW$T$25)
     595                    .dwattr $C$DW$33, DW_AT_location[DW_OP_reg12]
     596            
     597            $C$DW$34        .dwtag  DW_TAG_formal_parameter
     598                    .dwattr $C$DW$34, DW_AT_name("flash_ptr")
     599                    .dwattr $C$DW$34, DW_AT_TI_symbol_name("flash_ptr")
     600                    .dwattr $C$DW$34, DW_AT_type(*$C$DW$T$25)
     601                    .dwattr $C$DW$34, DW_AT_location[DW_OP_reg13]
     602            
     603            $C$DW$35        .dwtag  DW_TAG_formal_parameter
     604                    .dwattr $C$DW$35, DW_AT_name("count")
     605                    .dwattr $C$DW$35, DW_AT_TI_symbol_name("count")
     606                    .dwattr $C$DW$35, DW_AT_type(*$C$DW$T$23)
     607                    .dwattr $C$DW$35, DW_AT_location[DW_OP_reg14]
     608            
     609            
     610            ;*****************************************************************************
     611            ;* FUNCTION NAME: FlashCtl_write16                                           *
     612            ;*                                                                           *
     613            ;*   Regs Modified     : SP,SR,r12,r13,r14                                   *
     614            ;*   Regs Used         : SP,SR,r12,r13,r14                                   *
     615            ;*   Local Frame Size  : 0 Args + 0 Auto + 0 Save = 0 byte                   *
     616            ;*****************************************************************************
MSP430 Assembler PC v15.12.3 Mon Oct 17 14:33:04 2016

Tools Copyright (c) 2003-2015 Texas Instruments Incorporated
C:\Users\madis\AppData\Local\Temp\044362                             PAGE   13

     617 000000       FlashCtl_write16:
     618            ;* --------------------------------------------------------------------------*
     619                    .dwcfi  cfa_offset, 4
     620                    .dwcfi  save_reg_to_mem, 16, -4
     621            ;* r12   assigned to data_ptr
     622            $C$DW$36        .dwtag  DW_TAG_variable
     623                    .dwattr $C$DW$36, DW_AT_name("data_ptr")
     624                    .dwattr $C$DW$36, DW_AT_TI_symbol_name("data_ptr")
     625                    .dwattr $C$DW$36, DW_AT_type(*$C$DW$T$25)
     626                    .dwattr $C$DW$36, DW_AT_location[DW_OP_reg12]
     627            
     628            ;* r13   assigned to flash_ptr
     629            $C$DW$37        .dwtag  DW_TAG_variable
     630                    .dwattr $C$DW$37, DW_AT_name("flash_ptr")
     631                    .dwattr $C$DW$37, DW_AT_TI_symbol_name("flash_ptr")
     632                    .dwattr $C$DW$37, DW_AT_type(*$C$DW$T$25)
     633                    .dwattr $C$DW$37, DW_AT_location[DW_OP_reg13]
     634            
     635            ;* r14   assigned to count
     636            $C$DW$38        .dwtag  DW_TAG_variable
     637                    .dwattr $C$DW$38, DW_AT_name("count")
     638                    .dwattr $C$DW$38, DW_AT_TI_symbol_name("count")
     639                    .dwattr $C$DW$38, DW_AT_type(*$C$DW$T$23)
     640                    .dwattr $C$DW$38, DW_AT_location[DW_OP_reg14]
     641            
     642                    .dwpsn  file "../MSP430F5xx_6xx/flashctl.c",line 182,column 5,is_stmt,isa 0
     643 000000 40B2          MOV.W     #42240,&0x144         ; [] |182| 
         000002 A500 
         000004 0144 
     644                    .dwpsn  file "../MSP430F5xx_6xx/flashctl.c",line 185,column 5,is_stmt,isa 0
     645 000006 40B2          MOV.W     #42304,&0x140         ; [] |185| 
         000008 A540 
         00000a 0140 
     646                    .dwpsn  file "../MSP430F5xx_6xx/flashctl.c",line 187,column 11,is_stmt,isa 0
     647 00000c 930E          TST.W     r14                   ; [] |187| 
     648 00000e 2408          JEQ       $C$L13                ; [] |187| 
     649                                                      ; [] |187| 
     650            ;* --------------------------------------------------------------------------*
     651            ;*   BEGIN LOOP $C$L12
     652            ;*
     653            ;*   Loop source line                : 190
     654            ;*   Loop closing brace source line  : 193
     655            ;*   Known Minimum Trip Count        : 1
     656            ;*   Known Maximum Trip Count        : 4294967295
     657            ;*   Known Max Trip Count Factor     : 1
     658            ;* --------------------------------------------------------------------------*
     659 000010       $C$L12:    
     660                    .dwpsn  file "../MSP430F5xx_6xx/flashctl.c",line 190,column 9,is_stmt,isa 0
     661 000010 B3D2          BIT.B     #1,&0x144             ; [] |190| 
         000012 0144 
     662 000014 23FD          JNE       $C$L12                ; [] |190| 
     663                                                      ; [] |190| 
     664            ;* --------------------------------------------------------------------------*
     665                    .dwpsn  file "../MSP430F5xx_6xx/flashctl.c",line 196,column 9,is_stmt,isa 0
     666 000016 03ED          ADDA      #2,r13                ; [] |196| 
MSP430 Assembler PC v15.12.3 Mon Oct 17 14:33:04 2016

Tools Copyright (c) 2003-2015 Texas Instruments Incorporated
C:\Users\madis\AppData\Local\Temp\044362                             PAGE   14

     667 000018 4CBD          MOV.W     @r12+,-2(r13)         ; [] |196| 
         00001a FFFE 
     668                    .dwpsn  file "../MSP430F5xx_6xx/flashctl.c",line 197,column 9,is_stmt,isa 0
     669 00001c 831E          SUB.W     #1,r14                ; [] |197| 
     670 00001e 23F8          JNE       $C$L12                ; [] |197| 
     671                                                      ; [] |197| 
     672            ;* --------------------------------------------------------------------------*
     673 000020       $C$L13:    
     674                    .dwpsn  file "../MSP430F5xx_6xx/flashctl.c",line 201,column 5,is_stmt,isa 0
     675 000020 40B2          MOV.W     #42240,&0x140         ; [] |201| 
         000022 A500 
         000024 0140 
     676                    .dwpsn  file "../MSP430F5xx_6xx/flashctl.c",line 204,column 5,is_stmt,isa 0
     677 000026 40B2          MOV.W     #42256,&0x144         ; [] |204| 
         000028 A510 
         00002a 0144 
     678                    .dwpsn  file "../MSP430F5xx_6xx/flashctl.c",line 205,column 1,is_stmt,isa 0
     679            $C$DW$39        .dwtag  DW_TAG_TI_branch
     680                    .dwattr $C$DW$39, DW_AT_low_pc(0x00)
     681                    .dwattr $C$DW$39, DW_AT_TI_return
     682            
     683 00002c 0110          RETA      ; [] 
     684                    ; [] 
     685                    .dwattr $C$DW$32, DW_AT_TI_end_file("../MSP430F5xx_6xx/flashctl.c")
     686                    .dwattr $C$DW$32, DW_AT_TI_end_line(0xcd)
     687                    .dwattr $C$DW$32, DW_AT_TI_end_column(0x01)
     688                    .dwendentry
     689                    .dwendtag $C$DW$32
     690            
     691 000000               .sect   ".text:FlashCtl_write32"
     692                    .clink
     693                    .global FlashCtl_write32
     694            
     695            $C$DW$40        .dwtag  DW_TAG_subprogram
     696                    .dwattr $C$DW$40, DW_AT_name("FlashCtl_write32")
     697                    .dwattr $C$DW$40, DW_AT_low_pc(FlashCtl_write32)
     698                    .dwattr $C$DW$40, DW_AT_high_pc(0x00)
     699                    .dwattr $C$DW$40, DW_AT_TI_symbol_name("FlashCtl_write32")
     700                    .dwattr $C$DW$40, DW_AT_external
     701                    .dwattr $C$DW$40, DW_AT_TI_begin_file("../MSP430F5xx_6xx/flashctl.c")
     702                    .dwattr $C$DW$40, DW_AT_TI_begin_line(0xcf)
     703                    .dwattr $C$DW$40, DW_AT_TI_begin_column(0x06)
     704                    .dwattr $C$DW$40, DW_AT_decl_file("../MSP430F5xx_6xx/flashctl.c")
     705                    .dwattr $C$DW$40, DW_AT_decl_line(0xcf)
     706                    .dwattr $C$DW$40, DW_AT_decl_column(0x06)
     707                    .dwattr $C$DW$40, DW_AT_TI_max_frame_size(0x04)
     708                    .dwpsn  file "../MSP430F5xx_6xx/flashctl.c",line 210,column 1,is_stmt,address FlashCtl_write32
     709            
     710                    .dwfde $C$DW$CIE, FlashCtl_write32
     711            $C$DW$41        .dwtag  DW_TAG_formal_parameter
     712                    .dwattr $C$DW$41, DW_AT_name("data_ptr")
     713                    .dwattr $C$DW$41, DW_AT_TI_symbol_name("data_ptr")
     714                    .dwattr $C$DW$41, DW_AT_type(*$C$DW$T$28)
     715                    .dwattr $C$DW$41, DW_AT_location[DW_OP_reg12]
     716            
MSP430 Assembler PC v15.12.3 Mon Oct 17 14:33:04 2016

Tools Copyright (c) 2003-2015 Texas Instruments Incorporated
C:\Users\madis\AppData\Local\Temp\044362                             PAGE   15

     717            $C$DW$42        .dwtag  DW_TAG_formal_parameter
     718                    .dwattr $C$DW$42, DW_AT_name("flash_ptr")
     719                    .dwattr $C$DW$42, DW_AT_TI_symbol_name("flash_ptr")
     720                    .dwattr $C$DW$42, DW_AT_type(*$C$DW$T$28)
     721                    .dwattr $C$DW$42, DW_AT_location[DW_OP_reg13]
     722            
     723            $C$DW$43        .dwtag  DW_TAG_formal_parameter
     724                    .dwattr $C$DW$43, DW_AT_name("count")
     725                    .dwattr $C$DW$43, DW_AT_TI_symbol_name("count")
     726                    .dwattr $C$DW$43, DW_AT_type(*$C$DW$T$23)
     727                    .dwattr $C$DW$43, DW_AT_location[DW_OP_reg14]
     728            
     729            
     730            ;*****************************************************************************
     731            ;* FUNCTION NAME: FlashCtl_write32                                           *
     732            ;*                                                                           *
     733            ;*   Regs Modified     : SP,SR,r12,r13,r14                                   *
     734            ;*   Regs Used         : SP,SR,r12,r13,r14                                   *
     735            ;*   Local Frame Size  : 0 Args + 0 Auto + 0 Save = 0 byte                   *
     736            ;*****************************************************************************
     737 000000       FlashCtl_write32:
     738            ;* --------------------------------------------------------------------------*
     739                    .dwcfi  cfa_offset, 4
     740                    .dwcfi  save_reg_to_mem, 16, -4
     741            ;* r12   assigned to data_ptr
     742            $C$DW$44        .dwtag  DW_TAG_variable
     743                    .dwattr $C$DW$44, DW_AT_name("data_ptr")
     744                    .dwattr $C$DW$44, DW_AT_TI_symbol_name("data_ptr")
     745                    .dwattr $C$DW$44, DW_AT_type(*$C$DW$T$28)
     746                    .dwattr $C$DW$44, DW_AT_location[DW_OP_reg12]
     747            
     748            ;* r13   assigned to flash_ptr
     749            $C$DW$45        .dwtag  DW_TAG_variable
     750                    .dwattr $C$DW$45, DW_AT_name("flash_ptr")
     751                    .dwattr $C$DW$45, DW_AT_TI_symbol_name("flash_ptr")
     752                    .dwattr $C$DW$45, DW_AT_type(*$C$DW$T$28)
     753                    .dwattr $C$DW$45, DW_AT_location[DW_OP_reg13]
     754            
     755            ;* r14   assigned to count
     756            $C$DW$46        .dwtag  DW_TAG_variable
     757                    .dwattr $C$DW$46, DW_AT_name("count")
     758                    .dwattr $C$DW$46, DW_AT_TI_symbol_name("count")
     759                    .dwattr $C$DW$46, DW_AT_type(*$C$DW$T$23)
     760                    .dwattr $C$DW$46, DW_AT_location[DW_OP_reg14]
     761            
     762                    .dwpsn  file "../MSP430F5xx_6xx/flashctl.c",line 212,column 5,is_stmt,isa 0
     763 000000 40B2          MOV.W     #42240,&0x144         ; [] |212| 
         000002 A500 
         000004 0144 
     764                    .dwpsn  file "../MSP430F5xx_6xx/flashctl.c",line 215,column 5,is_stmt,isa 0
     765 000006 40B2          MOV.W     #42368,&0x140         ; [] |215| 
         000008 A580 
         00000a 0140 
     766                    .dwpsn  file "../MSP430F5xx_6xx/flashctl.c",line 217,column 11,is_stmt,isa 0
     767 00000c 930E          TST.W     r14                   ; [] |217| 
MSP430 Assembler PC v15.12.3 Mon Oct 17 14:33:04 2016

Tools Copyright (c) 2003-2015 Texas Instruments Incorporated
C:\Users\madis\AppData\Local\Temp\044362                             PAGE   16

     768 00000e 240B          JEQ       $C$L15                ; [] |217| 
     769                                                      ; [] |217| 
     770            ;* --------------------------------------------------------------------------*
     771            ;*   BEGIN LOOP $C$L14
     772            ;*
     773            ;*   Loop source line                : 220
     774            ;*   Loop closing brace source line  : 223
     775            ;*   Known Minimum Trip Count        : 1
     776            ;*   Known Maximum Trip Count        : 4294967295
     777            ;*   Known Max Trip Count Factor     : 1
     778            ;* --------------------------------------------------------------------------*
     779 000010       $C$L14:    
     780                    .dwpsn  file "../MSP430F5xx_6xx/flashctl.c",line 220,column 9,is_stmt,isa 0
     781 000010 B3D2          BIT.B     #1,&0x144             ; [] |220| 
         000012 0144 
     782 000014 23FD          JNE       $C$L14                ; [] |220| 
     783                                                      ; [] |220| 
     784            ;* --------------------------------------------------------------------------*
     785                    .dwpsn  file "../MSP430F5xx_6xx/flashctl.c",line 226,column 9,is_stmt,isa 0
     786 000016 00AD          ADDA      #4,r13                ; [] |226| 
         000018 0004 
     787 00001a 4CBD          MOV.W     @r12+,-4(r13)         ; [] |226| 
         00001c FFFC 
     788 00001e 4CBD          MOV.W     @r12+,-2(r13)         ; [] |226| 
         000020 FFFE 
     789                    .dwpsn  file "../MSP430F5xx_6xx/flashctl.c",line 228,column 9,is_stmt,isa 0
     790 000022 831E          SUB.W     #1,r14                ; [] |228| 
     791 000024 23F5          JNE       $C$L14                ; [] |228| 
     792                                                      ; [] |228| 
     793            ;* --------------------------------------------------------------------------*
     794 000026       $C$L15:    
     795                    .dwpsn  file "../MSP430F5xx_6xx/flashctl.c",line 232,column 5,is_stmt,isa 0
     796 000026 40B2          MOV.W     #42240,&0x140         ; [] |232| 
         000028 A500 
         00002a 0140 
     797                    .dwpsn  file "../MSP430F5xx_6xx/flashctl.c",line 235,column 5,is_stmt,isa 0
     798 00002c 40B2          MOV.W     #42256,&0x144         ; [] |235| 
         00002e A510 
         000030 0144 
     799                    .dwpsn  file "../MSP430F5xx_6xx/flashctl.c",line 236,column 1,is_stmt,isa 0
     800            $C$DW$47        .dwtag  DW_TAG_TI_branch
     801                    .dwattr $C$DW$47, DW_AT_low_pc(0x00)
     802                    .dwattr $C$DW$47, DW_AT_TI_return
     803            
     804 000032 0110          RETA      ; [] 
     805                    ; [] 
     806                    .dwattr $C$DW$40, DW_AT_TI_end_file("../MSP430F5xx_6xx/flashctl.c")
     807                    .dwattr $C$DW$40, DW_AT_TI_end_line(0xec)
     808                    .dwattr $C$DW$40, DW_AT_TI_end_column(0x01)
     809                    .dwendentry
     810                    .dwendtag $C$DW$40
     811            
     812 000000               .sect   ".text:FlashCtl_fillMemory32"
     813                    .clink
     814                    .global FlashCtl_fillMemory32
MSP430 Assembler PC v15.12.3 Mon Oct 17 14:33:04 2016

Tools Copyright (c) 2003-2015 Texas Instruments Incorporated
C:\Users\madis\AppData\Local\Temp\044362                             PAGE   17

     815            
     816            $C$DW$48        .dwtag  DW_TAG_subprogram
     817                    .dwattr $C$DW$48, DW_AT_name("FlashCtl_fillMemory32")
     818                    .dwattr $C$DW$48, DW_AT_low_pc(FlashCtl_fillMemory32)
     819                    .dwattr $C$DW$48, DW_AT_high_pc(0x00)
     820                    .dwattr $C$DW$48, DW_AT_TI_symbol_name("FlashCtl_fillMemory32")
     821                    .dwattr $C$DW$48, DW_AT_external
     822                    .dwattr $C$DW$48, DW_AT_TI_begin_file("../MSP430F5xx_6xx/flashctl.c")
     823                    .dwattr $C$DW$48, DW_AT_TI_begin_line(0xee)
     824                    .dwattr $C$DW$48, DW_AT_TI_begin_column(0x06)
     825                    .dwattr $C$DW$48, DW_AT_decl_file("../MSP430F5xx_6xx/flashctl.c")
     826                    .dwattr $C$DW$48, DW_AT_decl_line(0xee)
     827                    .dwattr $C$DW$48, DW_AT_decl_column(0x06)
     828                    .dwattr $C$DW$48, DW_AT_TI_max_frame_size(0x04)
     829                    .dwpsn  file "../MSP430F5xx_6xx/flashctl.c",line 241,column 1,is_stmt,address FlashCtl_fillMem
     830            
     831                    .dwfde $C$DW$CIE, FlashCtl_fillMemory32
     832            $C$DW$49        .dwtag  DW_TAG_formal_parameter
     833                    .dwattr $C$DW$49, DW_AT_name("value")
     834                    .dwattr $C$DW$49, DW_AT_TI_symbol_name("value")
     835                    .dwattr $C$DW$49, DW_AT_type(*$C$DW$T$27)
     836                    .dwattr $C$DW$49, DW_AT_location[DW_OP_reg12 DW_OP_piece 2 DW_OP_reg13 DW_OP_piece 2]
     837            
     838            $C$DW$50        .dwtag  DW_TAG_formal_parameter
     839                    .dwattr $C$DW$50, DW_AT_name("flash_ptr")
     840                    .dwattr $C$DW$50, DW_AT_TI_symbol_name("flash_ptr")
     841                    .dwattr $C$DW$50, DW_AT_type(*$C$DW$T$28)
     842                    .dwattr $C$DW$50, DW_AT_location[DW_OP_reg14]
     843            
     844            $C$DW$51        .dwtag  DW_TAG_formal_parameter
     845                    .dwattr $C$DW$51, DW_AT_name("count")
     846                    .dwattr $C$DW$51, DW_AT_TI_symbol_name("count")
     847                    .dwattr $C$DW$51, DW_AT_type(*$C$DW$T$23)
     848                    .dwattr $C$DW$51, DW_AT_location[DW_OP_reg15]
     849            
     850            
     851            ;*****************************************************************************
     852            ;* FUNCTION NAME: FlashCtl_fillMemory32                                      *
     853            ;*                                                                           *
     854            ;*   Regs Modified     : SP,SR,r14,r15                                       *
     855            ;*   Regs Used         : SP,SR,r12,r13,r14,r15                               *
     856            ;*   Local Frame Size  : 0 Args + 0 Auto + 0 Save = 0 byte                   *
     857            ;*****************************************************************************
     858 000000       FlashCtl_fillMemory32:
     859            ;* --------------------------------------------------------------------------*
     860                    .dwcfi  cfa_offset, 4
     861                    .dwcfi  save_reg_to_mem, 16, -4
     862            ;* r12   assigned to value
     863            $C$DW$52        .dwtag  DW_TAG_variable
     864                    .dwattr $C$DW$52, DW_AT_name("value")
     865                    .dwattr $C$DW$52, DW_AT_TI_symbol_name("value")
     866                    .dwattr $C$DW$52, DW_AT_type(*$C$DW$T$27)
     867                    .dwattr $C$DW$52, DW_AT_location[DW_OP_reg12 DW_OP_piece 2 DW_OP_reg13 DW_OP_piece 2]
     868            
     869            ;* r14   assigned to flash_ptr
MSP430 Assembler PC v15.12.3 Mon Oct 17 14:33:04 2016

Tools Copyright (c) 2003-2015 Texas Instruments Incorporated
C:\Users\madis\AppData\Local\Temp\044362                             PAGE   18

     870            $C$DW$53        .dwtag  DW_TAG_variable
     871                    .dwattr $C$DW$53, DW_AT_name("flash_ptr")
     872                    .dwattr $C$DW$53, DW_AT_TI_symbol_name("flash_ptr")
     873                    .dwattr $C$DW$53, DW_AT_type(*$C$DW$T$28)
     874                    .dwattr $C$DW$53, DW_AT_location[DW_OP_reg14]
     875            
     876            ;* r15   assigned to count
     877            $C$DW$54        .dwtag  DW_TAG_variable
     878                    .dwattr $C$DW$54, DW_AT_name("count")
     879                    .dwattr $C$DW$54, DW_AT_TI_symbol_name("count")
     880                    .dwattr $C$DW$54, DW_AT_type(*$C$DW$T$23)
     881                    .dwattr $C$DW$54, DW_AT_location[DW_OP_reg15]
     882            
     883                    .dwpsn  file "../MSP430F5xx_6xx/flashctl.c",line 243,column 5,is_stmt,isa 0
     884 000000 40B2          MOV.W     #42240,&0x144         ; [] |243| 
         000002 A500 
         000004 0144 
     885                    .dwpsn  file "../MSP430F5xx_6xx/flashctl.c",line 246,column 5,is_stmt,isa 0
     886 000006 40B2          MOV.W     #42368,&0x140         ; [] |246| 
         000008 A580 
         00000a 0140 
     887                    .dwpsn  file "../MSP430F5xx_6xx/flashctl.c",line 249,column 11,is_stmt,isa 0
     888 00000c 930F          TST.W     r15                   ; [] |249| 
     889 00000e 240B          JEQ       $C$L17                ; [] |249| 
     890                                                      ; [] |249| 
     891            ;* --------------------------------------------------------------------------*
     892            ;*   BEGIN LOOP $C$L16
     893            ;*
     894            ;*   Loop source line                : 251
     895            ;*   Loop closing brace source line  : 254
     896            ;*   Known Minimum Trip Count        : 1
     897            ;*   Known Maximum Trip Count        : 4294967295
     898            ;*   Known Max Trip Count Factor     : 1
     899            ;* --------------------------------------------------------------------------*
     900 000010       $C$L16:    
     901                    .dwpsn  file "../MSP430F5xx_6xx/flashctl.c",line 251,column 9,is_stmt,isa 0
     902 000010 B3D2          BIT.B     #1,&0x144             ; [] |251| 
         000012 0144 
     903 000014 23FD          JNE       $C$L16                ; [] |251| 
     904                                                      ; [] |251| 
     905            ;* --------------------------------------------------------------------------*
     906                    .dwpsn  file "../MSP430F5xx_6xx/flashctl.c",line 257,column 9,is_stmt,isa 0
     907 000016 00AE          ADDA      #4,r14                ; [] |257| 
         000018 0004 
     908 00001a 4C8E          MOV.W     r12,-4(r14)           ; [] |257| 
         00001c FFFC 
     909 00001e 4D8E          MOV.W     r13,-2(r14)           ; [] |257| 
         000020 FFFE 
     910                    .dwpsn  file "../MSP430F5xx_6xx/flashctl.c",line 259,column 9,is_stmt,isa 0
     911 000022 831F          SUB.W     #1,r15                ; [] |259| 
     912 000024 23F5          JNE       $C$L16                ; [] |259| 
     913                                                      ; [] |259| 
     914            ;* --------------------------------------------------------------------------*
     915 000026       $C$L17:    
     916                    .dwpsn  file "../MSP430F5xx_6xx/flashctl.c",line 263,column 5,is_stmt,isa 0
MSP430 Assembler PC v15.12.3 Mon Oct 17 14:33:04 2016

Tools Copyright (c) 2003-2015 Texas Instruments Incorporated
C:\Users\madis\AppData\Local\Temp\044362                             PAGE   19

     917 000026 40B2          MOV.W     #42240,&0x140         ; [] |263| 
         000028 A500 
         00002a 0140 
     918                    .dwpsn  file "../MSP430F5xx_6xx/flashctl.c",line 266,column 5,is_stmt,isa 0
     919 00002c 40B2          MOV.W     #42256,&0x144         ; [] |266| 
         00002e A510 
         000030 0144 
     920                    .dwpsn  file "../MSP430F5xx_6xx/flashctl.c",line 267,column 1,is_stmt,isa 0
     921            $C$DW$55        .dwtag  DW_TAG_TI_branch
     922                    .dwattr $C$DW$55, DW_AT_low_pc(0x00)
     923                    .dwattr $C$DW$55, DW_AT_TI_return
     924            
     925 000032 0110          RETA      ; [] 
     926                    ; [] 
     927                    .dwattr $C$DW$48, DW_AT_TI_end_file("../MSP430F5xx_6xx/flashctl.c")
     928                    .dwattr $C$DW$48, DW_AT_TI_end_line(0x10b)
     929                    .dwattr $C$DW$48, DW_AT_TI_end_column(0x01)
     930                    .dwendentry
     931                    .dwendtag $C$DW$48
     932            
     933 000000               .sect   ".text:FlashCtl_getStatus"
     934                    .clink
     935                    .global FlashCtl_getStatus
     936            
     937            $C$DW$56        .dwtag  DW_TAG_subprogram
     938                    .dwattr $C$DW$56, DW_AT_name("FlashCtl_getStatus")
     939                    .dwattr $C$DW$56, DW_AT_low_pc(FlashCtl_getStatus)
     940                    .dwattr $C$DW$56, DW_AT_high_pc(0x00)
     941                    .dwattr $C$DW$56, DW_AT_TI_symbol_name("FlashCtl_getStatus")
     942                    .dwattr $C$DW$56, DW_AT_external
     943                    .dwattr $C$DW$56, DW_AT_type(*$C$DW$T$20)
     944                    .dwattr $C$DW$56, DW_AT_TI_begin_file("../MSP430F5xx_6xx/flashctl.c")
     945                    .dwattr $C$DW$56, DW_AT_TI_begin_line(0x10d)
     946                    .dwattr $C$DW$56, DW_AT_TI_begin_column(0x09)
     947                    .dwattr $C$DW$56, DW_AT_decl_file("../MSP430F5xx_6xx/flashctl.c")
     948                    .dwattr $C$DW$56, DW_AT_decl_line(0x10d)
     949                    .dwattr $C$DW$56, DW_AT_decl_column(0x09)
     950                    .dwattr $C$DW$56, DW_AT_TI_max_frame_size(0x04)
     951                    .dwpsn  file "../MSP430F5xx_6xx/flashctl.c",line 270,column 1,is_stmt,address FlashCtl_getStat
     952            
     953                    .dwfde $C$DW$CIE, FlashCtl_getStatus
     954            $C$DW$57        .dwtag  DW_TAG_formal_parameter
     955                    .dwattr $C$DW$57, DW_AT_name("mask")
     956                    .dwattr $C$DW$57, DW_AT_TI_symbol_name("mask")
     957                    .dwattr $C$DW$57, DW_AT_type(*$C$DW$T$20)
     958                    .dwattr $C$DW$57, DW_AT_location[DW_OP_reg12]
     959            
     960            
     961            ;*****************************************************************************
     962            ;* FUNCTION NAME: FlashCtl_getStatus                                         *
     963            ;*                                                                           *
     964            ;*   Regs Modified     : SP,SR,r12,r15                                       *
     965            ;*   Regs Used         : SP,SR,r12,r15                                       *
     966            ;*   Local Frame Size  : 0 Args + 0 Auto + 0 Save = 0 byte                   *
     967            ;*****************************************************************************
MSP430 Assembler PC v15.12.3 Mon Oct 17 14:33:04 2016

Tools Copyright (c) 2003-2015 Texas Instruments Incorporated
C:\Users\madis\AppData\Local\Temp\044362                             PAGE   20

     968 000000       FlashCtl_getStatus:
     969            ;* --------------------------------------------------------------------------*
     970                    .dwcfi  cfa_offset, 4
     971                    .dwcfi  save_reg_to_mem, 16, -4
     972                    .dwpsn  file "../MSP430F5xx_6xx/flashctl.c",line 271,column 5,is_stmt,isa 0
     973 000000 425F          MOV.B     &0x144,r15            ; [] |271| 
         000002 0144 
     974 000004 FF4C          AND.B     r15,r12               ; [] |271| 
     975                    .dwpsn  file "../MSP430F5xx_6xx/flashctl.c",line 272,column 1,is_stmt,isa 0
     976            $C$DW$58        .dwtag  DW_TAG_TI_branch
     977                    .dwattr $C$DW$58, DW_AT_low_pc(0x00)
     978                    .dwattr $C$DW$58, DW_AT_TI_return
     979            
     980 000006 0110          RETA      ; [] 
     981                    ; [] 
     982                    .dwattr $C$DW$56, DW_AT_TI_end_file("../MSP430F5xx_6xx/flashctl.c")
     983                    .dwattr $C$DW$56, DW_AT_TI_end_line(0x110)
     984                    .dwattr $C$DW$56, DW_AT_TI_end_column(0x01)
     985                    .dwendentry
     986                    .dwendtag $C$DW$56
     987            
     988 000000               .sect   ".text:FlashCtl_lockInfoA"
     989                    .clink
     990                    .global FlashCtl_lockInfoA
     991            
     992            $C$DW$59        .dwtag  DW_TAG_subprogram
     993                    .dwattr $C$DW$59, DW_AT_name("FlashCtl_lockInfoA")
     994                    .dwattr $C$DW$59, DW_AT_low_pc(FlashCtl_lockInfoA)
     995                    .dwattr $C$DW$59, DW_AT_high_pc(0x00)
     996                    .dwattr $C$DW$59, DW_AT_TI_symbol_name("FlashCtl_lockInfoA")
     997                    .dwattr $C$DW$59, DW_AT_external
     998                    .dwattr $C$DW$59, DW_AT_TI_begin_file("../MSP430F5xx_6xx/flashctl.c")
     999                    .dwattr $C$DW$59, DW_AT_TI_begin_line(0x112)
    1000                    .dwattr $C$DW$59, DW_AT_TI_begin_column(0x06)
    1001                    .dwattr $C$DW$59, DW_AT_decl_file("../MSP430F5xx_6xx/flashctl.c")
    1002                    .dwattr $C$DW$59, DW_AT_decl_line(0x112)
    1003                    .dwattr $C$DW$59, DW_AT_decl_column(0x06)
    1004                    .dwattr $C$DW$59, DW_AT_TI_max_frame_size(0x04)
    1005                    .dwpsn  file "../MSP430F5xx_6xx/flashctl.c",line 275,column 1,is_stmt,address FlashCtl_lockInf
    1006            
    1007                    .dwfde $C$DW$CIE, FlashCtl_lockInfoA
    1008            
    1009            ;*****************************************************************************
    1010            ;* FUNCTION NAME: FlashCtl_lockInfoA                                         *
    1011            ;*                                                                           *
    1012            ;*   Regs Modified     : SP,SR,r14,r15                                       *
    1013            ;*   Regs Used         : SP,SR,r14,r15                                       *
    1014            ;*   Local Frame Size  : 0 Args + 0 Auto + 0 Save = 0 byte                   *
    1015            ;*****************************************************************************
    1016 000000       FlashCtl_lockInfoA:
    1017            ;* --------------------------------------------------------------------------*
    1018                    .dwcfi  cfa_offset, 4
    1019                    .dwcfi  save_reg_to_mem, 16, -4
    1020            ;* r15   assigned to gieStatus
    1021            $C$DW$60        .dwtag  DW_TAG_variable
MSP430 Assembler PC v15.12.3 Mon Oct 17 14:33:04 2016

Tools Copyright (c) 2003-2015 Texas Instruments Incorporated
C:\Users\madis\AppData\Local\Temp\044362                             PAGE   21

    1022                    .dwattr $C$DW$60, DW_AT_name("gieStatus")
    1023                    .dwattr $C$DW$60, DW_AT_TI_symbol_name("gieStatus")
    1024                    .dwattr $C$DW$60, DW_AT_type(*$C$DW$T$23)
    1025                    .dwattr $C$DW$60, DW_AT_location[DW_OP_reg15]
    1026            
    1027                    .dwpsn  file "../MSP430F5xx_6xx/flashctl.c",line 278,column 5,is_stmt,isa 0
    1028 000000 420F          MOV.W     SR,r15                ; [] |278| 
    1029 000002 F23F          AND.W     #8,r15                ; [] |278| 
    1030                    .dwpsn  file "../MSP430F5xx_6xx/flashctl.c",line 279,column 5,is_stmt,isa 0
    1031 000004 C232          DINT
    1032 000006 4303          NOP      ; [] |279| 
    1033                    .dwpsn  file "../MSP430F5xx_6xx/flashctl.c",line 285,column 5,is_stmt,isa 0
    1034 000008 403E          MOV.W     #64,r14               ; [] |285| 
         00000a 0040 
    1035 00000c E21E          XOR.W     &0x144,r14            ; [] |285| 
         00000e 0144 
    1036 000010 C34E          BIC.B     #0,r14                ; [] |285| 
    1037 000012 803E          SUB.W     #23296,r14            ; [] |285| 
         000014 5B00 
    1038 000016 4E82          MOV.W     r14,&0x144            ; [] |285| 
         000018 0144 
    1039                    .dwpsn  file "../MSP430F5xx_6xx/flashctl.c",line 290,column 5,is_stmt,isa 0
    1040 00001a 4303          NOP
    1041 00001c DF02          BIS.W    r15,SR
    1042 00001e 4303          NOP      ; [] |290| 
    1043                    .dwpsn  file "../MSP430F5xx_6xx/flashctl.c",line 291,column 1,is_stmt,isa 0
    1044            $C$DW$61        .dwtag  DW_TAG_TI_branch
    1045                    .dwattr $C$DW$61, DW_AT_low_pc(0x00)
    1046                    .dwattr $C$DW$61, DW_AT_TI_return
    1047            
    1048 000020 0110          RETA      ; [] 
    1049                    ; [] 
    1050                    .dwattr $C$DW$59, DW_AT_TI_end_file("../MSP430F5xx_6xx/flashctl.c")
    1051                    .dwattr $C$DW$59, DW_AT_TI_end_line(0x123)
    1052                    .dwattr $C$DW$59, DW_AT_TI_end_column(0x01)
    1053                    .dwendentry
    1054                    .dwendtag $C$DW$59
    1055            
    1056 000000               .sect   ".text:FlashCtl_unlockInfoA"
    1057                    .clink
    1058                    .global FlashCtl_unlockInfoA
    1059            
    1060            $C$DW$62        .dwtag  DW_TAG_subprogram
    1061                    .dwattr $C$DW$62, DW_AT_name("FlashCtl_unlockInfoA")
    1062                    .dwattr $C$DW$62, DW_AT_low_pc(FlashCtl_unlockInfoA)
    1063                    .dwattr $C$DW$62, DW_AT_high_pc(0x00)
    1064                    .dwattr $C$DW$62, DW_AT_TI_symbol_name("FlashCtl_unlockInfoA")
    1065                    .dwattr $C$DW$62, DW_AT_external
    1066                    .dwattr $C$DW$62, DW_AT_TI_begin_file("../MSP430F5xx_6xx/flashctl.c")
    1067                    .dwattr $C$DW$62, DW_AT_TI_begin_line(0x125)
    1068                    .dwattr $C$DW$62, DW_AT_TI_begin_column(0x06)
    1069                    .dwattr $C$DW$62, DW_AT_decl_file("../MSP430F5xx_6xx/flashctl.c")
    1070                    .dwattr $C$DW$62, DW_AT_decl_line(0x125)
    1071                    .dwattr $C$DW$62, DW_AT_decl_column(0x06)
    1072                    .dwattr $C$DW$62, DW_AT_TI_max_frame_size(0x04)
MSP430 Assembler PC v15.12.3 Mon Oct 17 14:33:04 2016

Tools Copyright (c) 2003-2015 Texas Instruments Incorporated
C:\Users\madis\AppData\Local\Temp\044362                             PAGE   22

    1073                    .dwpsn  file "../MSP430F5xx_6xx/flashctl.c",line 294,column 1,is_stmt,address FlashCtl_unlockI
    1074            
    1075                    .dwfde $C$DW$CIE, FlashCtl_unlockInfoA
    1076            
    1077            ;*****************************************************************************
    1078            ;* FUNCTION NAME: FlashCtl_unlockInfoA                                       *
    1079            ;*                                                                           *
    1080            ;*   Regs Modified     : SP,SR,r14,r15                                       *
    1081            ;*   Regs Used         : SP,SR,r14,r15                                       *
    1082            ;*   Local Frame Size  : 0 Args + 0 Auto + 0 Save = 0 byte                   *
    1083            ;*****************************************************************************
    1084 000000       FlashCtl_unlockInfoA:
    1085            ;* --------------------------------------------------------------------------*
    1086                    .dwcfi  cfa_offset, 4
    1087                    .dwcfi  save_reg_to_mem, 16, -4
    1088            ;* r15   assigned to gieStatus
    1089            $C$DW$63        .dwtag  DW_TAG_variable
    1090                    .dwattr $C$DW$63, DW_AT_name("gieStatus")
    1091                    .dwattr $C$DW$63, DW_AT_TI_symbol_name("gieStatus")
    1092                    .dwattr $C$DW$63, DW_AT_type(*$C$DW$T$23)
    1093                    .dwattr $C$DW$63, DW_AT_location[DW_OP_reg15]
    1094            
    1095                    .dwpsn  file "../MSP430F5xx_6xx/flashctl.c",line 297,column 5,is_stmt,isa 0
    1096 000000 420F          MOV.W     SR,r15                ; [] |297| 
    1097 000002 F23F          AND.W     #8,r15                ; [] |297| 
    1098                    .dwpsn  file "../MSP430F5xx_6xx/flashctl.c",line 298,column 5,is_stmt,isa 0
    1099 000004 C232          DINT
    1100 000006 4303          NOP      ; [] |298| 
    1101                    .dwpsn  file "../MSP430F5xx_6xx/flashctl.c",line 303,column 5,is_stmt,isa 0
    1102 000008 421E          MOV.W     &0x144,r14            ; [] |303| 
         00000a 0144 
    1103 00000c C34E          BIC.B     #0,r14                ; [] |303| 
    1104 00000e 803E          SUB.W     #23296,r14            ; [] |303| 
         000010 5B00 
    1105 000012 4E82          MOV.W     r14,&0x144            ; [] |303| 
         000014 0144 
    1106                    .dwpsn  file "../MSP430F5xx_6xx/flashctl.c",line 308,column 5,is_stmt,isa 0
    1107 000016 4303          NOP
    1108 000018 DF02          BIS.W    r15,SR
    1109 00001a 4303          NOP      ; [] |308| 
    1110                    .dwpsn  file "../MSP430F5xx_6xx/flashctl.c",line 309,column 1,is_stmt,isa 0
    1111            $C$DW$64        .dwtag  DW_TAG_TI_branch
    1112                    .dwattr $C$DW$64, DW_AT_low_pc(0x00)
    1113                    .dwattr $C$DW$64, DW_AT_TI_return
    1114            
    1115 00001c 0110          RETA      ; [] 
    1116                    ; [] 
    1117                    .dwattr $C$DW$62, DW_AT_TI_end_file("../MSP430F5xx_6xx/flashctl.c")
    1118                    .dwattr $C$DW$62, DW_AT_TI_end_line(0x135)
    1119                    .dwattr $C$DW$62, DW_AT_TI_end_column(0x01)
    1120                    .dwendentry
    1121                    .dwendtag $C$DW$62
    1122            
    1123            
    1124            ;******************************************************************************
MSP430 Assembler PC v15.12.3 Mon Oct 17 14:33:04 2016

Tools Copyright (c) 2003-2015 Texas Instruments Incorporated
C:\Users\madis\AppData\Local\Temp\044362                             PAGE   23

    1125            ;* BUILD ATTRIBUTES                                                           *
    1126            ;******************************************************************************
    1127                    .battr "TI", Tag_File, 1, Tag_LPM_INFO(2)
    1128                    .battr "TI", Tag_File, 1, Tag_PORTS_INIT_INFO("012345678901ABCDEFGHIJ0000000000001111000000000
    1129                    .battr "TI", Tag_File, 1, Tag_HW_MPY32_INFO(2)
    1130                    .battr "TI", Tag_File, 1, Tag_HW_MPY_ISR_INFO(1)
    1131                    .battr "TI", Tag_File, 1, Tag_HW_MPY_INLINE_INFO(1)
    1132                    .battr "mspabi", Tag_File, 1, Tag_enum_size(3)
    1133            
    1134            ;******************************************************************************
    1135            ;* TYPE INFORMATION                                                           *
    1136            ;******************************************************************************
    1137            $C$DW$T$2       .dwtag  DW_TAG_unspecified_type
    1138                    .dwattr $C$DW$T$2, DW_AT_name("void")
    1139            
    1140            
    1141            $C$DW$T$31      .dwtag  DW_TAG_subroutine_type
    1142                    .dwattr $C$DW$T$31, DW_AT_language(DW_LANG_C)
    1143                    .dwendtag $C$DW$T$31
    1144            
    1145            $C$DW$T$32      .dwtag  DW_TAG_pointer_type
    1146                    .dwattr $C$DW$T$32, DW_AT_type(*$C$DW$T$31)
    1147                    .dwattr $C$DW$T$32, DW_AT_address_class(0x14)
    1148            
    1149            $C$DW$T$33      .dwtag  DW_TAG_typedef
    1150                    .dwattr $C$DW$T$33, DW_AT_name("__SFR_FARPTR")
    1151                    .dwattr $C$DW$T$33, DW_AT_type(*$C$DW$T$32)
    1152                    .dwattr $C$DW$T$33, DW_AT_language(DW_LANG_C)
    1153                    .dwattr $C$DW$T$33, DW_AT_decl_file("D:\ti\ccsv6\ccs_base\msp430\include\msp430f5529.h")
    1154                    .dwattr $C$DW$T$33, DW_AT_decl_line(0x47)
    1155                    .dwattr $C$DW$T$33, DW_AT_decl_column(0x11)
    1156            
    1157            $C$DW$T$4       .dwtag  DW_TAG_base_type
    1158                    .dwattr $C$DW$T$4, DW_AT_encoding(DW_ATE_boolean)
    1159                    .dwattr $C$DW$T$4, DW_AT_name("bool")
    1160                    .dwattr $C$DW$T$4, DW_AT_byte_size(0x01)
    1161            
    1162            $C$DW$T$5       .dwtag  DW_TAG_base_type
    1163                    .dwattr $C$DW$T$5, DW_AT_encoding(DW_ATE_signed_char)
    1164                    .dwattr $C$DW$T$5, DW_AT_name("signed char")
    1165                    .dwattr $C$DW$T$5, DW_AT_byte_size(0x01)
    1166            
    1167            $C$DW$T$34      .dwtag  DW_TAG_typedef
    1168                    .dwattr $C$DW$T$34, DW_AT_name("int8_t")
    1169                    .dwattr $C$DW$T$34, DW_AT_type(*$C$DW$T$5)
    1170                    .dwattr $C$DW$T$34, DW_AT_language(DW_LANG_C)
    1171                    .dwattr $C$DW$T$34, DW_AT_decl_file("D:/ti/ccsv6/tools/compiler/msp430_15.12.3.LTS/include/std
    1172                    .dwattr $C$DW$T$34, DW_AT_decl_line(0x2a)
    1173                    .dwattr $C$DW$T$34, DW_AT_decl_column(0x1e)
    1174            
    1175            $C$DW$T$35      .dwtag  DW_TAG_typedef
    1176                    .dwattr $C$DW$T$35, DW_AT_name("int_least8_t")
    1177                    .dwattr $C$DW$T$35, DW_AT_type(*$C$DW$T$34)
    1178                    .dwattr $C$DW$T$35, DW_AT_language(DW_LANG_C)
    1179                    .dwattr $C$DW$T$35, DW_AT_decl_file("D:/ti/ccsv6/tools/compiler/msp430_15.12.3.LTS/include/std
MSP430 Assembler PC v15.12.3 Mon Oct 17 14:33:04 2016

Tools Copyright (c) 2003-2015 Texas Instruments Incorporated
C:\Users\madis\AppData\Local\Temp\044362                             PAGE   24

    1180                    .dwattr $C$DW$T$35, DW_AT_decl_line(0x37)
    1181                    .dwattr $C$DW$T$35, DW_AT_decl_column(0x17)
    1182            
    1183            $C$DW$T$6       .dwtag  DW_TAG_base_type
    1184                    .dwattr $C$DW$T$6, DW_AT_encoding(DW_ATE_unsigned_char)
    1185                    .dwattr $C$DW$T$6, DW_AT_name("unsigned char")
    1186                    .dwattr $C$DW$T$6, DW_AT_byte_size(0x01)
    1187            
    1188            $C$DW$T$20      .dwtag  DW_TAG_typedef
    1189                    .dwattr $C$DW$T$20, DW_AT_name("uint8_t")
    1190                    .dwattr $C$DW$T$20, DW_AT_type(*$C$DW$T$6)
    1191                    .dwattr $C$DW$T$20, DW_AT_language(DW_LANG_C)
    1192                    .dwattr $C$DW$T$20, DW_AT_decl_file("D:/ti/ccsv6/tools/compiler/msp430_15.12.3.LTS/include/std
    1193                    .dwattr $C$DW$T$20, DW_AT_decl_line(0x2b)
    1194                    .dwattr $C$DW$T$20, DW_AT_decl_column(0x1d)
    1195            
    1196            $C$DW$T$21      .dwtag  DW_TAG_pointer_type
    1197                    .dwattr $C$DW$T$21, DW_AT_type(*$C$DW$T$20)
    1198                    .dwattr $C$DW$T$21, DW_AT_address_class(0x14)
    1199            
    1200            $C$DW$T$42      .dwtag  DW_TAG_typedef
    1201                    .dwattr $C$DW$T$42, DW_AT_name("uint_least8_t")
    1202                    .dwattr $C$DW$T$42, DW_AT_type(*$C$DW$T$20)
    1203                    .dwattr $C$DW$T$42, DW_AT_language(DW_LANG_C)
    1204                    .dwattr $C$DW$T$42, DW_AT_decl_file("D:/ti/ccsv6/tools/compiler/msp430_15.12.3.LTS/include/std
    1205                    .dwattr $C$DW$T$42, DW_AT_decl_line(0x38)
    1206                    .dwattr $C$DW$T$42, DW_AT_decl_column(0x16)
    1207            
    1208            $C$DW$T$7       .dwtag  DW_TAG_base_type
    1209                    .dwattr $C$DW$T$7, DW_AT_encoding(DW_ATE_signed_char)
    1210                    .dwattr $C$DW$T$7, DW_AT_name("wchar_t")
    1211                    .dwattr $C$DW$T$7, DW_AT_byte_size(0x02)
    1212            
    1213            $C$DW$T$8       .dwtag  DW_TAG_base_type
    1214                    .dwattr $C$DW$T$8, DW_AT_encoding(DW_ATE_signed)
    1215                    .dwattr $C$DW$T$8, DW_AT_name("short")
    1216                    .dwattr $C$DW$T$8, DW_AT_byte_size(0x02)
    1217            
    1218            $C$DW$T$9       .dwtag  DW_TAG_base_type
    1219                    .dwattr $C$DW$T$9, DW_AT_encoding(DW_ATE_unsigned)
    1220                    .dwattr $C$DW$T$9, DW_AT_name("unsigned short")
    1221                    .dwattr $C$DW$T$9, DW_AT_byte_size(0x02)
    1222            
    1223            $C$DW$T$10      .dwtag  DW_TAG_base_type
    1224                    .dwattr $C$DW$T$10, DW_AT_encoding(DW_ATE_signed)
    1225                    .dwattr $C$DW$T$10, DW_AT_name("int")
    1226                    .dwattr $C$DW$T$10, DW_AT_byte_size(0x02)
    1227            
    1228            $C$DW$T$45      .dwtag  DW_TAG_typedef
    1229                    .dwattr $C$DW$T$45, DW_AT_name("int16_t")
    1230                    .dwattr $C$DW$T$45, DW_AT_type(*$C$DW$T$10)
    1231                    .dwattr $C$DW$T$45, DW_AT_language(DW_LANG_C)
    1232                    .dwattr $C$DW$T$45, DW_AT_decl_file("D:/ti/ccsv6/tools/compiler/msp430_15.12.3.LTS/include/std
    1233                    .dwattr $C$DW$T$45, DW_AT_decl_line(0x2c)
    1234                    .dwattr $C$DW$T$45, DW_AT_decl_column(0x1d)
MSP430 Assembler PC v15.12.3 Mon Oct 17 14:33:04 2016

Tools Copyright (c) 2003-2015 Texas Instruments Incorporated
C:\Users\madis\AppData\Local\Temp\044362                             PAGE   25

    1235            
    1236            $C$DW$T$46      .dwtag  DW_TAG_typedef
    1237                    .dwattr $C$DW$T$46, DW_AT_name("int_fast16_t")
    1238                    .dwattr $C$DW$T$46, DW_AT_type(*$C$DW$T$45)
    1239                    .dwattr $C$DW$T$46, DW_AT_language(DW_LANG_C)
    1240                    .dwattr $C$DW$T$46, DW_AT_decl_file("D:/ti/ccsv6/tools/compiler/msp430_15.12.3.LTS/include/std
    1241                    .dwattr $C$DW$T$46, DW_AT_decl_line(0x47)
    1242                    .dwattr $C$DW$T$46, DW_AT_decl_column(0x17)
    1243            
    1244            $C$DW$T$47      .dwtag  DW_TAG_typedef
    1245                    .dwattr $C$DW$T$47, DW_AT_name("int_fast8_t")
    1246                    .dwattr $C$DW$T$47, DW_AT_type(*$C$DW$T$45)
    1247                    .dwattr $C$DW$T$47, DW_AT_language(DW_LANG_C)
    1248                    .dwattr $C$DW$T$47, DW_AT_decl_file("D:/ti/ccsv6/tools/compiler/msp430_15.12.3.LTS/include/std
    1249                    .dwattr $C$DW$T$47, DW_AT_decl_line(0x45)
    1250                    .dwattr $C$DW$T$47, DW_AT_decl_column(0x17)
    1251            
    1252            $C$DW$T$48      .dwtag  DW_TAG_typedef
    1253                    .dwattr $C$DW$T$48, DW_AT_name("int_least16_t")
    1254                    .dwattr $C$DW$T$48, DW_AT_type(*$C$DW$T$45)
    1255                    .dwattr $C$DW$T$48, DW_AT_language(DW_LANG_C)
    1256                    .dwattr $C$DW$T$48, DW_AT_decl_file("D:/ti/ccsv6/tools/compiler/msp430_15.12.3.LTS/include/std
    1257                    .dwattr $C$DW$T$48, DW_AT_decl_line(0x3a)
    1258                    .dwattr $C$DW$T$48, DW_AT_decl_column(0x17)
    1259            
    1260            $C$DW$T$11      .dwtag  DW_TAG_base_type
    1261                    .dwattr $C$DW$T$11, DW_AT_encoding(DW_ATE_unsigned)
    1262                    .dwattr $C$DW$T$11, DW_AT_name("unsigned int")
    1263                    .dwattr $C$DW$T$11, DW_AT_byte_size(0x02)
    1264            
    1265            $C$DW$T$23      .dwtag  DW_TAG_typedef
    1266                    .dwattr $C$DW$T$23, DW_AT_name("uint16_t")
    1267                    .dwattr $C$DW$T$23, DW_AT_type(*$C$DW$T$11)
    1268                    .dwattr $C$DW$T$23, DW_AT_language(DW_LANG_C)
    1269                    .dwattr $C$DW$T$23, DW_AT_decl_file("D:/ti/ccsv6/tools/compiler/msp430_15.12.3.LTS/include/std
    1270                    .dwattr $C$DW$T$23, DW_AT_decl_line(0x2d)
    1271                    .dwattr $C$DW$T$23, DW_AT_decl_column(0x1c)
    1272            
    1273            $C$DW$T$25      .dwtag  DW_TAG_pointer_type
    1274                    .dwattr $C$DW$T$25, DW_AT_type(*$C$DW$T$23)
    1275                    .dwattr $C$DW$T$25, DW_AT_address_class(0x14)
    1276            
    1277            $C$DW$T$52      .dwtag  DW_TAG_typedef
    1278                    .dwattr $C$DW$T$52, DW_AT_name("uint_fast16_t")
    1279                    .dwattr $C$DW$T$52, DW_AT_type(*$C$DW$T$23)
    1280                    .dwattr $C$DW$T$52, DW_AT_language(DW_LANG_C)
    1281                    .dwattr $C$DW$T$52, DW_AT_decl_file("D:/ti/ccsv6/tools/compiler/msp430_15.12.3.LTS/include/std
    1282                    .dwattr $C$DW$T$52, DW_AT_decl_line(0x48)
    1283                    .dwattr $C$DW$T$52, DW_AT_decl_column(0x16)
    1284            
    1285            $C$DW$T$53      .dwtag  DW_TAG_typedef
    1286                    .dwattr $C$DW$T$53, DW_AT_name("uint_fast8_t")
    1287                    .dwattr $C$DW$T$53, DW_AT_type(*$C$DW$T$23)
    1288                    .dwattr $C$DW$T$53, DW_AT_language(DW_LANG_C)
    1289                    .dwattr $C$DW$T$53, DW_AT_decl_file("D:/ti/ccsv6/tools/compiler/msp430_15.12.3.LTS/include/std
MSP430 Assembler PC v15.12.3 Mon Oct 17 14:33:04 2016

Tools Copyright (c) 2003-2015 Texas Instruments Incorporated
C:\Users\madis\AppData\Local\Temp\044362                             PAGE   26

    1290                    .dwattr $C$DW$T$53, DW_AT_decl_line(0x46)
    1291                    .dwattr $C$DW$T$53, DW_AT_decl_column(0x16)
    1292            
    1293            $C$DW$T$54      .dwtag  DW_TAG_typedef
    1294                    .dwattr $C$DW$T$54, DW_AT_name("uint_least16_t")
    1295                    .dwattr $C$DW$T$54, DW_AT_type(*$C$DW$T$23)
    1296                    .dwattr $C$DW$T$54, DW_AT_language(DW_LANG_C)
    1297                    .dwattr $C$DW$T$54, DW_AT_decl_file("D:/ti/ccsv6/tools/compiler/msp430_15.12.3.LTS/include/std
    1298                    .dwattr $C$DW$T$54, DW_AT_decl_line(0x3b)
    1299                    .dwattr $C$DW$T$54, DW_AT_decl_column(0x16)
    1300            
    1301            $C$DW$T$12      .dwtag  DW_TAG_base_type
    1302                    .dwattr $C$DW$T$12, DW_AT_encoding(DW_ATE_signed)
    1303                    .dwattr $C$DW$T$12, DW_AT_name("long")
    1304                    .dwattr $C$DW$T$12, DW_AT_byte_size(0x04)
    1305            
    1306            $C$DW$T$55      .dwtag  DW_TAG_typedef
    1307                    .dwattr $C$DW$T$55, DW_AT_name("int32_t")
    1308                    .dwattr $C$DW$T$55, DW_AT_type(*$C$DW$T$12)
    1309                    .dwattr $C$DW$T$55, DW_AT_language(DW_LANG_C)
    1310                    .dwattr $C$DW$T$55, DW_AT_decl_file("D:/ti/ccsv6/tools/compiler/msp430_15.12.3.LTS/include/std
    1311                    .dwattr $C$DW$T$55, DW_AT_decl_line(0x2e)
    1312                    .dwattr $C$DW$T$55, DW_AT_decl_column(0x1d)
    1313            
    1314            $C$DW$T$56      .dwtag  DW_TAG_typedef
    1315                    .dwattr $C$DW$T$56, DW_AT_name("int_fast32_t")
    1316                    .dwattr $C$DW$T$56, DW_AT_type(*$C$DW$T$55)
    1317                    .dwattr $C$DW$T$56, DW_AT_language(DW_LANG_C)
    1318                    .dwattr $C$DW$T$56, DW_AT_decl_file("D:/ti/ccsv6/tools/compiler/msp430_15.12.3.LTS/include/std
    1319                    .dwattr $C$DW$T$56, DW_AT_decl_line(0x4a)
    1320                    .dwattr $C$DW$T$56, DW_AT_decl_column(0x17)
    1321            
    1322            $C$DW$T$57      .dwtag  DW_TAG_typedef
    1323                    .dwattr $C$DW$T$57, DW_AT_name("int_least32_t")
    1324                    .dwattr $C$DW$T$57, DW_AT_type(*$C$DW$T$55)
    1325                    .dwattr $C$DW$T$57, DW_AT_language(DW_LANG_C)
    1326                    .dwattr $C$DW$T$57, DW_AT_decl_file("D:/ti/ccsv6/tools/compiler/msp430_15.12.3.LTS/include/std
    1327                    .dwattr $C$DW$T$57, DW_AT_decl_line(0x3c)
    1328                    .dwattr $C$DW$T$57, DW_AT_decl_column(0x17)
    1329            
    1330            $C$DW$T$58      .dwtag  DW_TAG_typedef
    1331                    .dwattr $C$DW$T$58, DW_AT_name("intptr_t")
    1332                    .dwattr $C$DW$T$58, DW_AT_type(*$C$DW$T$12)
    1333                    .dwattr $C$DW$T$58, DW_AT_language(DW_LANG_C)
    1334                    .dwattr $C$DW$T$58, DW_AT_decl_file("D:/ti/ccsv6/tools/compiler/msp430_15.12.3.LTS/include/std
    1335                    .dwattr $C$DW$T$58, DW_AT_decl_line(0x55)
    1336                    .dwattr $C$DW$T$58, DW_AT_decl_column(0x1b)
    1337            
    1338            $C$DW$T$13      .dwtag  DW_TAG_base_type
    1339                    .dwattr $C$DW$T$13, DW_AT_encoding(DW_ATE_unsigned)
    1340                    .dwattr $C$DW$T$13, DW_AT_name("unsigned long")
    1341                    .dwattr $C$DW$T$13, DW_AT_byte_size(0x04)
    1342            
    1343            $C$DW$T$27      .dwtag  DW_TAG_typedef
    1344                    .dwattr $C$DW$T$27, DW_AT_name("uint32_t")
MSP430 Assembler PC v15.12.3 Mon Oct 17 14:33:04 2016

Tools Copyright (c) 2003-2015 Texas Instruments Incorporated
C:\Users\madis\AppData\Local\Temp\044362                             PAGE   27

    1345                    .dwattr $C$DW$T$27, DW_AT_type(*$C$DW$T$13)
    1346                    .dwattr $C$DW$T$27, DW_AT_language(DW_LANG_C)
    1347                    .dwattr $C$DW$T$27, DW_AT_decl_file("D:/ti/ccsv6/tools/compiler/msp430_15.12.3.LTS/include/std
    1348                    .dwattr $C$DW$T$27, DW_AT_decl_line(0x2f)
    1349                    .dwattr $C$DW$T$27, DW_AT_decl_column(0x1c)
    1350            
    1351            $C$DW$T$28      .dwtag  DW_TAG_pointer_type
    1352                    .dwattr $C$DW$T$28, DW_AT_type(*$C$DW$T$27)
    1353                    .dwattr $C$DW$T$28, DW_AT_address_class(0x14)
    1354            
    1355            $C$DW$T$60      .dwtag  DW_TAG_typedef
    1356                    .dwattr $C$DW$T$60, DW_AT_name("uint_fast32_t")
    1357                    .dwattr $C$DW$T$60, DW_AT_type(*$C$DW$T$27)
    1358                    .dwattr $C$DW$T$60, DW_AT_language(DW_LANG_C)
    1359                    .dwattr $C$DW$T$60, DW_AT_decl_file("D:/ti/ccsv6/tools/compiler/msp430_15.12.3.LTS/include/std
    1360                    .dwattr $C$DW$T$60, DW_AT_decl_line(0x4b)
    1361                    .dwattr $C$DW$T$60, DW_AT_decl_column(0x16)
    1362            
    1363            $C$DW$T$61      .dwtag  DW_TAG_typedef
    1364                    .dwattr $C$DW$T$61, DW_AT_name("uint_least32_t")
    1365                    .dwattr $C$DW$T$61, DW_AT_type(*$C$DW$T$27)
    1366                    .dwattr $C$DW$T$61, DW_AT_language(DW_LANG_C)
    1367                    .dwattr $C$DW$T$61, DW_AT_decl_file("D:/ti/ccsv6/tools/compiler/msp430_15.12.3.LTS/include/std
    1368                    .dwattr $C$DW$T$61, DW_AT_decl_line(0x3d)
    1369                    .dwattr $C$DW$T$61, DW_AT_decl_column(0x16)
    1370            
    1371            $C$DW$T$62      .dwtag  DW_TAG_typedef
    1372                    .dwattr $C$DW$T$62, DW_AT_name("uintptr_t")
    1373                    .dwattr $C$DW$T$62, DW_AT_type(*$C$DW$T$13)
    1374                    .dwattr $C$DW$T$62, DW_AT_language(DW_LANG_C)
    1375                    .dwattr $C$DW$T$62, DW_AT_decl_file("D:/ti/ccsv6/tools/compiler/msp430_15.12.3.LTS/include/std
    1376                    .dwattr $C$DW$T$62, DW_AT_decl_line(0x56)
    1377                    .dwattr $C$DW$T$62, DW_AT_decl_column(0x1b)
    1378            
    1379            $C$DW$T$14      .dwtag  DW_TAG_base_type
    1380                    .dwattr $C$DW$T$14, DW_AT_encoding(DW_ATE_signed)
    1381                    .dwattr $C$DW$T$14, DW_AT_name("long long")
    1382                    .dwattr $C$DW$T$14, DW_AT_byte_size(0x08)
    1383            
    1384            $C$DW$T$63      .dwtag  DW_TAG_typedef
    1385                    .dwattr $C$DW$T$63, DW_AT_name("int64_t")
    1386                    .dwattr $C$DW$T$63, DW_AT_type(*$C$DW$T$14)
    1387                    .dwattr $C$DW$T$63, DW_AT_language(DW_LANG_C)
    1388                    .dwattr $C$DW$T$63, DW_AT_decl_file("D:/ti/ccsv6/tools/compiler/msp430_15.12.3.LTS/include/std
    1389                    .dwattr $C$DW$T$63, DW_AT_decl_line(0x32)
    1390                    .dwattr $C$DW$T$63, DW_AT_decl_column(0x21)
    1391            
    1392            $C$DW$T$64      .dwtag  DW_TAG_typedef
    1393                    .dwattr $C$DW$T$64, DW_AT_name("int_fast64_t")
    1394                    .dwattr $C$DW$T$64, DW_AT_type(*$C$DW$T$63)
    1395                    .dwattr $C$DW$T$64, DW_AT_language(DW_LANG_C)
    1396                    .dwattr $C$DW$T$64, DW_AT_decl_file("D:/ti/ccsv6/tools/compiler/msp430_15.12.3.LTS/include/std
    1397                    .dwattr $C$DW$T$64, DW_AT_decl_line(0x4e)
    1398                    .dwattr $C$DW$T$64, DW_AT_decl_column(0x17)
    1399            
MSP430 Assembler PC v15.12.3 Mon Oct 17 14:33:04 2016

Tools Copyright (c) 2003-2015 Texas Instruments Incorporated
C:\Users\madis\AppData\Local\Temp\044362                             PAGE   28

    1400            $C$DW$T$65      .dwtag  DW_TAG_typedef
    1401                    .dwattr $C$DW$T$65, DW_AT_name("int_least64_t")
    1402                    .dwattr $C$DW$T$65, DW_AT_type(*$C$DW$T$63)
    1403                    .dwattr $C$DW$T$65, DW_AT_language(DW_LANG_C)
    1404                    .dwattr $C$DW$T$65, DW_AT_decl_file("D:/ti/ccsv6/tools/compiler/msp430_15.12.3.LTS/include/std
    1405                    .dwattr $C$DW$T$65, DW_AT_decl_line(0x40)
    1406                    .dwattr $C$DW$T$65, DW_AT_decl_column(0x17)
    1407            
    1408            $C$DW$T$66      .dwtag  DW_TAG_typedef
    1409                    .dwattr $C$DW$T$66, DW_AT_name("intmax_t")
    1410                    .dwattr $C$DW$T$66, DW_AT_type(*$C$DW$T$14)
    1411                    .dwattr $C$DW$T$66, DW_AT_language(DW_LANG_C)
    1412                    .dwattr $C$DW$T$66, DW_AT_decl_file("D:/ti/ccsv6/tools/compiler/msp430_15.12.3.LTS/include/std
    1413                    .dwattr $C$DW$T$66, DW_AT_decl_line(0x5d)
    1414                    .dwattr $C$DW$T$66, DW_AT_decl_column(0x20)
    1415            
    1416            $C$DW$T$15      .dwtag  DW_TAG_base_type
    1417                    .dwattr $C$DW$T$15, DW_AT_encoding(DW_ATE_unsigned)
    1418                    .dwattr $C$DW$T$15, DW_AT_name("unsigned long long")
    1419                    .dwattr $C$DW$T$15, DW_AT_byte_size(0x08)
    1420            
    1421            $C$DW$T$67      .dwtag  DW_TAG_typedef
    1422                    .dwattr $C$DW$T$67, DW_AT_name("uint64_t")
    1423                    .dwattr $C$DW$T$67, DW_AT_type(*$C$DW$T$15)
    1424                    .dwattr $C$DW$T$67, DW_AT_language(DW_LANG_C)
    1425                    .dwattr $C$DW$T$67, DW_AT_decl_file("D:/ti/ccsv6/tools/compiler/msp430_15.12.3.LTS/include/std
    1426                    .dwattr $C$DW$T$67, DW_AT_decl_line(0x33)
    1427                    .dwattr $C$DW$T$67, DW_AT_decl_column(0x20)
    1428            
    1429            $C$DW$T$68      .dwtag  DW_TAG_typedef
    1430                    .dwattr $C$DW$T$68, DW_AT_name("uint_fast64_t")
    1431                    .dwattr $C$DW$T$68, DW_AT_type(*$C$DW$T$67)
    1432                    .dwattr $C$DW$T$68, DW_AT_language(DW_LANG_C)
    1433                    .dwattr $C$DW$T$68, DW_AT_decl_file("D:/ti/ccsv6/tools/compiler/msp430_15.12.3.LTS/include/std
    1434                    .dwattr $C$DW$T$68, DW_AT_decl_line(0x4f)
    1435                    .dwattr $C$DW$T$68, DW_AT_decl_column(0x16)
    1436            
    1437            $C$DW$T$69      .dwtag  DW_TAG_typedef
    1438                    .dwattr $C$DW$T$69, DW_AT_name("uint_least64_t")
    1439                    .dwattr $C$DW$T$69, DW_AT_type(*$C$DW$T$67)
    1440                    .dwattr $C$DW$T$69, DW_AT_language(DW_LANG_C)
    1441                    .dwattr $C$DW$T$69, DW_AT_decl_file("D:/ti/ccsv6/tools/compiler/msp430_15.12.3.LTS/include/std
    1442                    .dwattr $C$DW$T$69, DW_AT_decl_line(0x41)
    1443                    .dwattr $C$DW$T$69, DW_AT_decl_column(0x16)
    1444            
    1445            $C$DW$T$70      .dwtag  DW_TAG_typedef
    1446                    .dwattr $C$DW$T$70, DW_AT_name("uintmax_t")
    1447                    .dwattr $C$DW$T$70, DW_AT_type(*$C$DW$T$15)
    1448                    .dwattr $C$DW$T$70, DW_AT_language(DW_LANG_C)
    1449                    .dwattr $C$DW$T$70, DW_AT_decl_file("D:/ti/ccsv6/tools/compiler/msp430_15.12.3.LTS/include/std
    1450                    .dwattr $C$DW$T$70, DW_AT_decl_line(0x5e)
    1451                    .dwattr $C$DW$T$70, DW_AT_decl_column(0x20)
    1452            
    1453            $C$DW$T$16      .dwtag  DW_TAG_base_type
    1454                    .dwattr $C$DW$T$16, DW_AT_encoding(DW_ATE_float)
MSP430 Assembler PC v15.12.3 Mon Oct 17 14:33:04 2016

Tools Copyright (c) 2003-2015 Texas Instruments Incorporated
C:\Users\madis\AppData\Local\Temp\044362                             PAGE   29

    1455                    .dwattr $C$DW$T$16, DW_AT_name("float")
    1456                    .dwattr $C$DW$T$16, DW_AT_byte_size(0x04)
    1457            
    1458            $C$DW$T$17      .dwtag  DW_TAG_base_type
    1459                    .dwattr $C$DW$T$17, DW_AT_encoding(DW_ATE_float)
    1460                    .dwattr $C$DW$T$17, DW_AT_name("double")
    1461                    .dwattr $C$DW$T$17, DW_AT_byte_size(0x08)
    1462            
    1463            $C$DW$T$18      .dwtag  DW_TAG_base_type
    1464                    .dwattr $C$DW$T$18, DW_AT_encoding(DW_ATE_float)
    1465                    .dwattr $C$DW$T$18, DW_AT_name("long double")
    1466                    .dwattr $C$DW$T$18, DW_AT_byte_size(0x08)
    1467            
    1468            $C$DW$T$71      .dwtag  DW_TAG_base_type
    1469                    .dwattr $C$DW$T$71, DW_AT_encoding(DW_ATE_unsigned_char)
    1470                    .dwattr $C$DW$T$71, DW_AT_name("unsigned char")
    1471                    .dwattr $C$DW$T$71, DW_AT_byte_size(0x01)
    1472            
    1473                    .dwattr $C$DW$CU, DW_AT_language(DW_LANG_C)
    1474            
    1475            ;***************************************************************
    1476            ;* DWARF CIE ENTRIES                                           *
    1477            ;***************************************************************
    1478            
    1479            $C$DW$CIE       .dwcie 16
    1480                    .dwcfi  cfa_register, 1
    1481                    .dwcfi  cfa_offset, 0
    1482                    .dwcfi  same_value, 0
    1483                    .dwcfi  same_value, 1
    1484                    .dwcfi  undefined, 2
    1485                    .dwcfi  same_value, 3
    1486                    .dwcfi  same_value, 4
    1487                    .dwcfi  same_value, 5
    1488                    .dwcfi  same_value, 6
    1489                    .dwcfi  same_value, 7
    1490                    .dwcfi  same_value, 8
    1491                    .dwcfi  same_value, 9
    1492                    .dwcfi  same_value, 10
    1493                    .dwcfi  undefined, 11
    1494                    .dwcfi  undefined, 12
    1495                    .dwcfi  undefined, 13
    1496                    .dwcfi  undefined, 14
    1497                    .dwcfi  undefined, 15
    1498                    .dwcfi  undefined, 16
    1499                    .dwendentry
    1500            
    1501            ;***************************************************************
    1502            ;* DWARF REGISTER MAP                                          *
    1503            ;***************************************************************
    1504            
    1505            $C$DW$65        .dwtag  DW_TAG_TI_assign_register
    1506                    .dwattr $C$DW$65, DW_AT_name("PC")
    1507                    .dwattr $C$DW$65, DW_AT_location[DW_OP_reg0]
    1508            
    1509            $C$DW$66        .dwtag  DW_TAG_TI_assign_register
MSP430 Assembler PC v15.12.3 Mon Oct 17 14:33:04 2016

Tools Copyright (c) 2003-2015 Texas Instruments Incorporated
C:\Users\madis\AppData\Local\Temp\044362                             PAGE   30

    1510                    .dwattr $C$DW$66, DW_AT_name("SP")
    1511                    .dwattr $C$DW$66, DW_AT_location[DW_OP_reg1]
    1512            
    1513            $C$DW$67        .dwtag  DW_TAG_TI_assign_register
    1514                    .dwattr $C$DW$67, DW_AT_name("SR")
    1515                    .dwattr $C$DW$67, DW_AT_location[DW_OP_reg2]
    1516            
    1517            $C$DW$68        .dwtag  DW_TAG_TI_assign_register
    1518                    .dwattr $C$DW$68, DW_AT_name("CG")
    1519                    .dwattr $C$DW$68, DW_AT_location[DW_OP_reg3]
    1520            
    1521            $C$DW$69        .dwtag  DW_TAG_TI_assign_register
    1522                    .dwattr $C$DW$69, DW_AT_name("r4")
    1523                    .dwattr $C$DW$69, DW_AT_location[DW_OP_reg4]
    1524            
    1525            $C$DW$70        .dwtag  DW_TAG_TI_assign_register
    1526                    .dwattr $C$DW$70, DW_AT_name("r5")
    1527                    .dwattr $C$DW$70, DW_AT_location[DW_OP_reg5]
    1528            
    1529            $C$DW$71        .dwtag  DW_TAG_TI_assign_register
    1530                    .dwattr $C$DW$71, DW_AT_name("r6")
    1531                    .dwattr $C$DW$71, DW_AT_location[DW_OP_reg6]
    1532            
    1533            $C$DW$72        .dwtag  DW_TAG_TI_assign_register
    1534                    .dwattr $C$DW$72, DW_AT_name("r7")
    1535                    .dwattr $C$DW$72, DW_AT_location[DW_OP_reg7]
    1536            
    1537            $C$DW$73        .dwtag  DW_TAG_TI_assign_register
    1538                    .dwattr $C$DW$73, DW_AT_name("r8")
    1539                    .dwattr $C$DW$73, DW_AT_location[DW_OP_reg8]
    1540            
    1541            $C$DW$74        .dwtag  DW_TAG_TI_assign_register
    1542                    .dwattr $C$DW$74, DW_AT_name("r9")
    1543                    .dwattr $C$DW$74, DW_AT_location[DW_OP_reg9]
    1544            
    1545            $C$DW$75        .dwtag  DW_TAG_TI_assign_register
    1546                    .dwattr $C$DW$75, DW_AT_name("r10")
    1547                    .dwattr $C$DW$75, DW_AT_location[DW_OP_reg10]
    1548            
    1549            $C$DW$76        .dwtag  DW_TAG_TI_assign_register
    1550                    .dwattr $C$DW$76, DW_AT_name("r11")
    1551                    .dwattr $C$DW$76, DW_AT_location[DW_OP_reg11]
    1552            
    1553            $C$DW$77        .dwtag  DW_TAG_TI_assign_register
    1554                    .dwattr $C$DW$77, DW_AT_name("r12")
    1555                    .dwattr $C$DW$77, DW_AT_location[DW_OP_reg12]
    1556            
    1557            $C$DW$78        .dwtag  DW_TAG_TI_assign_register
    1558                    .dwattr $C$DW$78, DW_AT_name("r13")
    1559                    .dwattr $C$DW$78, DW_AT_location[DW_OP_reg13]
    1560            
    1561            $C$DW$79        .dwtag  DW_TAG_TI_assign_register
    1562                    .dwattr $C$DW$79, DW_AT_name("r14")
    1563                    .dwattr $C$DW$79, DW_AT_location[DW_OP_reg14]
    1564            
MSP430 Assembler PC v15.12.3 Mon Oct 17 14:33:04 2016

Tools Copyright (c) 2003-2015 Texas Instruments Incorporated
C:\Users\madis\AppData\Local\Temp\044362                             PAGE   31

    1565            $C$DW$80        .dwtag  DW_TAG_TI_assign_register
    1566                    .dwattr $C$DW$80, DW_AT_name("r15")
    1567                    .dwattr $C$DW$80, DW_AT_location[DW_OP_reg15]
    1568            
    1569            $C$DW$81        .dwtag  DW_TAG_TI_assign_register
    1570                    .dwattr $C$DW$81, DW_AT_name("CIE_RETA")
    1571                    .dwattr $C$DW$81, DW_AT_location[DW_OP_reg16]
    1572            
    1573                    .dwendtag $C$DW$CU
    1574            

No Assembly Errors, No Assembly Warnings
