MSP430 Assembler PC v15.12.3 Wed Oct 12 11:17:26 2016

Tools Copyright (c) 2003-2015 Texas Instruments Incorporated
C:\Users\LokBok\AppData\Local\Temp\097882                            PAGE    1

       1            ;******************************************************************************
       2            ;* MSP430 C/C++ Codegen                                       PC v15.12.3.LTS *
       3            ;* Date/Time created: Wed Oct 12 11:17:26 2016                                *
       4            ;******************************************************************************
       5                    .compiler_opts --abi=eabi --diag_wrap=off --hll_source=on --mem_model:code=large --mem_model:d
       6            
       7            $C$DW$CU        .dwtag  DW_TAG_compile_unit
       8                    .dwattr $C$DW$CU, DW_AT_name("../initGpio.c")
       9                    .dwattr $C$DW$CU, DW_AT_producer("TI MSP430 C/C++ Codegen PC v15.12.3.LTS Copyright (c) 2003-2
      10                    .dwattr $C$DW$CU, DW_AT_TI_version(0x01)
      11                    .dwattr $C$DW$CU, DW_AT_comp_dir("D:\Programmeerimine\Code Composer WS\CardReader\src\Debug")
      12            
      13            $C$DW$1 .dwtag  DW_TAG_subprogram
      14                    .dwattr $C$DW$1, DW_AT_name("GPIO_setAsOutputPin")
      15                    .dwattr $C$DW$1, DW_AT_TI_symbol_name("GPIO_setAsOutputPin")
      16                    .dwattr $C$DW$1, DW_AT_declaration
      17                    .dwattr $C$DW$1, DW_AT_external
      18                    .dwattr $C$DW$1, DW_AT_decl_file("..\MSP430F5xx_6xx\gpio.h")
      19                    .dwattr $C$DW$1, DW_AT_decl_line(0xd0)
      20                    .dwattr $C$DW$1, DW_AT_decl_column(0x0d)
      21            $C$DW$2 .dwtag  DW_TAG_formal_parameter
      22                    .dwattr $C$DW$2, DW_AT_type(*$C$DW$T$19)
      23            
      24            $C$DW$3 .dwtag  DW_TAG_formal_parameter
      25                    .dwattr $C$DW$3, DW_AT_type(*$C$DW$T$21)
      26            
      27                    .dwendtag $C$DW$1
      28            
      29            
      30            $C$DW$4 .dwtag  DW_TAG_subprogram
      31                    .dwattr $C$DW$4, DW_AT_name("GPIO_setAsInputPin")
      32                    .dwattr $C$DW$4, DW_AT_TI_symbol_name("GPIO_setAsInputPin")
      33                    .dwattr $C$DW$4, DW_AT_declaration
      34                    .dwattr $C$DW$4, DW_AT_external
      35                    .dwattr $C$DW$4, DW_AT_decl_file("..\MSP430F5xx_6xx\gpio.h")
      36                    .dwattr $C$DW$4, DW_AT_decl_line(0x108)
      37                    .dwattr $C$DW$4, DW_AT_decl_column(0x0d)
      38            $C$DW$5 .dwtag  DW_TAG_formal_parameter
      39                    .dwattr $C$DW$5, DW_AT_type(*$C$DW$T$19)
      40            
      41            $C$DW$6 .dwtag  DW_TAG_formal_parameter
      42                    .dwattr $C$DW$6, DW_AT_type(*$C$DW$T$21)
      43            
      44                    .dwendtag $C$DW$4
      45            
      46            
      47            $C$DW$7 .dwtag  DW_TAG_subprogram
      48                    .dwattr $C$DW$7, DW_AT_name("GPIO_setOutputHighOnPin")
      49                    .dwattr $C$DW$7, DW_AT_TI_symbol_name("GPIO_setOutputHighOnPin")
      50                    .dwattr $C$DW$7, DW_AT_declaration
      51                    .dwattr $C$DW$7, DW_AT_external
      52                    .dwattr $C$DW$7, DW_AT_decl_file("..\MSP430F5xx_6xx\gpio.h")
      53                    .dwattr $C$DW$7, DW_AT_decl_line(0x1b5)
      54                    .dwattr $C$DW$7, DW_AT_decl_column(0x0d)
      55            $C$DW$8 .dwtag  DW_TAG_formal_parameter
MSP430 Assembler PC v15.12.3 Wed Oct 12 11:17:26 2016

Tools Copyright (c) 2003-2015 Texas Instruments Incorporated
C:\Users\LokBok\AppData\Local\Temp\097882                            PAGE    2

      56                    .dwattr $C$DW$8, DW_AT_type(*$C$DW$T$19)
      57            
      58            $C$DW$9 .dwtag  DW_TAG_formal_parameter
      59                    .dwattr $C$DW$9, DW_AT_type(*$C$DW$T$21)
      60            
      61                    .dwendtag $C$DW$7
      62            
      63            
      64            $C$DW$10        .dwtag  DW_TAG_subprogram
      65                    .dwattr $C$DW$10, DW_AT_name("GPIO_setOutputLowOnPin")
      66                    .dwattr $C$DW$10, DW_AT_TI_symbol_name("GPIO_setOutputLowOnPin")
      67                    .dwattr $C$DW$10, DW_AT_declaration
      68                    .dwattr $C$DW$10, DW_AT_external
      69                    .dwattr $C$DW$10, DW_AT_decl_file("..\MSP430F5xx_6xx\gpio.h")
      70                    .dwattr $C$DW$10, DW_AT_decl_line(0x1ec)
      71                    .dwattr $C$DW$10, DW_AT_decl_column(0x0d)
      72            $C$DW$11        .dwtag  DW_TAG_formal_parameter
      73                    .dwattr $C$DW$11, DW_AT_type(*$C$DW$T$19)
      74            
      75            $C$DW$12        .dwtag  DW_TAG_formal_parameter
      76                    .dwattr $C$DW$12, DW_AT_type(*$C$DW$T$21)
      77            
      78                    .dwendtag $C$DW$10
      79            
      80            
      81            $C$DW$13        .dwtag  DW_TAG_subprogram
      82                    .dwattr $C$DW$13, DW_AT_name("GPIO_setAsInputPinWithPullDownResistor")
      83                    .dwattr $C$DW$13, DW_AT_TI_symbol_name("GPIO_setAsInputPinWithPullDownResistor")
      84                    .dwattr $C$DW$13, DW_AT_declaration
      85                    .dwattr $C$DW$13, DW_AT_external
      86                    .dwattr $C$DW$13, DW_AT_decl_file("..\MSP430F5xx_6xx\gpio.h")
      87                    .dwattr $C$DW$13, DW_AT_decl_line(0x25c)
      88                    .dwattr $C$DW$13, DW_AT_decl_column(0x0d)
      89            $C$DW$14        .dwtag  DW_TAG_formal_parameter
      90                    .dwattr $C$DW$14, DW_AT_type(*$C$DW$T$19)
      91            
      92            $C$DW$15        .dwtag  DW_TAG_formal_parameter
      93                    .dwattr $C$DW$15, DW_AT_type(*$C$DW$T$21)
      94            
      95                    .dwendtag $C$DW$13
      96            
      97            
      98            $C$DW$16        .dwtag  DW_TAG_subprogram
      99                    .dwattr $C$DW$16, DW_AT_name("GPIO_setAsInputPinWithPullUpResistor")
     100                    .dwattr $C$DW$16, DW_AT_TI_symbol_name("GPIO_setAsInputPinWithPullUpResistor")
     101                    .dwattr $C$DW$16, DW_AT_declaration
     102                    .dwattr $C$DW$16, DW_AT_external
     103                    .dwattr $C$DW$16, DW_AT_decl_file("..\MSP430F5xx_6xx\gpio.h")
     104                    .dwattr $C$DW$16, DW_AT_decl_line(0x295)
     105                    .dwattr $C$DW$16, DW_AT_decl_column(0x0d)
     106            $C$DW$17        .dwtag  DW_TAG_formal_parameter
     107                    .dwattr $C$DW$17, DW_AT_type(*$C$DW$T$19)
     108            
     109            $C$DW$18        .dwtag  DW_TAG_formal_parameter
     110                    .dwattr $C$DW$18, DW_AT_type(*$C$DW$T$21)
MSP430 Assembler PC v15.12.3 Wed Oct 12 11:17:26 2016

Tools Copyright (c) 2003-2015 Texas Instruments Incorporated
C:\Users\LokBok\AppData\Local\Temp\097882                            PAGE    3

     111            
     112                    .dwendtag $C$DW$16
     113            
     114            ;       D:\Program Files\TI CCSv6\ccsv6\tools\compiler\msp430_15.12.3.LTS\bin\opt430.exe D:/Programmee
     115 000000               .sect   ".text:set_gpio"
     116                    .clink
     117                    .global set_gpio
     118            
     119            $C$DW$19        .dwtag  DW_TAG_subprogram
     120                    .dwattr $C$DW$19, DW_AT_name("set_gpio")
     121                    .dwattr $C$DW$19, DW_AT_low_pc(set_gpio)
     122                    .dwattr $C$DW$19, DW_AT_high_pc(0x00)
     123                    .dwattr $C$DW$19, DW_AT_TI_symbol_name("set_gpio")
     124                    .dwattr $C$DW$19, DW_AT_external
     125                    .dwattr $C$DW$19, DW_AT_TI_begin_file("../initGpio.c")
     126                    .dwattr $C$DW$19, DW_AT_TI_begin_line(0x09)
     127                    .dwattr $C$DW$19, DW_AT_TI_begin_column(0x06)
     128                    .dwattr $C$DW$19, DW_AT_decl_file("../initGpio.c")
     129                    .dwattr $C$DW$19, DW_AT_decl_line(0x09)
     130                    .dwattr $C$DW$19, DW_AT_decl_column(0x06)
     131                    .dwattr $C$DW$19, DW_AT_TI_max_frame_size(0x10)
     132                    .dwpsn  file "../initGpio.c",line 9,column 64,is_stmt,address set_gpio,isa 0
     133            
     134                    .dwfde $C$DW$CIE, set_gpio
     135            $C$DW$20        .dwtag  DW_TAG_formal_parameter
     136                    .dwattr $C$DW$20, DW_AT_name("port")
     137                    .dwattr $C$DW$20, DW_AT_TI_symbol_name("port")
     138                    .dwattr $C$DW$20, DW_AT_type(*$C$DW$T$19)
     139                    .dwattr $C$DW$20, DW_AT_location[DW_OP_reg12]
     140            
     141            $C$DW$21        .dwtag  DW_TAG_formal_parameter
     142                    .dwattr $C$DW$21, DW_AT_name("pins")
     143                    .dwattr $C$DW$21, DW_AT_TI_symbol_name("pins")
     144                    .dwattr $C$DW$21, DW_AT_type(*$C$DW$T$21)
     145                    .dwattr $C$DW$21, DW_AT_location[DW_OP_reg13]
     146            
     147            $C$DW$22        .dwtag  DW_TAG_formal_parameter
     148                    .dwattr $C$DW$22, DW_AT_name("IO")
     149                    .dwattr $C$DW$22, DW_AT_TI_symbol_name("IO")
     150                    .dwattr $C$DW$22, DW_AT_type(*$C$DW$T$10)
     151                    .dwattr $C$DW$22, DW_AT_location[DW_OP_reg14]
     152            
     153            $C$DW$23        .dwtag  DW_TAG_formal_parameter
     154                    .dwattr $C$DW$23, DW_AT_name("highlow")
     155                    .dwattr $C$DW$23, DW_AT_TI_symbol_name("highlow")
     156                    .dwattr $C$DW$23, DW_AT_type(*$C$DW$T$10)
     157                    .dwattr $C$DW$23, DW_AT_location[DW_OP_reg15]
     158            
     159            
     160            ;*****************************************************************************
     161            ;* FUNCTION NAME: set_gpio                                                   *
     162            ;*                                                                           *
     163            ;*   Regs Modified     : SP,SR,r8,r9,r10,r11,r12,r13,r14,r15                 *
     164            ;*   Regs Used         : SP,SR,r8,r9,r10,r11,r12,r13,r14,r15                 *
     165            ;*   Local Frame Size  : 0 Args + 0 Auto + 12 Save = 12 byte                 *
MSP430 Assembler PC v15.12.3 Wed Oct 12 11:17:26 2016

Tools Copyright (c) 2003-2015 Texas Instruments Incorporated
C:\Users\LokBok\AppData\Local\Temp\097882                            PAGE    4

     166            ;*****************************************************************************
     167 000000       set_gpio:
     168            ;* --------------------------------------------------------------------------*
     169                    .dwcfi  cfa_offset, 4
     170                    .dwcfi  save_reg_to_mem, 16, -4
     171 000000 142A          PUSHM.A   #3,r10                ; [] 
     172                    .dwcfi  save_reg_to_mem, 10, -8
     173                    .dwcfi  save_reg_to_mem, 9, -12
     174                    .dwcfi  save_reg_to_mem, 8, -16
     175                    .dwcfi  cfa_offset, 16
     176            ;* r8    assigned to port
     177            $C$DW$24        .dwtag  DW_TAG_variable
     178                    .dwattr $C$DW$24, DW_AT_name("port")
     179                    .dwattr $C$DW$24, DW_AT_TI_symbol_name("port")
     180                    .dwattr $C$DW$24, DW_AT_type(*$C$DW$T$19)
     181                    .dwattr $C$DW$24, DW_AT_location[DW_OP_reg8]
     182            
     183            ;* r9    assigned to pins
     184            $C$DW$25        .dwtag  DW_TAG_variable
     185                    .dwattr $C$DW$25, DW_AT_name("pins")
     186                    .dwattr $C$DW$25, DW_AT_TI_symbol_name("pins")
     187                    .dwattr $C$DW$25, DW_AT_type(*$C$DW$T$21)
     188                    .dwattr $C$DW$25, DW_AT_location[DW_OP_reg9]
     189            
     190            ;* r14   assigned to IO
     191            $C$DW$26        .dwtag  DW_TAG_variable
     192                    .dwattr $C$DW$26, DW_AT_name("IO")
     193                    .dwattr $C$DW$26, DW_AT_TI_symbol_name("IO")
     194                    .dwattr $C$DW$26, DW_AT_type(*$C$DW$T$10)
     195                    .dwattr $C$DW$26, DW_AT_location[DW_OP_reg14]
     196            
     197            ;* r10   assigned to highlow
     198            $C$DW$27        .dwtag  DW_TAG_variable
     199                    .dwattr $C$DW$27, DW_AT_name("highlow")
     200                    .dwattr $C$DW$27, DW_AT_TI_symbol_name("highlow")
     201                    .dwattr $C$DW$27, DW_AT_type(*$C$DW$T$10)
     202                    .dwattr $C$DW$27, DW_AT_location[DW_OP_reg10]
     203            
     204 000002 0FCA          MOVA      r15,r10               ; [] |9| 
     205 000004 0DC9          MOVA      r13,r9                ; [] |9| 
     206 000006 0CC8          MOVA      r12,r8                ; [] |9| 
     207                    .dwpsn  file "../initGpio.c",line 10,column 2,is_stmt,isa 0
     208 000008 930E          TST.W     r14                   ; [] |10| 
     209 00000a 2010          JNE       $C$L2                 ; [] |10| 
     210                                                      ; [] |10| 
     211            ;* --------------------------------------------------------------------------*
     212                    .dwpsn  file "../initGpio.c",line 11,column 3,is_stmt,isa 0
     213            $C$DW$28        .dwtag  DW_TAG_TI_branch
     214                    .dwattr $C$DW$28, DW_AT_low_pc(0x00)
     215                    .dwattr $C$DW$28, DW_AT_name("GPIO_setAsInputPin")
     216                    .dwattr $C$DW$28, DW_AT_TI_call
     217            
     218 00000c 13B0!         CALLA     #GPIO_setAsInputPin   ; [] |11| 
         00000e 0000 
     219                                                      ; [] |11| 
MSP430 Assembler PC v15.12.3 Wed Oct 12 11:17:26 2016

Tools Copyright (c) 2003-2015 Texas Instruments Incorporated
C:\Users\LokBok\AppData\Local\Temp\097882                            PAGE    5

     220                    .dwpsn  file "../initGpio.c",line 13,column 3,is_stmt,isa 0
     221 000010 930A          TST.W     r10                   ; [] |13| 
     222 000012 2407          JEQ       $C$L1                 ; [] |13| 
     223                                                      ; [] |13| 
     224            ;* --------------------------------------------------------------------------*
     225                    .dwpsn  file "../initGpio.c",line 16,column 8,is_stmt,isa 0
     226 000014 931A          CMP.W     #1,r10                ; [] |16| 
     227 000016 201B          JNE       $C$L4                 ; [] |16| 
     228                                                      ; [] |16| 
     229            ;* --------------------------------------------------------------------------*
     230                    .dwpsn  file "../initGpio.c",line 17,column 4,is_stmt,isa 0
     231 000018 08CC          MOVA      r8,r12                ; [] |17| 
     232 00001a 09CD          MOVA      r9,r13                ; [] |17| 
     233            $C$DW$29        .dwtag  DW_TAG_TI_branch
     234                    .dwattr $C$DW$29, DW_AT_low_pc(0x00)
     235                    .dwattr $C$DW$29, DW_AT_name("GPIO_setAsInputPinWithPullUpResistor")
     236                    .dwattr $C$DW$29, DW_AT_TI_call
     237            
     238 00001c 13B0!         CALLA     #GPIO_setAsInputPinWithPullUpResistor ; [] |17| 
         00001e 0000 
     239                                                      ; [] |17| 
     240 000020 3C16          JMP       $C$L4                 ; [] |17| 
     241                                                      ; [] |17| 
     242            ;* --------------------------------------------------------------------------*
     243 000022       $C$L1:    
     244                    .dwpsn  file "../initGpio.c",line 14,column 4,is_stmt,isa 0
     245 000022 08CC          MOVA      r8,r12                ; [] |14| 
     246 000024 09CD          MOVA      r9,r13                ; [] |14| 
     247            $C$DW$30        .dwtag  DW_TAG_TI_branch
     248                    .dwattr $C$DW$30, DW_AT_low_pc(0x00)
     249                    .dwattr $C$DW$30, DW_AT_name("GPIO_setAsInputPinWithPullDownResistor")
     250                    .dwattr $C$DW$30, DW_AT_TI_call
     251            
     252 000026 13B0!         CALLA     #GPIO_setAsInputPinWithPullDownResistor ; [] |14| 
         000028 0000 
     253                                                      ; [] |14| 
     254                    .dwpsn  file "../initGpio.c",line 15,column 3,is_stmt,isa 0
     255 00002a 3C11          JMP       $C$L4                 ; [] |15| 
     256                                                      ; [] |15| 
     257            ;* --------------------------------------------------------------------------*
     258 00002c       $C$L2:    
     259                    .dwpsn  file "../initGpio.c",line 20,column 7,is_stmt,isa 0
     260 00002c 931E          CMP.W     #1,r14                ; [] |20| 
     261 00002e 200F          JNE       $C$L4                 ; [] |20| 
     262                                                      ; [] |20| 
     263            ;* --------------------------------------------------------------------------*
     264                    .dwpsn  file "../initGpio.c",line 21,column 3,is_stmt,isa 0
     265            $C$DW$31        .dwtag  DW_TAG_TI_branch
     266                    .dwattr $C$DW$31, DW_AT_low_pc(0x00)
     267                    .dwattr $C$DW$31, DW_AT_name("GPIO_setAsOutputPin")
     268                    .dwattr $C$DW$31, DW_AT_TI_call
     269            
     270 000030 13B0!         CALLA     #GPIO_setAsOutputPin  ; [] |21| 
         000032 0000 
     271                                                      ; [] |21| 
MSP430 Assembler PC v15.12.3 Wed Oct 12 11:17:26 2016

Tools Copyright (c) 2003-2015 Texas Instruments Incorporated
C:\Users\LokBok\AppData\Local\Temp\097882                            PAGE    6

     272                    .dwpsn  file "../initGpio.c",line 23,column 3,is_stmt,isa 0
     273 000034 930A          TST.W     r10                   ; [] |23| 
     274 000036 2407          JEQ       $C$L3                 ; [] |23| 
     275                                                      ; [] |23| 
     276            ;* --------------------------------------------------------------------------*
     277                    .dwpsn  file "../initGpio.c",line 26,column 8,is_stmt,isa 0
     278 000038 931A          CMP.W     #1,r10                ; [] |26| 
     279 00003a 2009          JNE       $C$L4                 ; [] |26| 
     280                                                      ; [] |26| 
     281            ;* --------------------------------------------------------------------------*
     282                    .dwpsn  file "../initGpio.c",line 27,column 4,is_stmt,isa 0
     283 00003c 08CC          MOVA      r8,r12                ; [] |27| 
     284 00003e 09CD          MOVA      r9,r13                ; [] |27| 
     285            $C$DW$32        .dwtag  DW_TAG_TI_branch
     286                    .dwattr $C$DW$32, DW_AT_low_pc(0x00)
     287                    .dwattr $C$DW$32, DW_AT_name("GPIO_setOutputHighOnPin")
     288                    .dwattr $C$DW$32, DW_AT_TI_call
     289            
     290 000040 13B0!         CALLA     #GPIO_setOutputHighOnPin ; [] |27| 
         000042 0000 
     291                                                      ; [] |27| 
     292 000044 3C04          JMP       $C$L4                 ; [] |27| 
     293                                                      ; [] |27| 
     294            ;* --------------------------------------------------------------------------*
     295 000046       $C$L3:    
     296                    .dwpsn  file "../initGpio.c",line 24,column 4,is_stmt,isa 0
     297 000046 08CC          MOVA      r8,r12                ; [] |24| 
     298 000048 09CD          MOVA      r9,r13                ; [] |24| 
     299            $C$DW$33        .dwtag  DW_TAG_TI_branch
     300                    .dwattr $C$DW$33, DW_AT_low_pc(0x00)
     301                    .dwattr $C$DW$33, DW_AT_name("GPIO_setOutputLowOnPin")
     302                    .dwattr $C$DW$33, DW_AT_TI_call
     303            
     304 00004a 13B0!         CALLA     #GPIO_setOutputLowOnPin ; [] |24| 
         00004c 0000 
     305                                                      ; [] |24| 
     306            ;* --------------------------------------------------------------------------*
     307 00004e       $C$L4:    
     308                    .dwpsn  file "../initGpio.c",line 30,column 1,is_stmt,isa 0
     309 00004e 1628          POPM.A    #3,r10                ; [] 
     310                    .dwcfi  restore_reg, 8
     311                    .dwcfi  restore_reg, 9
     312                    .dwcfi  restore_reg, 10
     313                    .dwcfi  cfa_offset, 4
     314            $C$DW$34        .dwtag  DW_TAG_TI_branch
     315                    .dwattr $C$DW$34, DW_AT_low_pc(0x00)
     316                    .dwattr $C$DW$34, DW_AT_TI_return
     317            
     318 000050 0110          RETA      ; [] 
     319                    ; [] 
     320                    .dwattr $C$DW$19, DW_AT_TI_end_file("../initGpio.c")
     321                    .dwattr $C$DW$19, DW_AT_TI_end_line(0x1e)
     322                    .dwattr $C$DW$19, DW_AT_TI_end_column(0x01)
     323                    .dwendentry
     324                    .dwendtag $C$DW$19
MSP430 Assembler PC v15.12.3 Wed Oct 12 11:17:26 2016

Tools Copyright (c) 2003-2015 Texas Instruments Incorporated
C:\Users\LokBok\AppData\Local\Temp\097882                            PAGE    7

     325            
     326            ;*****************************************************************************
     327            ;* UNDEFINED EXTERNAL REFERENCES                                             *
     328            ;*****************************************************************************
     329                    .global GPIO_setAsOutputPin
     330                    .global GPIO_setAsInputPin
     331                    .global GPIO_setOutputHighOnPin
     332                    .global GPIO_setOutputLowOnPin
     333                    .global GPIO_setAsInputPinWithPullDownResistor
     334                    .global GPIO_setAsInputPinWithPullUpResistor
     335            
     336            ;******************************************************************************
     337            ;* BUILD ATTRIBUTES                                                           *
     338            ;******************************************************************************
     339                    .battr "TI", Tag_File, 1, Tag_LPM_INFO(1)
     340                    .battr "TI", Tag_File, 1, Tag_PORTS_INIT_INFO("012345678901ABCDEFGHIJ0000000000001111000000000
     341                    .battr "TI", Tag_File, 1, Tag_HW_MPY32_INFO(2)
     342                    .battr "TI", Tag_File, 1, Tag_HW_MPY_ISR_INFO(1)
     343                    .battr "TI", Tag_File, 1, Tag_HW_MPY_INLINE_INFO(1)
     344                    .battr "mspabi", Tag_File, 1, Tag_enum_size(3)
     345            
     346            ;******************************************************************************
     347            ;* TYPE INFORMATION                                                           *
     348            ;******************************************************************************
     349            
     350            $C$DW$T$20      .dwtag  DW_TAG_structure_type
     351                    .dwattr $C$DW$T$20, DW_AT_name("ADC12_A_configureMemoryParam")
     352                    .dwattr $C$DW$T$20, DW_AT_byte_size(0x05)
     353            $C$DW$35        .dwtag  DW_TAG_member
     354                    .dwattr $C$DW$35, DW_AT_type(*$C$DW$T$19)
     355                    .dwattr $C$DW$35, DW_AT_name("memoryBufferControlIndex")
     356                    .dwattr $C$DW$35, DW_AT_TI_symbol_name("memoryBufferControlIndex")
     357                    .dwattr $C$DW$35, DW_AT_data_member_location[DW_OP_plus_uconst 0x0]
     358                    .dwattr $C$DW$35, DW_AT_accessibility(DW_ACCESS_public)
     359                    .dwattr $C$DW$35, DW_AT_decl_file("..\MSP430F5xx_6xx\adc12_a.h")
     360                    .dwattr $C$DW$35, DW_AT_decl_line(0x53)
     361                    .dwattr $C$DW$35, DW_AT_decl_column(0x0d)
     362            
     363            $C$DW$36        .dwtag  DW_TAG_member
     364                    .dwattr $C$DW$36, DW_AT_type(*$C$DW$T$19)
     365                    .dwattr $C$DW$36, DW_AT_name("inputSourceSelect")
     366                    .dwattr $C$DW$36, DW_AT_TI_symbol_name("inputSourceSelect")
     367                    .dwattr $C$DW$36, DW_AT_data_member_location[DW_OP_plus_uconst 0x1]
     368                    .dwattr $C$DW$36, DW_AT_accessibility(DW_ACCESS_public)
     369                    .dwattr $C$DW$36, DW_AT_decl_file("..\MSP430F5xx_6xx\adc12_a.h")
     370                    .dwattr $C$DW$36, DW_AT_decl_line(0x67)
     371                    .dwattr $C$DW$36, DW_AT_decl_column(0x0d)
     372            
     373            $C$DW$37        .dwtag  DW_TAG_member
     374                    .dwattr $C$DW$37, DW_AT_type(*$C$DW$T$19)
     375                    .dwattr $C$DW$37, DW_AT_name("positiveRefVoltageSourceSelect")
     376                    .dwattr $C$DW$37, DW_AT_TI_symbol_name("positiveRefVoltageSourceSelect")
     377                    .dwattr $C$DW$37, DW_AT_data_member_location[DW_OP_plus_uconst 0x2]
     378                    .dwattr $C$DW$37, DW_AT_accessibility(DW_ACCESS_public)
     379                    .dwattr $C$DW$37, DW_AT_decl_file("..\MSP430F5xx_6xx\adc12_a.h")
MSP430 Assembler PC v15.12.3 Wed Oct 12 11:17:26 2016

Tools Copyright (c) 2003-2015 Texas Instruments Incorporated
C:\Users\LokBok\AppData\Local\Temp\097882                            PAGE    8

     380                    .dwattr $C$DW$37, DW_AT_decl_line(0x6e)
     381                    .dwattr $C$DW$37, DW_AT_decl_column(0x0d)
     382            
     383            $C$DW$38        .dwtag  DW_TAG_member
     384                    .dwattr $C$DW$38, DW_AT_type(*$C$DW$T$19)
     385                    .dwattr $C$DW$38, DW_AT_name("negativeRefVoltageSourceSelect")
     386                    .dwattr $C$DW$38, DW_AT_TI_symbol_name("negativeRefVoltageSourceSelect")
     387                    .dwattr $C$DW$38, DW_AT_data_member_location[DW_OP_plus_uconst 0x3]
     388                    .dwattr $C$DW$38, DW_AT_accessibility(DW_ACCESS_public)
     389                    .dwattr $C$DW$38, DW_AT_decl_file("..\MSP430F5xx_6xx\adc12_a.h")
     390                    .dwattr $C$DW$38, DW_AT_decl_line(0x74)
     391                    .dwattr $C$DW$38, DW_AT_decl_column(0x0d)
     392            
     393            $C$DW$39        .dwtag  DW_TAG_member
     394                    .dwattr $C$DW$39, DW_AT_type(*$C$DW$T$19)
     395                    .dwattr $C$DW$39, DW_AT_name("endOfSequence")
     396                    .dwattr $C$DW$39, DW_AT_TI_symbol_name("endOfSequence")
     397                    .dwattr $C$DW$39, DW_AT_data_member_location[DW_OP_plus_uconst 0x4]
     398                    .dwattr $C$DW$39, DW_AT_accessibility(DW_ACCESS_public)
     399                    .dwattr $C$DW$39, DW_AT_decl_file("..\MSP430F5xx_6xx\adc12_a.h")
     400                    .dwattr $C$DW$39, DW_AT_decl_line(0x7d)
     401                    .dwattr $C$DW$39, DW_AT_decl_column(0x0d)
     402            
     403                    .dwattr $C$DW$T$20, DW_AT_decl_file("..\MSP430F5xx_6xx\adc12_a.h")
     404                    .dwattr $C$DW$T$20, DW_AT_decl_line(0x3f)
     405                    .dwattr $C$DW$T$20, DW_AT_decl_column(0x10)
     406                    .dwendtag $C$DW$T$20
     407            
     408            $C$DW$T$57      .dwtag  DW_TAG_typedef
     409                    .dwattr $C$DW$T$57, DW_AT_name("ADC12_A_configureMemoryParam")
     410                    .dwattr $C$DW$T$57, DW_AT_type(*$C$DW$T$20)
     411                    .dwattr $C$DW$T$57, DW_AT_language(DW_LANG_C)
     412                    .dwattr $C$DW$T$57, DW_AT_decl_file("..\MSP430F5xx_6xx\adc12_a.h")
     413                    .dwattr $C$DW$T$57, DW_AT_decl_line(0x7e)
     414                    .dwattr $C$DW$T$57, DW_AT_decl_column(0x03)
     415            
     416            
     417            $C$DW$T$22      .dwtag  DW_TAG_structure_type
     418                    .dwattr $C$DW$T$22, DW_AT_name("Calendar")
     419                    .dwattr $C$DW$T$22, DW_AT_byte_size(0x08)
     420            $C$DW$40        .dwtag  DW_TAG_member
     421                    .dwattr $C$DW$40, DW_AT_type(*$C$DW$T$19)
     422                    .dwattr $C$DW$40, DW_AT_name("Seconds")
     423                    .dwattr $C$DW$40, DW_AT_TI_symbol_name("Seconds")
     424                    .dwattr $C$DW$40, DW_AT_data_member_location[DW_OP_plus_uconst 0x0]
     425                    .dwattr $C$DW$40, DW_AT_accessibility(DW_ACCESS_public)
     426                    .dwattr $C$DW$40, DW_AT_decl_file("..\MSP430F5xx_6xx\rtc_a.h")
     427                    .dwattr $C$DW$40, DW_AT_decl_line(0x5c)
     428                    .dwattr $C$DW$40, DW_AT_decl_column(0x0d)
     429            
     430            $C$DW$41        .dwtag  DW_TAG_member
     431                    .dwattr $C$DW$41, DW_AT_type(*$C$DW$T$19)
     432                    .dwattr $C$DW$41, DW_AT_name("Minutes")
     433                    .dwattr $C$DW$41, DW_AT_TI_symbol_name("Minutes")
     434                    .dwattr $C$DW$41, DW_AT_data_member_location[DW_OP_plus_uconst 0x1]
MSP430 Assembler PC v15.12.3 Wed Oct 12 11:17:26 2016

Tools Copyright (c) 2003-2015 Texas Instruments Incorporated
C:\Users\LokBok\AppData\Local\Temp\097882                            PAGE    9

     435                    .dwattr $C$DW$41, DW_AT_accessibility(DW_ACCESS_public)
     436                    .dwattr $C$DW$41, DW_AT_decl_file("..\MSP430F5xx_6xx\rtc_a.h")
     437                    .dwattr $C$DW$41, DW_AT_decl_line(0x5e)
     438                    .dwattr $C$DW$41, DW_AT_decl_column(0x0d)
     439            
     440            $C$DW$42        .dwtag  DW_TAG_member
     441                    .dwattr $C$DW$42, DW_AT_type(*$C$DW$T$19)
     442                    .dwattr $C$DW$42, DW_AT_name("Hours")
     443                    .dwattr $C$DW$42, DW_AT_TI_symbol_name("Hours")
     444                    .dwattr $C$DW$42, DW_AT_data_member_location[DW_OP_plus_uconst 0x2]
     445                    .dwattr $C$DW$42, DW_AT_accessibility(DW_ACCESS_public)
     446                    .dwattr $C$DW$42, DW_AT_decl_file("..\MSP430F5xx_6xx\rtc_a.h")
     447                    .dwattr $C$DW$42, DW_AT_decl_line(0x60)
     448                    .dwattr $C$DW$42, DW_AT_decl_column(0x0d)
     449            
     450            $C$DW$43        .dwtag  DW_TAG_member
     451                    .dwattr $C$DW$43, DW_AT_type(*$C$DW$T$19)
     452                    .dwattr $C$DW$43, DW_AT_name("DayOfWeek")
     453                    .dwattr $C$DW$43, DW_AT_TI_symbol_name("DayOfWeek")
     454                    .dwattr $C$DW$43, DW_AT_data_member_location[DW_OP_plus_uconst 0x3]
     455                    .dwattr $C$DW$43, DW_AT_accessibility(DW_ACCESS_public)
     456                    .dwattr $C$DW$43, DW_AT_decl_file("..\MSP430F5xx_6xx\rtc_a.h")
     457                    .dwattr $C$DW$43, DW_AT_decl_line(0x62)
     458                    .dwattr $C$DW$43, DW_AT_decl_column(0x0d)
     459            
     460            $C$DW$44        .dwtag  DW_TAG_member
     461                    .dwattr $C$DW$44, DW_AT_type(*$C$DW$T$19)
     462                    .dwattr $C$DW$44, DW_AT_name("DayOfMonth")
     463                    .dwattr $C$DW$44, DW_AT_TI_symbol_name("DayOfMonth")
     464                    .dwattr $C$DW$44, DW_AT_data_member_location[DW_OP_plus_uconst 0x4]
     465                    .dwattr $C$DW$44, DW_AT_accessibility(DW_ACCESS_public)
     466                    .dwattr $C$DW$44, DW_AT_decl_file("..\MSP430F5xx_6xx\rtc_a.h")
     467                    .dwattr $C$DW$44, DW_AT_decl_line(0x64)
     468                    .dwattr $C$DW$44, DW_AT_decl_column(0x0d)
     469            
     470            $C$DW$45        .dwtag  DW_TAG_member
     471                    .dwattr $C$DW$45, DW_AT_type(*$C$DW$T$19)
     472                    .dwattr $C$DW$45, DW_AT_name("Month")
     473                    .dwattr $C$DW$45, DW_AT_TI_symbol_name("Month")
     474                    .dwattr $C$DW$45, DW_AT_data_member_location[DW_OP_plus_uconst 0x5]
     475                    .dwattr $C$DW$45, DW_AT_accessibility(DW_ACCESS_public)
     476                    .dwattr $C$DW$45, DW_AT_decl_file("..\MSP430F5xx_6xx\rtc_a.h")
     477                    .dwattr $C$DW$45, DW_AT_decl_line(0x66)
     478                    .dwattr $C$DW$45, DW_AT_decl_column(0x0d)
     479            
     480            $C$DW$46        .dwtag  DW_TAG_member
     481                    .dwattr $C$DW$46, DW_AT_type(*$C$DW$T$21)
     482                    .dwattr $C$DW$46, DW_AT_name("Year")
     483                    .dwattr $C$DW$46, DW_AT_TI_symbol_name("Year")
     484                    .dwattr $C$DW$46, DW_AT_data_member_location[DW_OP_plus_uconst 0x6]
     485                    .dwattr $C$DW$46, DW_AT_accessibility(DW_ACCESS_public)
     486                    .dwattr $C$DW$46, DW_AT_decl_file("..\MSP430F5xx_6xx\rtc_a.h")
     487                    .dwattr $C$DW$46, DW_AT_decl_line(0x68)
     488                    .dwattr $C$DW$46, DW_AT_decl_column(0x0e)
     489            
MSP430 Assembler PC v15.12.3 Wed Oct 12 11:17:26 2016

Tools Copyright (c) 2003-2015 Texas Instruments Incorporated
C:\Users\LokBok\AppData\Local\Temp\097882                            PAGE   10

     490                    .dwattr $C$DW$T$22, DW_AT_decl_file("..\MSP430F5xx_6xx\rtc_a.h")
     491                    .dwattr $C$DW$T$22, DW_AT_decl_line(0x59)
     492                    .dwattr $C$DW$T$22, DW_AT_decl_column(0x10)
     493                    .dwendtag $C$DW$T$22
     494            
     495            $C$DW$T$58      .dwtag  DW_TAG_typedef
     496                    .dwattr $C$DW$T$58, DW_AT_name("Calendar")
     497                    .dwattr $C$DW$T$58, DW_AT_type(*$C$DW$T$22)
     498                    .dwattr $C$DW$T$58, DW_AT_language(DW_LANG_C)
     499                    .dwattr $C$DW$T$58, DW_AT_decl_file("..\MSP430F5xx_6xx\rtc_a.h")
     500                    .dwattr $C$DW$T$58, DW_AT_decl_line(0x69)
     501                    .dwattr $C$DW$T$58, DW_AT_decl_column(0x03)
     502            
     503            
     504            $C$DW$T$23      .dwtag  DW_TAG_structure_type
     505                    .dwattr $C$DW$T$23, DW_AT_name("Comp_B_configureReferenceVoltageParam")
     506                    .dwattr $C$DW$T$23, DW_AT_byte_size(0x08)
     507            $C$DW$47        .dwtag  DW_TAG_member
     508                    .dwattr $C$DW$47, DW_AT_type(*$C$DW$T$21)
     509                    .dwattr $C$DW$47, DW_AT_name("supplyVoltageReferenceBase")
     510                    .dwattr $C$DW$47, DW_AT_TI_symbol_name("supplyVoltageReferenceBase")
     511                    .dwattr $C$DW$47, DW_AT_data_member_location[DW_OP_plus_uconst 0x0]
     512                    .dwattr $C$DW$47, DW_AT_accessibility(DW_ACCESS_public)
     513                    .dwattr $C$DW$47, DW_AT_decl_file("..\MSP430F5xx_6xx\comp_b.h")
     514                    .dwattr $C$DW$47, DW_AT_decl_line(0x8e)
     515                    .dwattr $C$DW$47, DW_AT_decl_column(0x0e)
     516            
     517            $C$DW$48        .dwtag  DW_TAG_member
     518                    .dwattr $C$DW$48, DW_AT_type(*$C$DW$T$21)
     519                    .dwattr $C$DW$48, DW_AT_name("lowerLimitSupplyVoltageFractionOf32")
     520                    .dwattr $C$DW$48, DW_AT_TI_symbol_name("lowerLimitSupplyVoltageFractionOf32")
     521                    .dwattr $C$DW$48, DW_AT_data_member_location[DW_OP_plus_uconst 0x2]
     522                    .dwattr $C$DW$48, DW_AT_accessibility(DW_ACCESS_public)
     523                    .dwattr $C$DW$48, DW_AT_decl_file("..\MSP430F5xx_6xx\comp_b.h")
     524                    .dwattr $C$DW$48, DW_AT_decl_line(0x91)
     525                    .dwattr $C$DW$48, DW_AT_decl_column(0x0e)
     526            
     527            $C$DW$49        .dwtag  DW_TAG_member
     528                    .dwattr $C$DW$49, DW_AT_type(*$C$DW$T$21)
     529                    .dwattr $C$DW$49, DW_AT_name("upperLimitSupplyVoltageFractionOf32")
     530                    .dwattr $C$DW$49, DW_AT_TI_symbol_name("upperLimitSupplyVoltageFractionOf32")
     531                    .dwattr $C$DW$49, DW_AT_data_member_location[DW_OP_plus_uconst 0x4]
     532                    .dwattr $C$DW$49, DW_AT_accessibility(DW_ACCESS_public)
     533                    .dwattr $C$DW$49, DW_AT_decl_file("..\MSP430F5xx_6xx\comp_b.h")
     534                    .dwattr $C$DW$49, DW_AT_decl_line(0x94)
     535                    .dwattr $C$DW$49, DW_AT_decl_column(0x0e)
     536            
     537            $C$DW$50        .dwtag  DW_TAG_member
     538                    .dwattr $C$DW$50, DW_AT_type(*$C$DW$T$21)
     539                    .dwattr $C$DW$50, DW_AT_name("referenceAccuracy")
     540                    .dwattr $C$DW$50, DW_AT_TI_symbol_name("referenceAccuracy")
     541                    .dwattr $C$DW$50, DW_AT_data_member_location[DW_OP_plus_uconst 0x6]
     542                    .dwattr $C$DW$50, DW_AT_accessibility(DW_ACCESS_public)
     543                    .dwattr $C$DW$50, DW_AT_decl_file("..\MSP430F5xx_6xx\comp_b.h")
     544                    .dwattr $C$DW$50, DW_AT_decl_line(0x9a)
MSP430 Assembler PC v15.12.3 Wed Oct 12 11:17:26 2016

Tools Copyright (c) 2003-2015 Texas Instruments Incorporated
C:\Users\LokBok\AppData\Local\Temp\097882                            PAGE   11

     545                    .dwattr $C$DW$50, DW_AT_decl_column(0x0e)
     546            
     547                    .dwattr $C$DW$T$23, DW_AT_decl_file("..\MSP430F5xx_6xx\comp_b.h")
     548                    .dwattr $C$DW$T$23, DW_AT_decl_line(0x85)
     549                    .dwattr $C$DW$T$23, DW_AT_decl_column(0x10)
     550                    .dwendtag $C$DW$T$23
     551            
     552            $C$DW$T$59      .dwtag  DW_TAG_typedef
     553                    .dwattr $C$DW$T$59, DW_AT_name("Comp_B_configureReferenceVoltageParam")
     554                    .dwattr $C$DW$T$59, DW_AT_type(*$C$DW$T$23)
     555                    .dwattr $C$DW$T$59, DW_AT_language(DW_LANG_C)
     556                    .dwattr $C$DW$T$59, DW_AT_decl_file("..\MSP430F5xx_6xx\comp_b.h")
     557                    .dwattr $C$DW$T$59, DW_AT_decl_line(0x9b)
     558                    .dwattr $C$DW$T$59, DW_AT_decl_column(0x03)
     559            
     560            
     561            $C$DW$T$24      .dwtag  DW_TAG_structure_type
     562                    .dwattr $C$DW$T$24, DW_AT_name("Comp_B_initParam")
     563                    .dwattr $C$DW$T$24, DW_AT_byte_size(0x08)
     564            $C$DW$51        .dwtag  DW_TAG_member
     565                    .dwattr $C$DW$51, DW_AT_type(*$C$DW$T$19)
     566                    .dwattr $C$DW$51, DW_AT_name("positiveTerminalInput")
     567                    .dwattr $C$DW$51, DW_AT_TI_symbol_name("positiveTerminalInput")
     568                    .dwattr $C$DW$51, DW_AT_data_member_location[DW_OP_plus_uconst 0x0]
     569                    .dwattr $C$DW$51, DW_AT_accessibility(DW_ACCESS_public)
     570                    .dwattr $C$DW$51, DW_AT_decl_file("..\MSP430F5xx_6xx\comp_b.h")
     571                    .dwattr $C$DW$51, DW_AT_decl_line(0x53)
     572                    .dwattr $C$DW$51, DW_AT_decl_column(0x0d)
     573            
     574            $C$DW$52        .dwtag  DW_TAG_member
     575                    .dwattr $C$DW$52, DW_AT_type(*$C$DW$T$19)
     576                    .dwattr $C$DW$52, DW_AT_name("negativeTerminalInput")
     577                    .dwattr $C$DW$52, DW_AT_TI_symbol_name("negativeTerminalInput")
     578                    .dwattr $C$DW$52, DW_AT_data_member_location[DW_OP_plus_uconst 0x1]
     579                    .dwattr $C$DW$52, DW_AT_accessibility(DW_ACCESS_public)
     580                    .dwattr $C$DW$52, DW_AT_decl_file("..\MSP430F5xx_6xx\comp_b.h")
     581                    .dwattr $C$DW$52, DW_AT_decl_line(0x67)
     582                    .dwattr $C$DW$52, DW_AT_decl_column(0x0d)
     583            
     584            $C$DW$53        .dwtag  DW_TAG_member
     585                    .dwattr $C$DW$53, DW_AT_type(*$C$DW$T$21)
     586                    .dwattr $C$DW$53, DW_AT_name("powerModeSelect")
     587                    .dwattr $C$DW$53, DW_AT_TI_symbol_name("powerModeSelect")
     588                    .dwattr $C$DW$53, DW_AT_data_member_location[DW_OP_plus_uconst 0x2]
     589                    .dwattr $C$DW$53, DW_AT_accessibility(DW_ACCESS_public)
     590                    .dwattr $C$DW$53, DW_AT_decl_file("..\MSP430F5xx_6xx\comp_b.h")
     591                    .dwattr $C$DW$53, DW_AT_decl_line(0x6d)
     592                    .dwattr $C$DW$53, DW_AT_decl_column(0x0e)
     593            
     594            $C$DW$54        .dwtag  DW_TAG_member
     595                    .dwattr $C$DW$54, DW_AT_type(*$C$DW$T$19)
     596                    .dwattr $C$DW$54, DW_AT_name("outputFilterEnableAndDelayLevel")
     597                    .dwattr $C$DW$54, DW_AT_TI_symbol_name("outputFilterEnableAndDelayLevel")
     598                    .dwattr $C$DW$54, DW_AT_data_member_location[DW_OP_plus_uconst 0x4]
     599                    .dwattr $C$DW$54, DW_AT_accessibility(DW_ACCESS_public)
MSP430 Assembler PC v15.12.3 Wed Oct 12 11:17:26 2016

Tools Copyright (c) 2003-2015 Texas Instruments Incorporated
C:\Users\LokBok\AppData\Local\Temp\097882                            PAGE   12

     600                    .dwattr $C$DW$54, DW_AT_decl_file("..\MSP430F5xx_6xx\comp_b.h")
     601                    .dwattr $C$DW$54, DW_AT_decl_line(0x77)
     602                    .dwattr $C$DW$54, DW_AT_decl_column(0x0d)
     603            
     604            $C$DW$55        .dwtag  DW_TAG_member
     605                    .dwattr $C$DW$55, DW_AT_type(*$C$DW$T$21)
     606                    .dwattr $C$DW$55, DW_AT_name("invertedOutputPolarity")
     607                    .dwattr $C$DW$55, DW_AT_TI_symbol_name("invertedOutputPolarity")
     608                    .dwattr $C$DW$55, DW_AT_data_member_location[DW_OP_plus_uconst 0x6]
     609                    .dwattr $C$DW$55, DW_AT_accessibility(DW_ACCESS_public)
     610                    .dwattr $C$DW$55, DW_AT_decl_file("..\MSP430F5xx_6xx\comp_b.h")
     611                    .dwattr $C$DW$55, DW_AT_decl_line(0x7c)
     612                    .dwattr $C$DW$55, DW_AT_decl_column(0x0e)
     613            
     614                    .dwattr $C$DW$T$24, DW_AT_decl_file("..\MSP430F5xx_6xx\comp_b.h")
     615                    .dwattr $C$DW$T$24, DW_AT_decl_line(0x3e)
     616                    .dwattr $C$DW$T$24, DW_AT_decl_column(0x10)
     617                    .dwendtag $C$DW$T$24
     618            
     619            $C$DW$T$60      .dwtag  DW_TAG_typedef
     620                    .dwattr $C$DW$T$60, DW_AT_name("Comp_B_initParam")
     621                    .dwattr $C$DW$T$60, DW_AT_type(*$C$DW$T$24)
     622                    .dwattr $C$DW$T$60, DW_AT_language(DW_LANG_C)
     623                    .dwattr $C$DW$T$60, DW_AT_decl_file("..\MSP430F5xx_6xx\comp_b.h")
     624                    .dwattr $C$DW$T$60, DW_AT_decl_line(0x7d)
     625                    .dwattr $C$DW$T$60, DW_AT_decl_column(0x03)
     626            
     627            
     628            $C$DW$T$25      .dwtag  DW_TAG_structure_type
     629                    .dwattr $C$DW$T$25, DW_AT_name("DMA_initParam")
     630                    .dwattr $C$DW$T$25, DW_AT_byte_size(0x0a)
     631            $C$DW$56        .dwtag  DW_TAG_member
     632                    .dwattr $C$DW$56, DW_AT_type(*$C$DW$T$19)
     633                    .dwattr $C$DW$56, DW_AT_name("channelSelect")
     634                    .dwattr $C$DW$56, DW_AT_TI_symbol_name("channelSelect")
     635                    .dwattr $C$DW$56, DW_AT_data_member_location[DW_OP_plus_uconst 0x0]
     636                    .dwattr $C$DW$56, DW_AT_accessibility(DW_ACCESS_public)
     637                    .dwattr $C$DW$56, DW_AT_decl_file("..\MSP430F5xx_6xx\dma.h")
     638                    .dwattr $C$DW$56, DW_AT_decl_line(0x4a)
     639                    .dwattr $C$DW$56, DW_AT_decl_column(0x0d)
     640            
     641            $C$DW$57        .dwtag  DW_TAG_member
     642                    .dwattr $C$DW$57, DW_AT_type(*$C$DW$T$21)
     643                    .dwattr $C$DW$57, DW_AT_name("transferModeSelect")
     644                    .dwattr $C$DW$57, DW_AT_TI_symbol_name("transferModeSelect")
     645                    .dwattr $C$DW$57, DW_AT_data_member_location[DW_OP_plus_uconst 0x2]
     646                    .dwattr $C$DW$57, DW_AT_accessibility(DW_ACCESS_public)
     647                    .dwattr $C$DW$57, DW_AT_decl_file("..\MSP430F5xx_6xx\dma.h")
     648                    .dwattr $C$DW$57, DW_AT_decl_line(0x59)
     649                    .dwattr $C$DW$57, DW_AT_decl_column(0x0e)
     650            
     651            $C$DW$58        .dwtag  DW_TAG_member
     652                    .dwattr $C$DW$58, DW_AT_type(*$C$DW$T$21)
     653                    .dwattr $C$DW$58, DW_AT_name("transferSize")
     654                    .dwattr $C$DW$58, DW_AT_TI_symbol_name("transferSize")
MSP430 Assembler PC v15.12.3 Wed Oct 12 11:17:26 2016

Tools Copyright (c) 2003-2015 Texas Instruments Incorporated
C:\Users\LokBok\AppData\Local\Temp\097882                            PAGE   13

     655                    .dwattr $C$DW$58, DW_AT_data_member_location[DW_OP_plus_uconst 0x4]
     656                    .dwattr $C$DW$58, DW_AT_accessibility(DW_ACCESS_public)
     657                    .dwattr $C$DW$58, DW_AT_decl_file("..\MSP430F5xx_6xx\dma.h")
     658                    .dwattr $C$DW$58, DW_AT_decl_line(0x5d)
     659                    .dwattr $C$DW$58, DW_AT_decl_column(0x0e)
     660            
     661            $C$DW$59        .dwtag  DW_TAG_member
     662                    .dwattr $C$DW$59, DW_AT_type(*$C$DW$T$19)
     663                    .dwattr $C$DW$59, DW_AT_name("triggerSourceSelect")
     664                    .dwattr $C$DW$59, DW_AT_TI_symbol_name("triggerSourceSelect")
     665                    .dwattr $C$DW$59, DW_AT_data_member_location[DW_OP_plus_uconst 0x6]
     666                    .dwattr $C$DW$59, DW_AT_accessibility(DW_ACCESS_public)
     667                    .dwattr $C$DW$59, DW_AT_decl_file("..\MSP430F5xx_6xx\dma.h")
     668                    .dwattr $C$DW$59, DW_AT_decl_line(0x81)
     669                    .dwattr $C$DW$59, DW_AT_decl_column(0x0d)
     670            
     671            $C$DW$60        .dwtag  DW_TAG_member
     672                    .dwattr $C$DW$60, DW_AT_type(*$C$DW$T$19)
     673                    .dwattr $C$DW$60, DW_AT_name("transferUnitSelect")
     674                    .dwattr $C$DW$60, DW_AT_TI_symbol_name("transferUnitSelect")
     675                    .dwattr $C$DW$60, DW_AT_data_member_location[DW_OP_plus_uconst 0x7]
     676                    .dwattr $C$DW$60, DW_AT_accessibility(DW_ACCESS_public)
     677                    .dwattr $C$DW$60, DW_AT_decl_file("..\MSP430F5xx_6xx\dma.h")
     678                    .dwattr $C$DW$60, DW_AT_decl_line(0x88)
     679                    .dwattr $C$DW$60, DW_AT_decl_column(0x0d)
     680            
     681            $C$DW$61        .dwtag  DW_TAG_member
     682                    .dwattr $C$DW$61, DW_AT_type(*$C$DW$T$19)
     683                    .dwattr $C$DW$61, DW_AT_name("triggerTypeSelect")
     684                    .dwattr $C$DW$61, DW_AT_TI_symbol_name("triggerTypeSelect")
     685                    .dwattr $C$DW$61, DW_AT_data_member_location[DW_OP_plus_uconst 0x8]
     686                    .dwattr $C$DW$61, DW_AT_accessibility(DW_ACCESS_public)
     687                    .dwattr $C$DW$61, DW_AT_decl_file("..\MSP430F5xx_6xx\dma.h")
     688                    .dwattr $C$DW$61, DW_AT_decl_line(0x90)
     689                    .dwattr $C$DW$61, DW_AT_decl_column(0x0d)
     690            
     691                    .dwattr $C$DW$T$25, DW_AT_decl_file("..\MSP430F5xx_6xx\dma.h")
     692                    .dwattr $C$DW$T$25, DW_AT_decl_line(0x3e)
     693                    .dwattr $C$DW$T$25, DW_AT_decl_column(0x10)
     694                    .dwendtag $C$DW$T$25
     695            
     696            $C$DW$T$61      .dwtag  DW_TAG_typedef
     697                    .dwattr $C$DW$T$61, DW_AT_name("DMA_initParam")
     698                    .dwattr $C$DW$T$61, DW_AT_type(*$C$DW$T$25)
     699                    .dwattr $C$DW$T$61, DW_AT_language(DW_LANG_C)
     700                    .dwattr $C$DW$T$61, DW_AT_decl_file("..\MSP430F5xx_6xx\dma.h")
     701                    .dwattr $C$DW$T$61, DW_AT_decl_line(0x91)
     702                    .dwattr $C$DW$T$61, DW_AT_decl_column(0x03)
     703            
     704            
     705            $C$DW$T$29      .dwtag  DW_TAG_structure_type
     706                    .dwattr $C$DW$T$29, DW_AT_name("PMAP_initPortsParam")
     707                    .dwattr $C$DW$T$29, DW_AT_byte_size(0x0a)
     708            $C$DW$62        .dwtag  DW_TAG_member
     709                    .dwattr $C$DW$62, DW_AT_type(*$C$DW$T$27)
MSP430 Assembler PC v15.12.3 Wed Oct 12 11:17:26 2016

Tools Copyright (c) 2003-2015 Texas Instruments Incorporated
C:\Users\LokBok\AppData\Local\Temp\097882                            PAGE   14

     710                    .dwattr $C$DW$62, DW_AT_name("portMapping")
     711                    .dwattr $C$DW$62, DW_AT_TI_symbol_name("portMapping")
     712                    .dwattr $C$DW$62, DW_AT_data_member_location[DW_OP_plus_uconst 0x0]
     713                    .dwattr $C$DW$62, DW_AT_accessibility(DW_ACCESS_public)
     714                    .dwattr $C$DW$62, DW_AT_decl_file("..\MSP430F5xx_6xx\pmap.h")
     715                    .dwattr $C$DW$62, DW_AT_decl_line(0x41)
     716                    .dwattr $C$DW$62, DW_AT_decl_column(0x14)
     717            
     718            $C$DW$63        .dwtag  DW_TAG_member
     719                    .dwattr $C$DW$63, DW_AT_type(*$C$DW$T$28)
     720                    .dwattr $C$DW$63, DW_AT_name("PxMAPy")
     721                    .dwattr $C$DW$63, DW_AT_TI_symbol_name("PxMAPy")
     722                    .dwattr $C$DW$63, DW_AT_data_member_location[DW_OP_plus_uconst 0x4]
     723                    .dwattr $C$DW$63, DW_AT_accessibility(DW_ACCESS_public)
     724                    .dwattr $C$DW$63, DW_AT_decl_file("..\MSP430F5xx_6xx\pmap.h")
     725                    .dwattr $C$DW$63, DW_AT_decl_line(0x43)
     726                    .dwattr $C$DW$63, DW_AT_decl_column(0x0e)
     727            
     728            $C$DW$64        .dwtag  DW_TAG_member
     729                    .dwattr $C$DW$64, DW_AT_type(*$C$DW$T$19)
     730                    .dwattr $C$DW$64, DW_AT_name("numberOfPorts")
     731                    .dwattr $C$DW$64, DW_AT_TI_symbol_name("numberOfPorts")
     732                    .dwattr $C$DW$64, DW_AT_data_member_location[DW_OP_plus_uconst 0x8]
     733                    .dwattr $C$DW$64, DW_AT_accessibility(DW_ACCESS_public)
     734                    .dwattr $C$DW$64, DW_AT_decl_file("..\MSP430F5xx_6xx\pmap.h")
     735                    .dwattr $C$DW$64, DW_AT_decl_line(0x45)
     736                    .dwattr $C$DW$64, DW_AT_decl_column(0x0d)
     737            
     738            $C$DW$65        .dwtag  DW_TAG_member
     739                    .dwattr $C$DW$65, DW_AT_type(*$C$DW$T$19)
     740                    .dwattr $C$DW$65, DW_AT_name("portMapReconfigure")
     741                    .dwattr $C$DW$65, DW_AT_TI_symbol_name("portMapReconfigure")
     742                    .dwattr $C$DW$65, DW_AT_data_member_location[DW_OP_plus_uconst 0x9]
     743                    .dwattr $C$DW$65, DW_AT_accessibility(DW_ACCESS_public)
     744                    .dwattr $C$DW$65, DW_AT_decl_file("..\MSP430F5xx_6xx\pmap.h")
     745                    .dwattr $C$DW$65, DW_AT_decl_line(0x4a)
     746                    .dwattr $C$DW$65, DW_AT_decl_column(0x0d)
     747            
     748                    .dwattr $C$DW$T$29, DW_AT_decl_file("..\MSP430F5xx_6xx\pmap.h")
     749                    .dwattr $C$DW$T$29, DW_AT_decl_line(0x3e)
     750                    .dwattr $C$DW$T$29, DW_AT_decl_column(0x10)
     751                    .dwendtag $C$DW$T$29
     752            
     753            $C$DW$T$62      .dwtag  DW_TAG_typedef
     754                    .dwattr $C$DW$T$62, DW_AT_name("PMAP_initPortsParam")
     755                    .dwattr $C$DW$T$62, DW_AT_type(*$C$DW$T$29)
     756                    .dwattr $C$DW$T$62, DW_AT_language(DW_LANG_C)
     757                    .dwattr $C$DW$T$62, DW_AT_decl_file("..\MSP430F5xx_6xx\pmap.h")
     758                    .dwattr $C$DW$T$62, DW_AT_decl_line(0x4b)
     759                    .dwattr $C$DW$T$62, DW_AT_decl_column(0x03)
     760            
     761            
     762            $C$DW$T$30      .dwtag  DW_TAG_structure_type
     763                    .dwattr $C$DW$T$30, DW_AT_name("RTC_A_configureCalendarAlarmParam")
     764                    .dwattr $C$DW$T$30, DW_AT_byte_size(0x04)
MSP430 Assembler PC v15.12.3 Wed Oct 12 11:17:26 2016

Tools Copyright (c) 2003-2015 Texas Instruments Incorporated
C:\Users\LokBok\AppData\Local\Temp\097882                            PAGE   15

     765            $C$DW$66        .dwtag  DW_TAG_member
     766                    .dwattr $C$DW$66, DW_AT_type(*$C$DW$T$19)
     767                    .dwattr $C$DW$66, DW_AT_name("minutesAlarm")
     768                    .dwattr $C$DW$66, DW_AT_TI_symbol_name("minutesAlarm")
     769                    .dwattr $C$DW$66, DW_AT_data_member_location[DW_OP_plus_uconst 0x0]
     770                    .dwattr $C$DW$66, DW_AT_accessibility(DW_ACCESS_public)
     771                    .dwattr $C$DW$66, DW_AT_decl_file("..\MSP430F5xx_6xx\rtc_a.h")
     772                    .dwattr $C$DW$66, DW_AT_decl_line(0x44)
     773                    .dwattr $C$DW$66, DW_AT_decl_column(0x0d)
     774            
     775            $C$DW$67        .dwtag  DW_TAG_member
     776                    .dwattr $C$DW$67, DW_AT_type(*$C$DW$T$19)
     777                    .dwattr $C$DW$67, DW_AT_name("hoursAlarm")
     778                    .dwattr $C$DW$67, DW_AT_TI_symbol_name("hoursAlarm")
     779                    .dwattr $C$DW$67, DW_AT_data_member_location[DW_OP_plus_uconst 0x1]
     780                    .dwattr $C$DW$67, DW_AT_accessibility(DW_ACCESS_public)
     781                    .dwattr $C$DW$67, DW_AT_decl_file("..\MSP430F5xx_6xx\rtc_a.h")
     782                    .dwattr $C$DW$67, DW_AT_decl_line(0x48)
     783                    .dwattr $C$DW$67, DW_AT_decl_column(0x0d)
     784            
     785            $C$DW$68        .dwtag  DW_TAG_member
     786                    .dwattr $C$DW$68, DW_AT_type(*$C$DW$T$19)
     787                    .dwattr $C$DW$68, DW_AT_name("dayOfWeekAlarm")
     788                    .dwattr $C$DW$68, DW_AT_TI_symbol_name("dayOfWeekAlarm")
     789                    .dwattr $C$DW$68, DW_AT_data_member_location[DW_OP_plus_uconst 0x2]
     790                    .dwattr $C$DW$68, DW_AT_accessibility(DW_ACCESS_public)
     791                    .dwattr $C$DW$68, DW_AT_decl_file("..\MSP430F5xx_6xx\rtc_a.h")
     792                    .dwattr $C$DW$68, DW_AT_decl_line(0x4c)
     793                    .dwattr $C$DW$68, DW_AT_decl_column(0x0d)
     794            
     795            $C$DW$69        .dwtag  DW_TAG_member
     796                    .dwattr $C$DW$69, DW_AT_type(*$C$DW$T$19)
     797                    .dwattr $C$DW$69, DW_AT_name("dayOfMonthAlarm")
     798                    .dwattr $C$DW$69, DW_AT_TI_symbol_name("dayOfMonthAlarm")
     799                    .dwattr $C$DW$69, DW_AT_data_member_location[DW_OP_plus_uconst 0x3]
     800                    .dwattr $C$DW$69, DW_AT_accessibility(DW_ACCESS_public)
     801                    .dwattr $C$DW$69, DW_AT_decl_file("..\MSP430F5xx_6xx\rtc_a.h")
     802                    .dwattr $C$DW$69, DW_AT_decl_line(0x50)
     803                    .dwattr $C$DW$69, DW_AT_decl_column(0x0d)
     804            
     805                    .dwattr $C$DW$T$30, DW_AT_decl_file("..\MSP430F5xx_6xx\rtc_a.h")
     806                    .dwattr $C$DW$T$30, DW_AT_decl_line(0x3f)
     807                    .dwattr $C$DW$T$30, DW_AT_decl_column(0x10)
     808                    .dwendtag $C$DW$T$30
     809            
     810            $C$DW$T$63      .dwtag  DW_TAG_typedef
     811                    .dwattr $C$DW$T$63, DW_AT_name("RTC_A_configureCalendarAlarmParam")
     812                    .dwattr $C$DW$T$63, DW_AT_type(*$C$DW$T$30)
     813                    .dwattr $C$DW$T$63, DW_AT_language(DW_LANG_C)
     814                    .dwattr $C$DW$T$63, DW_AT_decl_file("..\MSP430F5xx_6xx\rtc_a.h")
     815                    .dwattr $C$DW$T$63, DW_AT_decl_line(0x51)
     816                    .dwattr $C$DW$T$63, DW_AT_decl_column(0x03)
     817            
     818            
     819            $C$DW$T$31      .dwtag  DW_TAG_structure_type
MSP430 Assembler PC v15.12.3 Wed Oct 12 11:17:26 2016

Tools Copyright (c) 2003-2015 Texas Instruments Incorporated
C:\Users\LokBok\AppData\Local\Temp\097882                            PAGE   16

     820                    .dwattr $C$DW$T$31, DW_AT_name("Timer_A_initCaptureModeParam")
     821                    .dwattr $C$DW$T$31, DW_AT_byte_size(0x0c)
     822            $C$DW$70        .dwtag  DW_TAG_member
     823                    .dwattr $C$DW$70, DW_AT_type(*$C$DW$T$21)
     824                    .dwattr $C$DW$70, DW_AT_name("captureRegister")
     825                    .dwattr $C$DW$70, DW_AT_TI_symbol_name("captureRegister")
     826                    .dwattr $C$DW$70, DW_AT_data_member_location[DW_OP_plus_uconst 0x0]
     827                    .dwattr $C$DW$70, DW_AT_accessibility(DW_ACCESS_public)
     828                    .dwattr $C$DW$70, DW_AT_decl_file("..\MSP430F5xx_6xx\timer_a.h")
     829                    .dwattr $C$DW$70, DW_AT_decl_line(0x89)
     830                    .dwattr $C$DW$70, DW_AT_decl_column(0x0e)
     831            
     832            $C$DW$71        .dwtag  DW_TAG_member
     833                    .dwattr $C$DW$71, DW_AT_type(*$C$DW$T$21)
     834                    .dwattr $C$DW$71, DW_AT_name("captureMode")
     835                    .dwattr $C$DW$71, DW_AT_TI_symbol_name("captureMode")
     836                    .dwattr $C$DW$71, DW_AT_data_member_location[DW_OP_plus_uconst 0x2]
     837                    .dwattr $C$DW$71, DW_AT_accessibility(DW_ACCESS_public)
     838                    .dwattr $C$DW$71, DW_AT_decl_file("..\MSP430F5xx_6xx\timer_a.h")
     839                    .dwattr $C$DW$71, DW_AT_decl_line(0x90)
     840                    .dwattr $C$DW$71, DW_AT_decl_column(0x0e)
     841            
     842            $C$DW$72        .dwtag  DW_TAG_member
     843                    .dwattr $C$DW$72, DW_AT_type(*$C$DW$T$21)
     844                    .dwattr $C$DW$72, DW_AT_name("captureInputSelect")
     845                    .dwattr $C$DW$72, DW_AT_TI_symbol_name("captureInputSelect")
     846                    .dwattr $C$DW$72, DW_AT_data_member_location[DW_OP_plus_uconst 0x4]
     847                    .dwattr $C$DW$72, DW_AT_accessibility(DW_ACCESS_public)
     848                    .dwattr $C$DW$72, DW_AT_decl_file("..\MSP430F5xx_6xx\timer_a.h")
     849                    .dwattr $C$DW$72, DW_AT_decl_line(0x97)
     850                    .dwattr $C$DW$72, DW_AT_decl_column(0x0e)
     851            
     852            $C$DW$73        .dwtag  DW_TAG_member
     853                    .dwattr $C$DW$73, DW_AT_type(*$C$DW$T$21)
     854                    .dwattr $C$DW$73, DW_AT_name("synchronizeCaptureSource")
     855                    .dwattr $C$DW$73, DW_AT_TI_symbol_name("synchronizeCaptureSource")
     856                    .dwattr $C$DW$73, DW_AT_data_member_location[DW_OP_plus_uconst 0x6]
     857                    .dwattr $C$DW$73, DW_AT_accessibility(DW_ACCESS_public)
     858                    .dwattr $C$DW$73, DW_AT_decl_file("..\MSP430F5xx_6xx\timer_a.h")
     859                    .dwattr $C$DW$73, DW_AT_decl_line(0x9c)
     860                    .dwattr $C$DW$73, DW_AT_decl_column(0x0e)
     861            
     862            $C$DW$74        .dwtag  DW_TAG_member
     863                    .dwattr $C$DW$74, DW_AT_type(*$C$DW$T$21)
     864                    .dwattr $C$DW$74, DW_AT_name("captureInterruptEnable")
     865                    .dwattr $C$DW$74, DW_AT_TI_symbol_name("captureInterruptEnable")
     866                    .dwattr $C$DW$74, DW_AT_data_member_location[DW_OP_plus_uconst 0x8]
     867                    .dwattr $C$DW$74, DW_AT_accessibility(DW_ACCESS_public)
     868                    .dwattr $C$DW$74, DW_AT_decl_file("..\MSP430F5xx_6xx\timer_a.h")
     869                    .dwattr $C$DW$74, DW_AT_decl_line(0xa1)
     870                    .dwattr $C$DW$74, DW_AT_decl_column(0x0e)
     871            
     872            $C$DW$75        .dwtag  DW_TAG_member
     873                    .dwattr $C$DW$75, DW_AT_type(*$C$DW$T$21)
     874                    .dwattr $C$DW$75, DW_AT_name("captureOutputMode")
MSP430 Assembler PC v15.12.3 Wed Oct 12 11:17:26 2016

Tools Copyright (c) 2003-2015 Texas Instruments Incorporated
C:\Users\LokBok\AppData\Local\Temp\097882                            PAGE   17

     875                    .dwattr $C$DW$75, DW_AT_TI_symbol_name("captureOutputMode")
     876                    .dwattr $C$DW$75, DW_AT_data_member_location[DW_OP_plus_uconst 0xa]
     877                    .dwattr $C$DW$75, DW_AT_accessibility(DW_ACCESS_public)
     878                    .dwattr $C$DW$75, DW_AT_decl_file("..\MSP430F5xx_6xx\timer_a.h")
     879                    .dwattr $C$DW$75, DW_AT_decl_line(0xac)
     880                    .dwattr $C$DW$75, DW_AT_decl_column(0x0e)
     881            
     882                    .dwattr $C$DW$T$31, DW_AT_decl_file("..\MSP430F5xx_6xx\timer_a.h")
     883                    .dwattr $C$DW$T$31, DW_AT_decl_line(0x7d)
     884                    .dwattr $C$DW$T$31, DW_AT_decl_column(0x10)
     885                    .dwendtag $C$DW$T$31
     886            
     887            $C$DW$T$64      .dwtag  DW_TAG_typedef
     888                    .dwattr $C$DW$T$64, DW_AT_name("Timer_A_initCaptureModeParam")
     889                    .dwattr $C$DW$T$64, DW_AT_type(*$C$DW$T$31)
     890                    .dwattr $C$DW$T$64, DW_AT_language(DW_LANG_C)
     891                    .dwattr $C$DW$T$64, DW_AT_decl_file("..\MSP430F5xx_6xx\timer_a.h")
     892                    .dwattr $C$DW$T$64, DW_AT_decl_line(0xad)
     893                    .dwattr $C$DW$T$64, DW_AT_decl_column(0x03)
     894            
     895            
     896            $C$DW$T$32      .dwtag  DW_TAG_structure_type
     897                    .dwattr $C$DW$T$32, DW_AT_name("Timer_A_initCompareModeParam")
     898                    .dwattr $C$DW$T$32, DW_AT_byte_size(0x08)
     899            $C$DW$76        .dwtag  DW_TAG_member
     900                    .dwattr $C$DW$76, DW_AT_type(*$C$DW$T$21)
     901                    .dwattr $C$DW$76, DW_AT_name("compareRegister")
     902                    .dwattr $C$DW$76, DW_AT_TI_symbol_name("compareRegister")
     903                    .dwattr $C$DW$76, DW_AT_data_member_location[DW_OP_plus_uconst 0x0]
     904                    .dwattr $C$DW$76, DW_AT_accessibility(DW_ACCESS_public)
     905                    .dwattr $C$DW$76, DW_AT_decl_file("..\MSP430F5xx_6xx\timer_a.h")
     906                    .dwattr $C$DW$76, DW_AT_decl_line(0x17a)
     907                    .dwattr $C$DW$76, DW_AT_decl_column(0x0e)
     908            
     909            $C$DW$77        .dwtag  DW_TAG_member
     910                    .dwattr $C$DW$77, DW_AT_type(*$C$DW$T$21)
     911                    .dwattr $C$DW$77, DW_AT_name("compareInterruptEnable")
     912                    .dwattr $C$DW$77, DW_AT_TI_symbol_name("compareInterruptEnable")
     913                    .dwattr $C$DW$77, DW_AT_data_member_location[DW_OP_plus_uconst 0x2]
     914                    .dwattr $C$DW$77, DW_AT_accessibility(DW_ACCESS_public)
     915                    .dwattr $C$DW$77, DW_AT_decl_file("..\MSP430F5xx_6xx\timer_a.h")
     916                    .dwattr $C$DW$77, DW_AT_decl_line(0x17f)
     917                    .dwattr $C$DW$77, DW_AT_decl_column(0x0e)
     918            
     919            $C$DW$78        .dwtag  DW_TAG_member
     920                    .dwattr $C$DW$78, DW_AT_type(*$C$DW$T$21)
     921                    .dwattr $C$DW$78, DW_AT_name("compareOutputMode")
     922                    .dwattr $C$DW$78, DW_AT_TI_symbol_name("compareOutputMode")
     923                    .dwattr $C$DW$78, DW_AT_data_member_location[DW_OP_plus_uconst 0x4]
     924                    .dwattr $C$DW$78, DW_AT_accessibility(DW_ACCESS_public)
     925                    .dwattr $C$DW$78, DW_AT_decl_file("..\MSP430F5xx_6xx\timer_a.h")
     926                    .dwattr $C$DW$78, DW_AT_decl_line(0x18a)
     927                    .dwattr $C$DW$78, DW_AT_decl_column(0x0e)
     928            
     929            $C$DW$79        .dwtag  DW_TAG_member
MSP430 Assembler PC v15.12.3 Wed Oct 12 11:17:26 2016

Tools Copyright (c) 2003-2015 Texas Instruments Incorporated
C:\Users\LokBok\AppData\Local\Temp\097882                            PAGE   18

     930                    .dwattr $C$DW$79, DW_AT_type(*$C$DW$T$21)
     931                    .dwattr $C$DW$79, DW_AT_name("compareValue")
     932                    .dwattr $C$DW$79, DW_AT_TI_symbol_name("compareValue")
     933                    .dwattr $C$DW$79, DW_AT_data_member_location[DW_OP_plus_uconst 0x6]
     934                    .dwattr $C$DW$79, DW_AT_accessibility(DW_ACCESS_public)
     935                    .dwattr $C$DW$79, DW_AT_decl_file("..\MSP430F5xx_6xx\timer_a.h")
     936                    .dwattr $C$DW$79, DW_AT_decl_line(0x18c)
     937                    .dwattr $C$DW$79, DW_AT_decl_column(0x0e)
     938            
     939                    .dwattr $C$DW$T$32, DW_AT_decl_file("..\MSP430F5xx_6xx\timer_a.h")
     940                    .dwattr $C$DW$T$32, DW_AT_decl_line(0x16e)
     941                    .dwattr $C$DW$T$32, DW_AT_decl_column(0x10)
     942                    .dwendtag $C$DW$T$32
     943            
     944            $C$DW$T$65      .dwtag  DW_TAG_typedef
     945                    .dwattr $C$DW$T$65, DW_AT_name("Timer_A_initCompareModeParam")
     946                    .dwattr $C$DW$T$65, DW_AT_type(*$C$DW$T$32)
     947                    .dwattr $C$DW$T$65, DW_AT_language(DW_LANG_C)
     948                    .dwattr $C$DW$T$65, DW_AT_decl_file("..\MSP430F5xx_6xx\timer_a.h")
     949                    .dwattr $C$DW$T$65, DW_AT_decl_line(0x18d)
     950                    .dwattr $C$DW$T$65, DW_AT_decl_column(0x03)
     951            
     952            
     953            $C$DW$T$34      .dwtag  DW_TAG_structure_type
     954                    .dwattr $C$DW$T$34, DW_AT_name("Timer_A_initContinuousModeParam")
     955                    .dwattr $C$DW$T$34, DW_AT_byte_size(0x0a)
     956            $C$DW$80        .dwtag  DW_TAG_member
     957                    .dwattr $C$DW$80, DW_AT_type(*$C$DW$T$21)
     958                    .dwattr $C$DW$80, DW_AT_name("clockSource")
     959                    .dwattr $C$DW$80, DW_AT_TI_symbol_name("clockSource")
     960                    .dwattr $C$DW$80, DW_AT_data_member_location[DW_OP_plus_uconst 0x0]
     961                    .dwattr $C$DW$80, DW_AT_accessibility(DW_ACCESS_public)
     962                    .dwattr $C$DW$80, DW_AT_decl_file("..\MSP430F5xx_6xx\timer_a.h")
     963                    .dwattr $C$DW$80, DW_AT_decl_line(0x50)
     964                    .dwattr $C$DW$80, DW_AT_decl_column(0x0e)
     965            
     966            $C$DW$81        .dwtag  DW_TAG_member
     967                    .dwattr $C$DW$81, DW_AT_type(*$C$DW$T$21)
     968                    .dwattr $C$DW$81, DW_AT_name("clockSourceDivider")
     969                    .dwattr $C$DW$81, DW_AT_TI_symbol_name("clockSourceDivider")
     970                    .dwattr $C$DW$81, DW_AT_data_member_location[DW_OP_plus_uconst 0x2]
     971                    .dwattr $C$DW$81, DW_AT_accessibility(DW_ACCESS_public)
     972                    .dwattr $C$DW$81, DW_AT_decl_file("..\MSP430F5xx_6xx\timer_a.h")
     973                    .dwattr $C$DW$81, DW_AT_decl_line(0x67)
     974                    .dwattr $C$DW$81, DW_AT_decl_column(0x0e)
     975            
     976            $C$DW$82        .dwtag  DW_TAG_member
     977                    .dwattr $C$DW$82, DW_AT_type(*$C$DW$T$21)
     978                    .dwattr $C$DW$82, DW_AT_name("timerInterruptEnable_TAIE")
     979                    .dwattr $C$DW$82, DW_AT_TI_symbol_name("timerInterruptEnable_TAIE")
     980                    .dwattr $C$DW$82, DW_AT_data_member_location[DW_OP_plus_uconst 0x4]
     981                    .dwattr $C$DW$82, DW_AT_accessibility(DW_ACCESS_public)
     982                    .dwattr $C$DW$82, DW_AT_decl_file("..\MSP430F5xx_6xx\timer_a.h")
     983                    .dwattr $C$DW$82, DW_AT_decl_line(0x6c)
     984                    .dwattr $C$DW$82, DW_AT_decl_column(0x0e)
MSP430 Assembler PC v15.12.3 Wed Oct 12 11:17:26 2016

Tools Copyright (c) 2003-2015 Texas Instruments Incorporated
C:\Users\LokBok\AppData\Local\Temp\097882                            PAGE   19

     985            
     986            $C$DW$83        .dwtag  DW_TAG_member
     987                    .dwattr $C$DW$83, DW_AT_type(*$C$DW$T$21)
     988                    .dwattr $C$DW$83, DW_AT_name("timerClear")
     989                    .dwattr $C$DW$83, DW_AT_TI_symbol_name("timerClear")
     990                    .dwattr $C$DW$83, DW_AT_data_member_location[DW_OP_plus_uconst 0x6]
     991                    .dwattr $C$DW$83, DW_AT_accessibility(DW_ACCESS_public)
     992                    .dwattr $C$DW$83, DW_AT_decl_file("..\MSP430F5xx_6xx\timer_a.h")
     993                    .dwattr $C$DW$83, DW_AT_decl_line(0x72)
     994                    .dwattr $C$DW$83, DW_AT_decl_column(0x0e)
     995            
     996            $C$DW$84        .dwtag  DW_TAG_member
     997                    .dwattr $C$DW$84, DW_AT_type(*$C$DW$T$33)
     998                    .dwattr $C$DW$84, DW_AT_name("startTimer")
     999                    .dwattr $C$DW$84, DW_AT_TI_symbol_name("startTimer")
    1000                    .dwattr $C$DW$84, DW_AT_data_member_location[DW_OP_plus_uconst 0x8]
    1001                    .dwattr $C$DW$84, DW_AT_accessibility(DW_ACCESS_public)
    1002                    .dwattr $C$DW$84, DW_AT_decl_file("..\MSP430F5xx_6xx\timer_a.h")
    1003                    .dwattr $C$DW$84, DW_AT_decl_line(0x74)
    1004                    .dwattr $C$DW$84, DW_AT_decl_column(0x0a)
    1005            
    1006                    .dwattr $C$DW$T$34, DW_AT_decl_file("..\MSP430F5xx_6xx\timer_a.h")
    1007                    .dwattr $C$DW$T$34, DW_AT_decl_line(0x48)
    1008                    .dwattr $C$DW$T$34, DW_AT_decl_column(0x10)
    1009                    .dwendtag $C$DW$T$34
    1010            
    1011            $C$DW$T$66      .dwtag  DW_TAG_typedef
    1012                    .dwattr $C$DW$T$66, DW_AT_name("Timer_A_initContinuousModeParam")
    1013                    .dwattr $C$DW$T$66, DW_AT_type(*$C$DW$T$34)
    1014                    .dwattr $C$DW$T$66, DW_AT_language(DW_LANG_C)
    1015                    .dwattr $C$DW$T$66, DW_AT_decl_file("..\MSP430F5xx_6xx\timer_a.h")
    1016                    .dwattr $C$DW$T$66, DW_AT_decl_line(0x75)
    1017                    .dwattr $C$DW$T$66, DW_AT_decl_column(0x03)
    1018            
    1019            
    1020            $C$DW$T$35      .dwtag  DW_TAG_structure_type
    1021                    .dwattr $C$DW$T$35, DW_AT_name("Timer_A_initUpDownModeParam")
    1022                    .dwattr $C$DW$T$35, DW_AT_byte_size(0x0e)
    1023            $C$DW$85        .dwtag  DW_TAG_member
    1024                    .dwattr $C$DW$85, DW_AT_type(*$C$DW$T$21)
    1025                    .dwattr $C$DW$85, DW_AT_name("clockSource")
    1026                    .dwattr $C$DW$85, DW_AT_TI_symbol_name("clockSource")
    1027                    .dwattr $C$DW$85, DW_AT_data_member_location[DW_OP_plus_uconst 0x0]
    1028                    .dwattr $C$DW$85, DW_AT_accessibility(DW_ACCESS_public)
    1029                    .dwattr $C$DW$85, DW_AT_decl_file("..\MSP430F5xx_6xx\timer_a.h")
    1030                    .dwattr $C$DW$85, DW_AT_decl_line(0xbd)
    1031                    .dwattr $C$DW$85, DW_AT_decl_column(0x0e)
    1032            
    1033            $C$DW$86        .dwtag  DW_TAG_member
    1034                    .dwattr $C$DW$86, DW_AT_type(*$C$DW$T$21)
    1035                    .dwattr $C$DW$86, DW_AT_name("clockSourceDivider")
    1036                    .dwattr $C$DW$86, DW_AT_TI_symbol_name("clockSourceDivider")
    1037                    .dwattr $C$DW$86, DW_AT_data_member_location[DW_OP_plus_uconst 0x2]
    1038                    .dwattr $C$DW$86, DW_AT_accessibility(DW_ACCESS_public)
    1039                    .dwattr $C$DW$86, DW_AT_decl_file("..\MSP430F5xx_6xx\timer_a.h")
MSP430 Assembler PC v15.12.3 Wed Oct 12 11:17:26 2016

Tools Copyright (c) 2003-2015 Texas Instruments Incorporated
C:\Users\LokBok\AppData\Local\Temp\097882                            PAGE   20

    1040                    .dwattr $C$DW$86, DW_AT_decl_line(0xd4)
    1041                    .dwattr $C$DW$86, DW_AT_decl_column(0x0e)
    1042            
    1043            $C$DW$87        .dwtag  DW_TAG_member
    1044                    .dwattr $C$DW$87, DW_AT_type(*$C$DW$T$21)
    1045                    .dwattr $C$DW$87, DW_AT_name("timerPeriod")
    1046                    .dwattr $C$DW$87, DW_AT_TI_symbol_name("timerPeriod")
    1047                    .dwattr $C$DW$87, DW_AT_data_member_location[DW_OP_plus_uconst 0x4]
    1048                    .dwattr $C$DW$87, DW_AT_accessibility(DW_ACCESS_public)
    1049                    .dwattr $C$DW$87, DW_AT_decl_file("..\MSP430F5xx_6xx\timer_a.h")
    1050                    .dwattr $C$DW$87, DW_AT_decl_line(0xd6)
    1051                    .dwattr $C$DW$87, DW_AT_decl_column(0x0e)
    1052            
    1053            $C$DW$88        .dwtag  DW_TAG_member
    1054                    .dwattr $C$DW$88, DW_AT_type(*$C$DW$T$21)
    1055                    .dwattr $C$DW$88, DW_AT_name("timerInterruptEnable_TAIE")
    1056                    .dwattr $C$DW$88, DW_AT_TI_symbol_name("timerInterruptEnable_TAIE")
    1057                    .dwattr $C$DW$88, DW_AT_data_member_location[DW_OP_plus_uconst 0x6]
    1058                    .dwattr $C$DW$88, DW_AT_accessibility(DW_ACCESS_public)
    1059                    .dwattr $C$DW$88, DW_AT_decl_file("..\MSP430F5xx_6xx\timer_a.h")
    1060                    .dwattr $C$DW$88, DW_AT_decl_line(0xdb)
    1061                    .dwattr $C$DW$88, DW_AT_decl_column(0x0e)
    1062            
    1063            $C$DW$89        .dwtag  DW_TAG_member
    1064                    .dwattr $C$DW$89, DW_AT_type(*$C$DW$T$21)
    1065                    .dwattr $C$DW$89, DW_AT_name("captureCompareInterruptEnable_CCR0_CCIE")
    1066                    .dwattr $C$DW$89, DW_AT_TI_symbol_name("captureCompareInterruptEnable_CCR0_CCIE")
    1067                    .dwattr $C$DW$89, DW_AT_data_member_location[DW_OP_plus_uconst 0x8]
    1068                    .dwattr $C$DW$89, DW_AT_accessibility(DW_ACCESS_public)
    1069                    .dwattr $C$DW$89, DW_AT_decl_file("..\MSP430F5xx_6xx\timer_a.h")
    1070                    .dwattr $C$DW$89, DW_AT_decl_line(0xe0)
    1071                    .dwattr $C$DW$89, DW_AT_decl_column(0x0e)
    1072            
    1073            $C$DW$90        .dwtag  DW_TAG_member
    1074                    .dwattr $C$DW$90, DW_AT_type(*$C$DW$T$21)
    1075                    .dwattr $C$DW$90, DW_AT_name("timerClear")
    1076                    .dwattr $C$DW$90, DW_AT_TI_symbol_name("timerClear")
    1077                    .dwattr $C$DW$90, DW_AT_data_member_location[DW_OP_plus_uconst 0xa]
    1078                    .dwattr $C$DW$90, DW_AT_accessibility(DW_ACCESS_public)
    1079                    .dwattr $C$DW$90, DW_AT_decl_file("..\MSP430F5xx_6xx\timer_a.h")
    1080                    .dwattr $C$DW$90, DW_AT_decl_line(0xe6)
    1081                    .dwattr $C$DW$90, DW_AT_decl_column(0x0e)
    1082            
    1083            $C$DW$91        .dwtag  DW_TAG_member
    1084                    .dwattr $C$DW$91, DW_AT_type(*$C$DW$T$33)
    1085                    .dwattr $C$DW$91, DW_AT_name("startTimer")
    1086                    .dwattr $C$DW$91, DW_AT_TI_symbol_name("startTimer")
    1087                    .dwattr $C$DW$91, DW_AT_data_member_location[DW_OP_plus_uconst 0xc]
    1088                    .dwattr $C$DW$91, DW_AT_accessibility(DW_ACCESS_public)
    1089                    .dwattr $C$DW$91, DW_AT_decl_file("..\MSP430F5xx_6xx\timer_a.h")
    1090                    .dwattr $C$DW$91, DW_AT_decl_line(0xe8)
    1091                    .dwattr $C$DW$91, DW_AT_decl_column(0x0a)
    1092            
    1093                    .dwattr $C$DW$T$35, DW_AT_decl_file("..\MSP430F5xx_6xx\timer_a.h")
    1094                    .dwattr $C$DW$T$35, DW_AT_decl_line(0xb5)
MSP430 Assembler PC v15.12.3 Wed Oct 12 11:17:26 2016

Tools Copyright (c) 2003-2015 Texas Instruments Incorporated
C:\Users\LokBok\AppData\Local\Temp\097882                            PAGE   21

    1095                    .dwattr $C$DW$T$35, DW_AT_decl_column(0x10)
    1096                    .dwendtag $C$DW$T$35
    1097            
    1098            $C$DW$T$67      .dwtag  DW_TAG_typedef
    1099                    .dwattr $C$DW$T$67, DW_AT_name("Timer_A_initUpDownModeParam")
    1100                    .dwattr $C$DW$T$67, DW_AT_type(*$C$DW$T$35)
    1101                    .dwattr $C$DW$T$67, DW_AT_language(DW_LANG_C)
    1102                    .dwattr $C$DW$T$67, DW_AT_decl_file("..\MSP430F5xx_6xx\timer_a.h")
    1103                    .dwattr $C$DW$T$67, DW_AT_decl_line(0xe9)
    1104                    .dwattr $C$DW$T$67, DW_AT_decl_column(0x03)
    1105            
    1106            
    1107            $C$DW$T$36      .dwtag  DW_TAG_structure_type
    1108                    .dwattr $C$DW$T$36, DW_AT_name("Timer_A_initUpModeParam")
    1109                    .dwattr $C$DW$T$36, DW_AT_byte_size(0x0e)
    1110            $C$DW$92        .dwtag  DW_TAG_member
    1111                    .dwattr $C$DW$92, DW_AT_type(*$C$DW$T$21)
    1112                    .dwattr $C$DW$92, DW_AT_name("clockSource")
    1113                    .dwattr $C$DW$92, DW_AT_TI_symbol_name("clockSource")
    1114                    .dwattr $C$DW$92, DW_AT_data_member_location[DW_OP_plus_uconst 0x0]
    1115                    .dwattr $C$DW$92, DW_AT_accessibility(DW_ACCESS_public)
    1116                    .dwattr $C$DW$92, DW_AT_decl_file("..\MSP430F5xx_6xx\timer_a.h")
    1117                    .dwattr $C$DW$92, DW_AT_decl_line(0x139)
    1118                    .dwattr $C$DW$92, DW_AT_decl_column(0x0e)
    1119            
    1120            $C$DW$93        .dwtag  DW_TAG_member
    1121                    .dwattr $C$DW$93, DW_AT_type(*$C$DW$T$21)
    1122                    .dwattr $C$DW$93, DW_AT_name("clockSourceDivider")
    1123                    .dwattr $C$DW$93, DW_AT_TI_symbol_name("clockSourceDivider")
    1124                    .dwattr $C$DW$93, DW_AT_data_member_location[DW_OP_plus_uconst 0x2]
    1125                    .dwattr $C$DW$93, DW_AT_accessibility(DW_ACCESS_public)
    1126                    .dwattr $C$DW$93, DW_AT_decl_file("..\MSP430F5xx_6xx\timer_a.h")
    1127                    .dwattr $C$DW$93, DW_AT_decl_line(0x150)
    1128                    .dwattr $C$DW$93, DW_AT_decl_column(0x0e)
    1129            
    1130            $C$DW$94        .dwtag  DW_TAG_member
    1131                    .dwattr $C$DW$94, DW_AT_type(*$C$DW$T$21)
    1132                    .dwattr $C$DW$94, DW_AT_name("timerPeriod")
    1133                    .dwattr $C$DW$94, DW_AT_TI_symbol_name("timerPeriod")
    1134                    .dwattr $C$DW$94, DW_AT_data_member_location[DW_OP_plus_uconst 0x4]
    1135                    .dwattr $C$DW$94, DW_AT_accessibility(DW_ACCESS_public)
    1136                    .dwattr $C$DW$94, DW_AT_decl_file("..\MSP430F5xx_6xx\timer_a.h")
    1137                    .dwattr $C$DW$94, DW_AT_decl_line(0x153)
    1138                    .dwattr $C$DW$94, DW_AT_decl_column(0x0e)
    1139            
    1140            $C$DW$95        .dwtag  DW_TAG_member
    1141                    .dwattr $C$DW$95, DW_AT_type(*$C$DW$T$21)
    1142                    .dwattr $C$DW$95, DW_AT_name("timerInterruptEnable_TAIE")
    1143                    .dwattr $C$DW$95, DW_AT_TI_symbol_name("timerInterruptEnable_TAIE")
    1144                    .dwattr $C$DW$95, DW_AT_data_member_location[DW_OP_plus_uconst 0x6]
    1145                    .dwattr $C$DW$95, DW_AT_accessibility(DW_ACCESS_public)
    1146                    .dwattr $C$DW$95, DW_AT_decl_file("..\MSP430F5xx_6xx\timer_a.h")
    1147                    .dwattr $C$DW$95, DW_AT_decl_line(0x158)
    1148                    .dwattr $C$DW$95, DW_AT_decl_column(0x0e)
    1149            
MSP430 Assembler PC v15.12.3 Wed Oct 12 11:17:26 2016

Tools Copyright (c) 2003-2015 Texas Instruments Incorporated
C:\Users\LokBok\AppData\Local\Temp\097882                            PAGE   22

    1150            $C$DW$96        .dwtag  DW_TAG_member
    1151                    .dwattr $C$DW$96, DW_AT_type(*$C$DW$T$21)
    1152                    .dwattr $C$DW$96, DW_AT_name("captureCompareInterruptEnable_CCR0_CCIE")
    1153                    .dwattr $C$DW$96, DW_AT_TI_symbol_name("captureCompareInterruptEnable_CCR0_CCIE")
    1154                    .dwattr $C$DW$96, DW_AT_data_member_location[DW_OP_plus_uconst 0x8]
    1155                    .dwattr $C$DW$96, DW_AT_accessibility(DW_ACCESS_public)
    1156                    .dwattr $C$DW$96, DW_AT_decl_file("..\MSP430F5xx_6xx\timer_a.h")
    1157                    .dwattr $C$DW$96, DW_AT_decl_line(0x15d)
    1158                    .dwattr $C$DW$96, DW_AT_decl_column(0x0e)
    1159            
    1160            $C$DW$97        .dwtag  DW_TAG_member
    1161                    .dwattr $C$DW$97, DW_AT_type(*$C$DW$T$21)
    1162                    .dwattr $C$DW$97, DW_AT_name("timerClear")
    1163                    .dwattr $C$DW$97, DW_AT_TI_symbol_name("timerClear")
    1164                    .dwattr $C$DW$97, DW_AT_data_member_location[DW_OP_plus_uconst 0xa]
    1165                    .dwattr $C$DW$97, DW_AT_accessibility(DW_ACCESS_public)
    1166                    .dwattr $C$DW$97, DW_AT_decl_file("..\MSP430F5xx_6xx\timer_a.h")
    1167                    .dwattr $C$DW$97, DW_AT_decl_line(0x163)
    1168                    .dwattr $C$DW$97, DW_AT_decl_column(0x0e)
    1169            
    1170            $C$DW$98        .dwtag  DW_TAG_member
    1171                    .dwattr $C$DW$98, DW_AT_type(*$C$DW$T$33)
    1172                    .dwattr $C$DW$98, DW_AT_name("startTimer")
    1173                    .dwattr $C$DW$98, DW_AT_TI_symbol_name("startTimer")
    1174                    .dwattr $C$DW$98, DW_AT_data_member_location[DW_OP_plus_uconst 0xc]
    1175                    .dwattr $C$DW$98, DW_AT_accessibility(DW_ACCESS_public)
    1176                    .dwattr $C$DW$98, DW_AT_decl_file("..\MSP430F5xx_6xx\timer_a.h")
    1177                    .dwattr $C$DW$98, DW_AT_decl_line(0x165)
    1178                    .dwattr $C$DW$98, DW_AT_decl_column(0x0a)
    1179            
    1180                    .dwattr $C$DW$T$36, DW_AT_decl_file("..\MSP430F5xx_6xx\timer_a.h")
    1181                    .dwattr $C$DW$T$36, DW_AT_decl_line(0x131)
    1182                    .dwattr $C$DW$T$36, DW_AT_decl_column(0x10)
    1183                    .dwendtag $C$DW$T$36
    1184            
    1185            $C$DW$T$68      .dwtag  DW_TAG_typedef
    1186                    .dwattr $C$DW$T$68, DW_AT_name("Timer_A_initUpModeParam")
    1187                    .dwattr $C$DW$T$68, DW_AT_type(*$C$DW$T$36)
    1188                    .dwattr $C$DW$T$68, DW_AT_language(DW_LANG_C)
    1189                    .dwattr $C$DW$T$68, DW_AT_decl_file("..\MSP430F5xx_6xx\timer_a.h")
    1190                    .dwattr $C$DW$T$68, DW_AT_decl_line(0x166)
    1191                    .dwattr $C$DW$T$68, DW_AT_decl_column(0x03)
    1192            
    1193            
    1194            $C$DW$T$37      .dwtag  DW_TAG_structure_type
    1195                    .dwattr $C$DW$T$37, DW_AT_name("Timer_A_outputPWMParam")
    1196                    .dwattr $C$DW$T$37, DW_AT_byte_size(0x0c)
    1197            $C$DW$99        .dwtag  DW_TAG_member
    1198                    .dwattr $C$DW$99, DW_AT_type(*$C$DW$T$21)
    1199                    .dwattr $C$DW$99, DW_AT_name("clockSource")
    1200                    .dwattr $C$DW$99, DW_AT_TI_symbol_name("clockSource")
    1201                    .dwattr $C$DW$99, DW_AT_data_member_location[DW_OP_plus_uconst 0x0]
    1202                    .dwattr $C$DW$99, DW_AT_accessibility(DW_ACCESS_public)
    1203                    .dwattr $C$DW$99, DW_AT_decl_file("..\MSP430F5xx_6xx\timer_a.h")
    1204                    .dwattr $C$DW$99, DW_AT_decl_line(0xf8)
MSP430 Assembler PC v15.12.3 Wed Oct 12 11:17:26 2016

Tools Copyright (c) 2003-2015 Texas Instruments Incorporated
C:\Users\LokBok\AppData\Local\Temp\097882                            PAGE   23

    1205                    .dwattr $C$DW$99, DW_AT_decl_column(0x0e)
    1206            
    1207            $C$DW$100       .dwtag  DW_TAG_member
    1208                    .dwattr $C$DW$100, DW_AT_type(*$C$DW$T$21)
    1209                    .dwattr $C$DW$100, DW_AT_name("clockSourceDivider")
    1210                    .dwattr $C$DW$100, DW_AT_TI_symbol_name("clockSourceDivider")
    1211                    .dwattr $C$DW$100, DW_AT_data_member_location[DW_OP_plus_uconst 0x2]
    1212                    .dwattr $C$DW$100, DW_AT_accessibility(DW_ACCESS_public)
    1213                    .dwattr $C$DW$100, DW_AT_decl_file("..\MSP430F5xx_6xx\timer_a.h")
    1214                    .dwattr $C$DW$100, DW_AT_decl_line(0x10f)
    1215                    .dwattr $C$DW$100, DW_AT_decl_column(0x0e)
    1216            
    1217            $C$DW$101       .dwtag  DW_TAG_member
    1218                    .dwattr $C$DW$101, DW_AT_type(*$C$DW$T$21)
    1219                    .dwattr $C$DW$101, DW_AT_name("timerPeriod")
    1220                    .dwattr $C$DW$101, DW_AT_TI_symbol_name("timerPeriod")
    1221                    .dwattr $C$DW$101, DW_AT_data_member_location[DW_OP_plus_uconst 0x4]
    1222                    .dwattr $C$DW$101, DW_AT_accessibility(DW_ACCESS_public)
    1223                    .dwattr $C$DW$101, DW_AT_decl_file("..\MSP430F5xx_6xx\timer_a.h")
    1224                    .dwattr $C$DW$101, DW_AT_decl_line(0x111)
    1225                    .dwattr $C$DW$101, DW_AT_decl_column(0x0e)
    1226            
    1227            $C$DW$102       .dwtag  DW_TAG_member
    1228                    .dwattr $C$DW$102, DW_AT_type(*$C$DW$T$21)
    1229                    .dwattr $C$DW$102, DW_AT_name("compareRegister")
    1230                    .dwattr $C$DW$102, DW_AT_TI_symbol_name("compareRegister")
    1231                    .dwattr $C$DW$102, DW_AT_data_member_location[DW_OP_plus_uconst 0x6]
    1232                    .dwattr $C$DW$102, DW_AT_accessibility(DW_ACCESS_public)
    1233                    .dwattr $C$DW$102, DW_AT_decl_file("..\MSP430F5xx_6xx\timer_a.h")
    1234                    .dwattr $C$DW$102, DW_AT_decl_line(0x11c)
    1235                    .dwattr $C$DW$102, DW_AT_decl_column(0x0e)
    1236            
    1237            $C$DW$103       .dwtag  DW_TAG_member
    1238                    .dwattr $C$DW$103, DW_AT_type(*$C$DW$T$21)
    1239                    .dwattr $C$DW$103, DW_AT_name("compareOutputMode")
    1240                    .dwattr $C$DW$103, DW_AT_TI_symbol_name("compareOutputMode")
    1241                    .dwattr $C$DW$103, DW_AT_data_member_location[DW_OP_plus_uconst 0x8]
    1242                    .dwattr $C$DW$103, DW_AT_accessibility(DW_ACCESS_public)
    1243                    .dwattr $C$DW$103, DW_AT_decl_file("..\MSP430F5xx_6xx\timer_a.h")
    1244                    .dwattr $C$DW$103, DW_AT_decl_line(0x127)
    1245                    .dwattr $C$DW$103, DW_AT_decl_column(0x0e)
    1246            
    1247            $C$DW$104       .dwtag  DW_TAG_member
    1248                    .dwattr $C$DW$104, DW_AT_type(*$C$DW$T$21)
    1249                    .dwattr $C$DW$104, DW_AT_name("dutyCycle")
    1250                    .dwattr $C$DW$104, DW_AT_TI_symbol_name("dutyCycle")
    1251                    .dwattr $C$DW$104, DW_AT_data_member_location[DW_OP_plus_uconst 0xa]
    1252                    .dwattr $C$DW$104, DW_AT_accessibility(DW_ACCESS_public)
    1253                    .dwattr $C$DW$104, DW_AT_decl_file("..\MSP430F5xx_6xx\timer_a.h")
    1254                    .dwattr $C$DW$104, DW_AT_decl_line(0x129)
    1255                    .dwattr $C$DW$104, DW_AT_decl_column(0x0e)
    1256            
    1257                    .dwattr $C$DW$T$37, DW_AT_decl_file("..\MSP430F5xx_6xx\timer_a.h")
    1258                    .dwattr $C$DW$T$37, DW_AT_decl_line(0xf0)
    1259                    .dwattr $C$DW$T$37, DW_AT_decl_column(0x10)
MSP430 Assembler PC v15.12.3 Wed Oct 12 11:17:26 2016

Tools Copyright (c) 2003-2015 Texas Instruments Incorporated
C:\Users\LokBok\AppData\Local\Temp\097882                            PAGE   24

    1260                    .dwendtag $C$DW$T$37
    1261            
    1262            $C$DW$T$69      .dwtag  DW_TAG_typedef
    1263                    .dwattr $C$DW$T$69, DW_AT_name("Timer_A_outputPWMParam")
    1264                    .dwattr $C$DW$T$69, DW_AT_type(*$C$DW$T$37)
    1265                    .dwattr $C$DW$T$69, DW_AT_language(DW_LANG_C)
    1266                    .dwattr $C$DW$T$69, DW_AT_decl_file("..\MSP430F5xx_6xx\timer_a.h")
    1267                    .dwattr $C$DW$T$69, DW_AT_decl_line(0x12a)
    1268                    .dwattr $C$DW$T$69, DW_AT_decl_column(0x03)
    1269            
    1270            
    1271            $C$DW$T$38      .dwtag  DW_TAG_structure_type
    1272                    .dwattr $C$DW$T$38, DW_AT_name("Timer_B_initCaptureModeParam")
    1273                    .dwattr $C$DW$T$38, DW_AT_byte_size(0x0c)
    1274            $C$DW$105       .dwtag  DW_TAG_member
    1275                    .dwattr $C$DW$105, DW_AT_type(*$C$DW$T$21)
    1276                    .dwattr $C$DW$105, DW_AT_name("captureRegister")
    1277                    .dwattr $C$DW$105, DW_AT_TI_symbol_name("captureRegister")
    1278                    .dwattr $C$DW$105, DW_AT_data_member_location[DW_OP_plus_uconst 0x0]
    1279                    .dwattr $C$DW$105, DW_AT_accessibility(DW_ACCESS_public)
    1280                    .dwattr $C$DW$105, DW_AT_decl_file("..\MSP430F5xx_6xx\timer_b.h")
    1281                    .dwattr $C$DW$105, DW_AT_decl_line(0xd1)
    1282                    .dwattr $C$DW$105, DW_AT_decl_column(0x0e)
    1283            
    1284            $C$DW$106       .dwtag  DW_TAG_member
    1285                    .dwattr $C$DW$106, DW_AT_type(*$C$DW$T$21)
    1286                    .dwattr $C$DW$106, DW_AT_name("captureMode")
    1287                    .dwattr $C$DW$106, DW_AT_TI_symbol_name("captureMode")
    1288                    .dwattr $C$DW$106, DW_AT_data_member_location[DW_OP_plus_uconst 0x2]
    1289                    .dwattr $C$DW$106, DW_AT_accessibility(DW_ACCESS_public)
    1290                    .dwattr $C$DW$106, DW_AT_decl_file("..\MSP430F5xx_6xx\timer_b.h")
    1291                    .dwattr $C$DW$106, DW_AT_decl_line(0xd8)
    1292                    .dwattr $C$DW$106, DW_AT_decl_column(0x0e)
    1293            
    1294            $C$DW$107       .dwtag  DW_TAG_member
    1295                    .dwattr $C$DW$107, DW_AT_type(*$C$DW$T$21)
    1296                    .dwattr $C$DW$107, DW_AT_name("captureInputSelect")
    1297                    .dwattr $C$DW$107, DW_AT_TI_symbol_name("captureInputSelect")
    1298                    .dwattr $C$DW$107, DW_AT_data_member_location[DW_OP_plus_uconst 0x4]
    1299                    .dwattr $C$DW$107, DW_AT_accessibility(DW_ACCESS_public)
    1300                    .dwattr $C$DW$107, DW_AT_decl_file("..\MSP430F5xx_6xx\timer_b.h")
    1301                    .dwattr $C$DW$107, DW_AT_decl_line(0xdf)
    1302                    .dwattr $C$DW$107, DW_AT_decl_column(0x0e)
    1303            
    1304            $C$DW$108       .dwtag  DW_TAG_member
    1305                    .dwattr $C$DW$108, DW_AT_type(*$C$DW$T$21)
    1306                    .dwattr $C$DW$108, DW_AT_name("synchronizeCaptureSource")
    1307                    .dwattr $C$DW$108, DW_AT_TI_symbol_name("synchronizeCaptureSource")
    1308                    .dwattr $C$DW$108, DW_AT_data_member_location[DW_OP_plus_uconst 0x6]
    1309                    .dwattr $C$DW$108, DW_AT_accessibility(DW_ACCESS_public)
    1310                    .dwattr $C$DW$108, DW_AT_decl_file("..\MSP430F5xx_6xx\timer_b.h")
    1311                    .dwattr $C$DW$108, DW_AT_decl_line(0xe4)
    1312                    .dwattr $C$DW$108, DW_AT_decl_column(0x0e)
    1313            
    1314            $C$DW$109       .dwtag  DW_TAG_member
MSP430 Assembler PC v15.12.3 Wed Oct 12 11:17:26 2016

Tools Copyright (c) 2003-2015 Texas Instruments Incorporated
C:\Users\LokBok\AppData\Local\Temp\097882                            PAGE   25

    1315                    .dwattr $C$DW$109, DW_AT_type(*$C$DW$T$21)
    1316                    .dwattr $C$DW$109, DW_AT_name("captureInterruptEnable")
    1317                    .dwattr $C$DW$109, DW_AT_TI_symbol_name("captureInterruptEnable")
    1318                    .dwattr $C$DW$109, DW_AT_data_member_location[DW_OP_plus_uconst 0x8]
    1319                    .dwattr $C$DW$109, DW_AT_accessibility(DW_ACCESS_public)
    1320                    .dwattr $C$DW$109, DW_AT_decl_file("..\MSP430F5xx_6xx\timer_b.h")
    1321                    .dwattr $C$DW$109, DW_AT_decl_line(0xe9)
    1322                    .dwattr $C$DW$109, DW_AT_decl_column(0x0e)
    1323            
    1324            $C$DW$110       .dwtag  DW_TAG_member
    1325                    .dwattr $C$DW$110, DW_AT_type(*$C$DW$T$21)
    1326                    .dwattr $C$DW$110, DW_AT_name("captureOutputMode")
    1327                    .dwattr $C$DW$110, DW_AT_TI_symbol_name("captureOutputMode")
    1328                    .dwattr $C$DW$110, DW_AT_data_member_location[DW_OP_plus_uconst 0xa]
    1329                    .dwattr $C$DW$110, DW_AT_accessibility(DW_ACCESS_public)
    1330                    .dwattr $C$DW$110, DW_AT_decl_file("..\MSP430F5xx_6xx\timer_b.h")
    1331                    .dwattr $C$DW$110, DW_AT_decl_line(0xf4)
    1332                    .dwattr $C$DW$110, DW_AT_decl_column(0x0e)
    1333            
    1334                    .dwattr $C$DW$T$38, DW_AT_decl_file("..\MSP430F5xx_6xx\timer_b.h")
    1335                    .dwattr $C$DW$T$38, DW_AT_decl_line(0xc5)
    1336                    .dwattr $C$DW$T$38, DW_AT_decl_column(0x10)
    1337                    .dwendtag $C$DW$T$38
    1338            
    1339            $C$DW$T$70      .dwtag  DW_TAG_typedef
    1340                    .dwattr $C$DW$T$70, DW_AT_name("Timer_B_initCaptureModeParam")
    1341                    .dwattr $C$DW$T$70, DW_AT_type(*$C$DW$T$38)
    1342                    .dwattr $C$DW$T$70, DW_AT_language(DW_LANG_C)
    1343                    .dwattr $C$DW$T$70, DW_AT_decl_file("..\MSP430F5xx_6xx\timer_b.h")
    1344                    .dwattr $C$DW$T$70, DW_AT_decl_line(0xf5)
    1345                    .dwattr $C$DW$T$70, DW_AT_decl_column(0x03)
    1346            
    1347            
    1348            $C$DW$T$39      .dwtag  DW_TAG_structure_type
    1349                    .dwattr $C$DW$T$39, DW_AT_name("Timer_B_initCompareModeParam")
    1350                    .dwattr $C$DW$T$39, DW_AT_byte_size(0x08)
    1351            $C$DW$111       .dwtag  DW_TAG_member
    1352                    .dwattr $C$DW$111, DW_AT_type(*$C$DW$T$21)
    1353                    .dwattr $C$DW$111, DW_AT_name("compareRegister")
    1354                    .dwattr $C$DW$111, DW_AT_TI_symbol_name("compareRegister")
    1355                    .dwattr $C$DW$111, DW_AT_data_member_location[DW_OP_plus_uconst 0x0]
    1356                    .dwattr $C$DW$111, DW_AT_accessibility(DW_ACCESS_public)
    1357                    .dwattr $C$DW$111, DW_AT_decl_file("..\MSP430F5xx_6xx\timer_b.h")
    1358                    .dwattr $C$DW$111, DW_AT_decl_line(0x17a)
    1359                    .dwattr $C$DW$111, DW_AT_decl_column(0x0e)
    1360            
    1361            $C$DW$112       .dwtag  DW_TAG_member
    1362                    .dwattr $C$DW$112, DW_AT_type(*$C$DW$T$21)
    1363                    .dwattr $C$DW$112, DW_AT_name("compareInterruptEnable")
    1364                    .dwattr $C$DW$112, DW_AT_TI_symbol_name("compareInterruptEnable")
    1365                    .dwattr $C$DW$112, DW_AT_data_member_location[DW_OP_plus_uconst 0x2]
    1366                    .dwattr $C$DW$112, DW_AT_accessibility(DW_ACCESS_public)
    1367                    .dwattr $C$DW$112, DW_AT_decl_file("..\MSP430F5xx_6xx\timer_b.h")
    1368                    .dwattr $C$DW$112, DW_AT_decl_line(0x17f)
    1369                    .dwattr $C$DW$112, DW_AT_decl_column(0x0e)
MSP430 Assembler PC v15.12.3 Wed Oct 12 11:17:26 2016

Tools Copyright (c) 2003-2015 Texas Instruments Incorporated
C:\Users\LokBok\AppData\Local\Temp\097882                            PAGE   26

    1370            
    1371            $C$DW$113       .dwtag  DW_TAG_member
    1372                    .dwattr $C$DW$113, DW_AT_type(*$C$DW$T$21)
    1373                    .dwattr $C$DW$113, DW_AT_name("compareOutputMode")
    1374                    .dwattr $C$DW$113, DW_AT_TI_symbol_name("compareOutputMode")
    1375                    .dwattr $C$DW$113, DW_AT_data_member_location[DW_OP_plus_uconst 0x4]
    1376                    .dwattr $C$DW$113, DW_AT_accessibility(DW_ACCESS_public)
    1377                    .dwattr $C$DW$113, DW_AT_decl_file("..\MSP430F5xx_6xx\timer_b.h")
    1378                    .dwattr $C$DW$113, DW_AT_decl_line(0x18a)
    1379                    .dwattr $C$DW$113, DW_AT_decl_column(0x0e)
    1380            
    1381            $C$DW$114       .dwtag  DW_TAG_member
    1382                    .dwattr $C$DW$114, DW_AT_type(*$C$DW$T$21)
    1383                    .dwattr $C$DW$114, DW_AT_name("compareValue")
    1384                    .dwattr $C$DW$114, DW_AT_TI_symbol_name("compareValue")
    1385                    .dwattr $C$DW$114, DW_AT_data_member_location[DW_OP_plus_uconst 0x6]
    1386                    .dwattr $C$DW$114, DW_AT_accessibility(DW_ACCESS_public)
    1387                    .dwattr $C$DW$114, DW_AT_decl_file("..\MSP430F5xx_6xx\timer_b.h")
    1388                    .dwattr $C$DW$114, DW_AT_decl_line(0x18c)
    1389                    .dwattr $C$DW$114, DW_AT_decl_column(0x0e)
    1390            
    1391                    .dwattr $C$DW$T$39, DW_AT_decl_file("..\MSP430F5xx_6xx\timer_b.h")
    1392                    .dwattr $C$DW$T$39, DW_AT_decl_line(0x16e)
    1393                    .dwattr $C$DW$T$39, DW_AT_decl_column(0x10)
    1394                    .dwendtag $C$DW$T$39
    1395            
    1396            $C$DW$T$71      .dwtag  DW_TAG_typedef
    1397                    .dwattr $C$DW$T$71, DW_AT_name("Timer_B_initCompareModeParam")
    1398                    .dwattr $C$DW$T$71, DW_AT_type(*$C$DW$T$39)
    1399                    .dwattr $C$DW$T$71, DW_AT_language(DW_LANG_C)
    1400                    .dwattr $C$DW$T$71, DW_AT_decl_file("..\MSP430F5xx_6xx\timer_b.h")
    1401                    .dwattr $C$DW$T$71, DW_AT_decl_line(0x18d)
    1402                    .dwattr $C$DW$T$71, DW_AT_decl_column(0x03)
    1403            
    1404            
    1405            $C$DW$T$40      .dwtag  DW_TAG_structure_type
    1406                    .dwattr $C$DW$T$40, DW_AT_name("Timer_B_initContinuousModeParam")
    1407                    .dwattr $C$DW$T$40, DW_AT_byte_size(0x0a)
    1408            $C$DW$115       .dwtag  DW_TAG_member
    1409                    .dwattr $C$DW$115, DW_AT_type(*$C$DW$T$21)
    1410                    .dwattr $C$DW$115, DW_AT_name("clockSource")
    1411                    .dwattr $C$DW$115, DW_AT_TI_symbol_name("clockSource")
    1412                    .dwattr $C$DW$115, DW_AT_data_member_location[DW_OP_plus_uconst 0x0]
    1413                    .dwattr $C$DW$115, DW_AT_accessibility(DW_ACCESS_public)
    1414                    .dwattr $C$DW$115, DW_AT_decl_file("..\MSP430F5xx_6xx\timer_b.h")
    1415                    .dwattr $C$DW$115, DW_AT_decl_line(0x105)
    1416                    .dwattr $C$DW$115, DW_AT_decl_column(0x0e)
    1417            
    1418            $C$DW$116       .dwtag  DW_TAG_member
    1419                    .dwattr $C$DW$116, DW_AT_type(*$C$DW$T$21)
    1420                    .dwattr $C$DW$116, DW_AT_name("clockSourceDivider")
    1421                    .dwattr $C$DW$116, DW_AT_TI_symbol_name("clockSourceDivider")
    1422                    .dwattr $C$DW$116, DW_AT_data_member_location[DW_OP_plus_uconst 0x2]
    1423                    .dwattr $C$DW$116, DW_AT_accessibility(DW_ACCESS_public)
    1424                    .dwattr $C$DW$116, DW_AT_decl_file("..\MSP430F5xx_6xx\timer_b.h")
MSP430 Assembler PC v15.12.3 Wed Oct 12 11:17:26 2016

Tools Copyright (c) 2003-2015 Texas Instruments Incorporated
C:\Users\LokBok\AppData\Local\Temp\097882                            PAGE   27

    1425                    .dwattr $C$DW$116, DW_AT_decl_line(0x11c)
    1426                    .dwattr $C$DW$116, DW_AT_decl_column(0x0e)
    1427            
    1428            $C$DW$117       .dwtag  DW_TAG_member
    1429                    .dwattr $C$DW$117, DW_AT_type(*$C$DW$T$21)
    1430                    .dwattr $C$DW$117, DW_AT_name("timerInterruptEnable_TBIE")
    1431                    .dwattr $C$DW$117, DW_AT_TI_symbol_name("timerInterruptEnable_TBIE")
    1432                    .dwattr $C$DW$117, DW_AT_data_member_location[DW_OP_plus_uconst 0x4]
    1433                    .dwattr $C$DW$117, DW_AT_accessibility(DW_ACCESS_public)
    1434                    .dwattr $C$DW$117, DW_AT_decl_file("..\MSP430F5xx_6xx\timer_b.h")
    1435                    .dwattr $C$DW$117, DW_AT_decl_line(0x121)
    1436                    .dwattr $C$DW$117, DW_AT_decl_column(0x0e)
    1437            
    1438            $C$DW$118       .dwtag  DW_TAG_member
    1439                    .dwattr $C$DW$118, DW_AT_type(*$C$DW$T$21)
    1440                    .dwattr $C$DW$118, DW_AT_name("timerClear")
    1441                    .dwattr $C$DW$118, DW_AT_TI_symbol_name("timerClear")
    1442                    .dwattr $C$DW$118, DW_AT_data_member_location[DW_OP_plus_uconst 0x6]
    1443                    .dwattr $C$DW$118, DW_AT_accessibility(DW_ACCESS_public)
    1444                    .dwattr $C$DW$118, DW_AT_decl_file("..\MSP430F5xx_6xx\timer_b.h")
    1445                    .dwattr $C$DW$118, DW_AT_decl_line(0x127)
    1446                    .dwattr $C$DW$118, DW_AT_decl_column(0x0e)
    1447            
    1448            $C$DW$119       .dwtag  DW_TAG_member
    1449                    .dwattr $C$DW$119, DW_AT_type(*$C$DW$T$33)
    1450                    .dwattr $C$DW$119, DW_AT_name("startTimer")
    1451                    .dwattr $C$DW$119, DW_AT_TI_symbol_name("startTimer")
    1452                    .dwattr $C$DW$119, DW_AT_data_member_location[DW_OP_plus_uconst 0x8]
    1453                    .dwattr $C$DW$119, DW_AT_accessibility(DW_ACCESS_public)
    1454                    .dwattr $C$DW$119, DW_AT_decl_file("..\MSP430F5xx_6xx\timer_b.h")
    1455                    .dwattr $C$DW$119, DW_AT_decl_line(0x129)
    1456                    .dwattr $C$DW$119, DW_AT_decl_column(0x0a)
    1457            
    1458                    .dwattr $C$DW$T$40, DW_AT_decl_file("..\MSP430F5xx_6xx\timer_b.h")
    1459                    .dwattr $C$DW$T$40, DW_AT_decl_line(0xfd)
    1460                    .dwattr $C$DW$T$40, DW_AT_decl_column(0x10)
    1461                    .dwendtag $C$DW$T$40
    1462            
    1463            $C$DW$T$72      .dwtag  DW_TAG_typedef
    1464                    .dwattr $C$DW$T$72, DW_AT_name("Timer_B_initContinuousModeParam")
    1465                    .dwattr $C$DW$T$72, DW_AT_type(*$C$DW$T$40)
    1466                    .dwattr $C$DW$T$72, DW_AT_language(DW_LANG_C)
    1467                    .dwattr $C$DW$T$72, DW_AT_decl_file("..\MSP430F5xx_6xx\timer_b.h")
    1468                    .dwattr $C$DW$T$72, DW_AT_decl_line(0x12a)
    1469                    .dwattr $C$DW$T$72, DW_AT_decl_column(0x03)
    1470            
    1471            
    1472            $C$DW$T$41      .dwtag  DW_TAG_structure_type
    1473                    .dwattr $C$DW$T$41, DW_AT_name("Timer_B_initUpDownModeParam")
    1474                    .dwattr $C$DW$T$41, DW_AT_byte_size(0x0e)
    1475            $C$DW$120       .dwtag  DW_TAG_member
    1476                    .dwattr $C$DW$120, DW_AT_type(*$C$DW$T$21)
    1477                    .dwattr $C$DW$120, DW_AT_name("clockSource")
    1478                    .dwattr $C$DW$120, DW_AT_TI_symbol_name("clockSource")
    1479                    .dwattr $C$DW$120, DW_AT_data_member_location[DW_OP_plus_uconst 0x0]
MSP430 Assembler PC v15.12.3 Wed Oct 12 11:17:26 2016

Tools Copyright (c) 2003-2015 Texas Instruments Incorporated
C:\Users\LokBok\AppData\Local\Temp\097882                            PAGE   28

    1480                    .dwattr $C$DW$120, DW_AT_accessibility(DW_ACCESS_public)
    1481                    .dwattr $C$DW$120, DW_AT_decl_file("..\MSP430F5xx_6xx\timer_b.h")
    1482                    .dwattr $C$DW$120, DW_AT_decl_line(0x13a)
    1483                    .dwattr $C$DW$120, DW_AT_decl_column(0x0e)
    1484            
    1485            $C$DW$121       .dwtag  DW_TAG_member
    1486                    .dwattr $C$DW$121, DW_AT_type(*$C$DW$T$21)
    1487                    .dwattr $C$DW$121, DW_AT_name("clockSourceDivider")
    1488                    .dwattr $C$DW$121, DW_AT_TI_symbol_name("clockSourceDivider")
    1489                    .dwattr $C$DW$121, DW_AT_data_member_location[DW_OP_plus_uconst 0x2]
    1490                    .dwattr $C$DW$121, DW_AT_accessibility(DW_ACCESS_public)
    1491                    .dwattr $C$DW$121, DW_AT_decl_file("..\MSP430F5xx_6xx\timer_b.h")
    1492                    .dwattr $C$DW$121, DW_AT_decl_line(0x151)
    1493                    .dwattr $C$DW$121, DW_AT_decl_column(0x0e)
    1494            
    1495            $C$DW$122       .dwtag  DW_TAG_member
    1496                    .dwattr $C$DW$122, DW_AT_type(*$C$DW$T$21)
    1497                    .dwattr $C$DW$122, DW_AT_name("timerPeriod")
    1498                    .dwattr $C$DW$122, DW_AT_TI_symbol_name("timerPeriod")
    1499                    .dwattr $C$DW$122, DW_AT_data_member_location[DW_OP_plus_uconst 0x4]
    1500                    .dwattr $C$DW$122, DW_AT_accessibility(DW_ACCESS_public)
    1501                    .dwattr $C$DW$122, DW_AT_decl_file("..\MSP430F5xx_6xx\timer_b.h")
    1502                    .dwattr $C$DW$122, DW_AT_decl_line(0x153)
    1503                    .dwattr $C$DW$122, DW_AT_decl_column(0x0e)
    1504            
    1505            $C$DW$123       .dwtag  DW_TAG_member
    1506                    .dwattr $C$DW$123, DW_AT_type(*$C$DW$T$21)
    1507                    .dwattr $C$DW$123, DW_AT_name("timerInterruptEnable_TBIE")
    1508                    .dwattr $C$DW$123, DW_AT_TI_symbol_name("timerInterruptEnable_TBIE")
    1509                    .dwattr $C$DW$123, DW_AT_data_member_location[DW_OP_plus_uconst 0x6]
    1510                    .dwattr $C$DW$123, DW_AT_accessibility(DW_ACCESS_public)
    1511                    .dwattr $C$DW$123, DW_AT_decl_file("..\MSP430F5xx_6xx\timer_b.h")
    1512                    .dwattr $C$DW$123, DW_AT_decl_line(0x158)
    1513                    .dwattr $C$DW$123, DW_AT_decl_column(0x0e)
    1514            
    1515            $C$DW$124       .dwtag  DW_TAG_member
    1516                    .dwattr $C$DW$124, DW_AT_type(*$C$DW$T$21)
    1517                    .dwattr $C$DW$124, DW_AT_name("captureCompareInterruptEnable_CCR0_CCIE")
    1518                    .dwattr $C$DW$124, DW_AT_TI_symbol_name("captureCompareInterruptEnable_CCR0_CCIE")
    1519                    .dwattr $C$DW$124, DW_AT_data_member_location[DW_OP_plus_uconst 0x8]
    1520                    .dwattr $C$DW$124, DW_AT_accessibility(DW_ACCESS_public)
    1521                    .dwattr $C$DW$124, DW_AT_decl_file("..\MSP430F5xx_6xx\timer_b.h")
    1522                    .dwattr $C$DW$124, DW_AT_decl_line(0x15d)
    1523                    .dwattr $C$DW$124, DW_AT_decl_column(0x0e)
    1524            
    1525            $C$DW$125       .dwtag  DW_TAG_member
    1526                    .dwattr $C$DW$125, DW_AT_type(*$C$DW$T$21)
    1527                    .dwattr $C$DW$125, DW_AT_name("timerClear")
    1528                    .dwattr $C$DW$125, DW_AT_TI_symbol_name("timerClear")
    1529                    .dwattr $C$DW$125, DW_AT_data_member_location[DW_OP_plus_uconst 0xa]
    1530                    .dwattr $C$DW$125, DW_AT_accessibility(DW_ACCESS_public)
    1531                    .dwattr $C$DW$125, DW_AT_decl_file("..\MSP430F5xx_6xx\timer_b.h")
    1532                    .dwattr $C$DW$125, DW_AT_decl_line(0x163)
    1533                    .dwattr $C$DW$125, DW_AT_decl_column(0x0e)
    1534            
MSP430 Assembler PC v15.12.3 Wed Oct 12 11:17:26 2016

Tools Copyright (c) 2003-2015 Texas Instruments Incorporated
C:\Users\LokBok\AppData\Local\Temp\097882                            PAGE   29

    1535            $C$DW$126       .dwtag  DW_TAG_member
    1536                    .dwattr $C$DW$126, DW_AT_type(*$C$DW$T$33)
    1537                    .dwattr $C$DW$126, DW_AT_name("startTimer")
    1538                    .dwattr $C$DW$126, DW_AT_TI_symbol_name("startTimer")
    1539                    .dwattr $C$DW$126, DW_AT_data_member_location[DW_OP_plus_uconst 0xc]
    1540                    .dwattr $C$DW$126, DW_AT_accessibility(DW_ACCESS_public)
    1541                    .dwattr $C$DW$126, DW_AT_decl_file("..\MSP430F5xx_6xx\timer_b.h")
    1542                    .dwattr $C$DW$126, DW_AT_decl_line(0x165)
    1543                    .dwattr $C$DW$126, DW_AT_decl_column(0x0a)
    1544            
    1545                    .dwattr $C$DW$T$41, DW_AT_decl_file("..\MSP430F5xx_6xx\timer_b.h")
    1546                    .dwattr $C$DW$T$41, DW_AT_decl_line(0x132)
    1547                    .dwattr $C$DW$T$41, DW_AT_decl_column(0x10)
    1548                    .dwendtag $C$DW$T$41
    1549            
    1550            $C$DW$T$73      .dwtag  DW_TAG_typedef
    1551                    .dwattr $C$DW$T$73, DW_AT_name("Timer_B_initUpDownModeParam")
    1552                    .dwattr $C$DW$T$73, DW_AT_type(*$C$DW$T$41)
    1553                    .dwattr $C$DW$T$73, DW_AT_language(DW_LANG_C)
    1554                    .dwattr $C$DW$T$73, DW_AT_decl_file("..\MSP430F5xx_6xx\timer_b.h")
    1555                    .dwattr $C$DW$T$73, DW_AT_decl_line(0x166)
    1556                    .dwattr $C$DW$T$73, DW_AT_decl_column(0x03)
    1557            
    1558            
    1559            $C$DW$T$42      .dwtag  DW_TAG_structure_type
    1560                    .dwattr $C$DW$T$42, DW_AT_name("Timer_B_initUpModeParam")
    1561                    .dwattr $C$DW$T$42, DW_AT_byte_size(0x0e)
    1562            $C$DW$127       .dwtag  DW_TAG_member
    1563                    .dwattr $C$DW$127, DW_AT_type(*$C$DW$T$21)
    1564                    .dwattr $C$DW$127, DW_AT_name("clockSource")
    1565                    .dwattr $C$DW$127, DW_AT_TI_symbol_name("clockSource")
    1566                    .dwattr $C$DW$127, DW_AT_data_member_location[DW_OP_plus_uconst 0x0]
    1567                    .dwattr $C$DW$127, DW_AT_accessibility(DW_ACCESS_public)
    1568                    .dwattr $C$DW$127, DW_AT_decl_file("..\MSP430F5xx_6xx\timer_b.h")
    1569                    .dwattr $C$DW$127, DW_AT_decl_line(0x90)
    1570                    .dwattr $C$DW$127, DW_AT_decl_column(0x0e)
    1571            
    1572            $C$DW$128       .dwtag  DW_TAG_member
    1573                    .dwattr $C$DW$128, DW_AT_type(*$C$DW$T$21)
    1574                    .dwattr $C$DW$128, DW_AT_name("clockSourceDivider")
    1575                    .dwattr $C$DW$128, DW_AT_TI_symbol_name("clockSourceDivider")
    1576                    .dwattr $C$DW$128, DW_AT_data_member_location[DW_OP_plus_uconst 0x2]
    1577                    .dwattr $C$DW$128, DW_AT_accessibility(DW_ACCESS_public)
    1578                    .dwattr $C$DW$128, DW_AT_decl_file("..\MSP430F5xx_6xx\timer_b.h")
    1579                    .dwattr $C$DW$128, DW_AT_decl_line(0xa7)
    1580                    .dwattr $C$DW$128, DW_AT_decl_column(0x0e)
    1581            
    1582            $C$DW$129       .dwtag  DW_TAG_member
    1583                    .dwattr $C$DW$129, DW_AT_type(*$C$DW$T$21)
    1584                    .dwattr $C$DW$129, DW_AT_name("timerPeriod")
    1585                    .dwattr $C$DW$129, DW_AT_TI_symbol_name("timerPeriod")
    1586                    .dwattr $C$DW$129, DW_AT_data_member_location[DW_OP_plus_uconst 0x4]
    1587                    .dwattr $C$DW$129, DW_AT_accessibility(DW_ACCESS_public)
    1588                    .dwattr $C$DW$129, DW_AT_decl_file("..\MSP430F5xx_6xx\timer_b.h")
    1589                    .dwattr $C$DW$129, DW_AT_decl_line(0xaa)
MSP430 Assembler PC v15.12.3 Wed Oct 12 11:17:26 2016

Tools Copyright (c) 2003-2015 Texas Instruments Incorporated
C:\Users\LokBok\AppData\Local\Temp\097882                            PAGE   30

    1590                    .dwattr $C$DW$129, DW_AT_decl_column(0x0e)
    1591            
    1592            $C$DW$130       .dwtag  DW_TAG_member
    1593                    .dwattr $C$DW$130, DW_AT_type(*$C$DW$T$21)
    1594                    .dwattr $C$DW$130, DW_AT_name("timerInterruptEnable_TBIE")
    1595                    .dwattr $C$DW$130, DW_AT_TI_symbol_name("timerInterruptEnable_TBIE")
    1596                    .dwattr $C$DW$130, DW_AT_data_member_location[DW_OP_plus_uconst 0x6]
    1597                    .dwattr $C$DW$130, DW_AT_accessibility(DW_ACCESS_public)
    1598                    .dwattr $C$DW$130, DW_AT_decl_file("..\MSP430F5xx_6xx\timer_b.h")
    1599                    .dwattr $C$DW$130, DW_AT_decl_line(0xaf)
    1600                    .dwattr $C$DW$130, DW_AT_decl_column(0x0e)
    1601            
    1602            $C$DW$131       .dwtag  DW_TAG_member
    1603                    .dwattr $C$DW$131, DW_AT_type(*$C$DW$T$21)
    1604                    .dwattr $C$DW$131, DW_AT_name("captureCompareInterruptEnable_CCR0_CCIE")
    1605                    .dwattr $C$DW$131, DW_AT_TI_symbol_name("captureCompareInterruptEnable_CCR0_CCIE")
    1606                    .dwattr $C$DW$131, DW_AT_data_member_location[DW_OP_plus_uconst 0x8]
    1607                    .dwattr $C$DW$131, DW_AT_accessibility(DW_ACCESS_public)
    1608                    .dwattr $C$DW$131, DW_AT_decl_file("..\MSP430F5xx_6xx\timer_b.h")
    1609                    .dwattr $C$DW$131, DW_AT_decl_line(0xb4)
    1610                    .dwattr $C$DW$131, DW_AT_decl_column(0x0e)
    1611            
    1612            $C$DW$132       .dwtag  DW_TAG_member
    1613                    .dwattr $C$DW$132, DW_AT_type(*$C$DW$T$21)
    1614                    .dwattr $C$DW$132, DW_AT_name("timerClear")
    1615                    .dwattr $C$DW$132, DW_AT_TI_symbol_name("timerClear")
    1616                    .dwattr $C$DW$132, DW_AT_data_member_location[DW_OP_plus_uconst 0xa]
    1617                    .dwattr $C$DW$132, DW_AT_accessibility(DW_ACCESS_public)
    1618                    .dwattr $C$DW$132, DW_AT_decl_file("..\MSP430F5xx_6xx\timer_b.h")
    1619                    .dwattr $C$DW$132, DW_AT_decl_line(0xba)
    1620                    .dwattr $C$DW$132, DW_AT_decl_column(0x0e)
    1621            
    1622            $C$DW$133       .dwtag  DW_TAG_member
    1623                    .dwattr $C$DW$133, DW_AT_type(*$C$DW$T$33)
    1624                    .dwattr $C$DW$133, DW_AT_name("startTimer")
    1625                    .dwattr $C$DW$133, DW_AT_TI_symbol_name("startTimer")
    1626                    .dwattr $C$DW$133, DW_AT_data_member_location[DW_OP_plus_uconst 0xc]
    1627                    .dwattr $C$DW$133, DW_AT_accessibility(DW_ACCESS_public)
    1628                    .dwattr $C$DW$133, DW_AT_decl_file("..\MSP430F5xx_6xx\timer_b.h")
    1629                    .dwattr $C$DW$133, DW_AT_decl_line(0xbc)
    1630                    .dwattr $C$DW$133, DW_AT_decl_column(0x0a)
    1631            
    1632                    .dwattr $C$DW$T$42, DW_AT_decl_file("..\MSP430F5xx_6xx\timer_b.h")
    1633                    .dwattr $C$DW$T$42, DW_AT_decl_line(0x88)
    1634                    .dwattr $C$DW$T$42, DW_AT_decl_column(0x10)
    1635                    .dwendtag $C$DW$T$42
    1636            
    1637            $C$DW$T$74      .dwtag  DW_TAG_typedef
    1638                    .dwattr $C$DW$T$74, DW_AT_name("Timer_B_initUpModeParam")
    1639                    .dwattr $C$DW$T$74, DW_AT_type(*$C$DW$T$42)
    1640                    .dwattr $C$DW$T$74, DW_AT_language(DW_LANG_C)
    1641                    .dwattr $C$DW$T$74, DW_AT_decl_file("..\MSP430F5xx_6xx\timer_b.h")
    1642                    .dwattr $C$DW$T$74, DW_AT_decl_line(0xbd)
    1643                    .dwattr $C$DW$T$74, DW_AT_decl_column(0x03)
    1644            
MSP430 Assembler PC v15.12.3 Wed Oct 12 11:17:26 2016

Tools Copyright (c) 2003-2015 Texas Instruments Incorporated
C:\Users\LokBok\AppData\Local\Temp\097882                            PAGE   31

    1645            
    1646            $C$DW$T$43      .dwtag  DW_TAG_structure_type
    1647                    .dwattr $C$DW$T$43, DW_AT_name("Timer_B_outputPWMParam")
    1648                    .dwattr $C$DW$T$43, DW_AT_byte_size(0x0c)
    1649            $C$DW$134       .dwtag  DW_TAG_member
    1650                    .dwattr $C$DW$134, DW_AT_type(*$C$DW$T$21)
    1651                    .dwattr $C$DW$134, DW_AT_name("clockSource")
    1652                    .dwattr $C$DW$134, DW_AT_TI_symbol_name("clockSource")
    1653                    .dwattr $C$DW$134, DW_AT_data_member_location[DW_OP_plus_uconst 0x0]
    1654                    .dwattr $C$DW$134, DW_AT_accessibility(DW_ACCESS_public)
    1655                    .dwattr $C$DW$134, DW_AT_decl_file("..\MSP430F5xx_6xx\timer_b.h")
    1656                    .dwattr $C$DW$134, DW_AT_decl_line(0x4f)
    1657                    .dwattr $C$DW$134, DW_AT_decl_column(0x0e)
    1658            
    1659            $C$DW$135       .dwtag  DW_TAG_member
    1660                    .dwattr $C$DW$135, DW_AT_type(*$C$DW$T$21)
    1661                    .dwattr $C$DW$135, DW_AT_name("clockSourceDivider")
    1662                    .dwattr $C$DW$135, DW_AT_TI_symbol_name("clockSourceDivider")
    1663                    .dwattr $C$DW$135, DW_AT_data_member_location[DW_OP_plus_uconst 0x2]
    1664                    .dwattr $C$DW$135, DW_AT_accessibility(DW_ACCESS_public)
    1665                    .dwattr $C$DW$135, DW_AT_decl_file("..\MSP430F5xx_6xx\timer_b.h")
    1666                    .dwattr $C$DW$135, DW_AT_decl_line(0x66)
    1667                    .dwattr $C$DW$135, DW_AT_decl_column(0x0e)
    1668            
    1669            $C$DW$136       .dwtag  DW_TAG_member
    1670                    .dwattr $C$DW$136, DW_AT_type(*$C$DW$T$21)
    1671                    .dwattr $C$DW$136, DW_AT_name("timerPeriod")
    1672                    .dwattr $C$DW$136, DW_AT_TI_symbol_name("timerPeriod")
    1673                    .dwattr $C$DW$136, DW_AT_data_member_location[DW_OP_plus_uconst 0x4]
    1674                    .dwattr $C$DW$136, DW_AT_accessibility(DW_ACCESS_public)
    1675                    .dwattr $C$DW$136, DW_AT_decl_file("..\MSP430F5xx_6xx\timer_b.h")
    1676                    .dwattr $C$DW$136, DW_AT_decl_line(0x68)
    1677                    .dwattr $C$DW$136, DW_AT_decl_column(0x0e)
    1678            
    1679            $C$DW$137       .dwtag  DW_TAG_member
    1680                    .dwattr $C$DW$137, DW_AT_type(*$C$DW$T$21)
    1681                    .dwattr $C$DW$137, DW_AT_name("compareRegister")
    1682                    .dwattr $C$DW$137, DW_AT_TI_symbol_name("compareRegister")
    1683                    .dwattr $C$DW$137, DW_AT_data_member_location[DW_OP_plus_uconst 0x6]
    1684                    .dwattr $C$DW$137, DW_AT_accessibility(DW_ACCESS_public)
    1685                    .dwattr $C$DW$137, DW_AT_decl_file("..\MSP430F5xx_6xx\timer_b.h")
    1686                    .dwattr $C$DW$137, DW_AT_decl_line(0x73)
    1687                    .dwattr $C$DW$137, DW_AT_decl_column(0x0e)
    1688            
    1689            $C$DW$138       .dwtag  DW_TAG_member
    1690                    .dwattr $C$DW$138, DW_AT_type(*$C$DW$T$21)
    1691                    .dwattr $C$DW$138, DW_AT_name("compareOutputMode")
    1692                    .dwattr $C$DW$138, DW_AT_TI_symbol_name("compareOutputMode")
    1693                    .dwattr $C$DW$138, DW_AT_data_member_location[DW_OP_plus_uconst 0x8]
    1694                    .dwattr $C$DW$138, DW_AT_accessibility(DW_ACCESS_public)
    1695                    .dwattr $C$DW$138, DW_AT_decl_file("..\MSP430F5xx_6xx\timer_b.h")
    1696                    .dwattr $C$DW$138, DW_AT_decl_line(0x7e)
    1697                    .dwattr $C$DW$138, DW_AT_decl_column(0x0e)
    1698            
    1699            $C$DW$139       .dwtag  DW_TAG_member
MSP430 Assembler PC v15.12.3 Wed Oct 12 11:17:26 2016

Tools Copyright (c) 2003-2015 Texas Instruments Incorporated
C:\Users\LokBok\AppData\Local\Temp\097882                            PAGE   32

    1700                    .dwattr $C$DW$139, DW_AT_type(*$C$DW$T$21)
    1701                    .dwattr $C$DW$139, DW_AT_name("dutyCycle")
    1702                    .dwattr $C$DW$139, DW_AT_TI_symbol_name("dutyCycle")
    1703                    .dwattr $C$DW$139, DW_AT_data_member_location[DW_OP_plus_uconst 0xa]
    1704                    .dwattr $C$DW$139, DW_AT_accessibility(DW_ACCESS_public)
    1705                    .dwattr $C$DW$139, DW_AT_decl_file("..\MSP430F5xx_6xx\timer_b.h")
    1706                    .dwattr $C$DW$139, DW_AT_decl_line(0x80)
    1707                    .dwattr $C$DW$139, DW_AT_decl_column(0x0e)
    1708            
    1709                    .dwattr $C$DW$T$43, DW_AT_decl_file("..\MSP430F5xx_6xx\timer_b.h")
    1710                    .dwattr $C$DW$T$43, DW_AT_decl_line(0x47)
    1711                    .dwattr $C$DW$T$43, DW_AT_decl_column(0x10)
    1712                    .dwendtag $C$DW$T$43
    1713            
    1714            $C$DW$T$75      .dwtag  DW_TAG_typedef
    1715                    .dwattr $C$DW$T$75, DW_AT_name("Timer_B_outputPWMParam")
    1716                    .dwattr $C$DW$T$75, DW_AT_type(*$C$DW$T$43)
    1717                    .dwattr $C$DW$T$75, DW_AT_language(DW_LANG_C)
    1718                    .dwattr $C$DW$T$75, DW_AT_decl_file("..\MSP430F5xx_6xx\timer_b.h")
    1719                    .dwattr $C$DW$T$75, DW_AT_decl_line(0x81)
    1720                    .dwattr $C$DW$T$75, DW_AT_decl_column(0x03)
    1721            
    1722            
    1723            $C$DW$T$45      .dwtag  DW_TAG_structure_type
    1724                    .dwattr $C$DW$T$45, DW_AT_name("USCI_A_SPI_changeMasterClockParam")
    1725                    .dwattr $C$DW$T$45, DW_AT_byte_size(0x08)
    1726            $C$DW$140       .dwtag  DW_TAG_member
    1727                    .dwattr $C$DW$140, DW_AT_type(*$C$DW$T$44)
    1728                    .dwattr $C$DW$140, DW_AT_name("clockSourceFrequency")
    1729                    .dwattr $C$DW$140, DW_AT_TI_symbol_name("clockSourceFrequency")
    1730                    .dwattr $C$DW$140, DW_AT_data_member_location[DW_OP_plus_uconst 0x0]
    1731                    .dwattr $C$DW$140, DW_AT_accessibility(DW_ACCESS_public)
    1732                    .dwattr $C$DW$140, DW_AT_decl_file("..\MSP430F5xx_6xx\usci_a_spi.h")
    1733                    .dwattr $C$DW$140, DW_AT_decl_line(0x62)
    1734                    .dwattr $C$DW$140, DW_AT_decl_column(0x0e)
    1735            
    1736            $C$DW$141       .dwtag  DW_TAG_member
    1737                    .dwattr $C$DW$141, DW_AT_type(*$C$DW$T$44)
    1738                    .dwattr $C$DW$141, DW_AT_name("desiredSpiClock")
    1739                    .dwattr $C$DW$141, DW_AT_TI_symbol_name("desiredSpiClock")
    1740                    .dwattr $C$DW$141, DW_AT_data_member_location[DW_OP_plus_uconst 0x4]
    1741                    .dwattr $C$DW$141, DW_AT_accessibility(DW_ACCESS_public)
    1742                    .dwattr $C$DW$141, DW_AT_decl_file("..\MSP430F5xx_6xx\usci_a_spi.h")
    1743                    .dwattr $C$DW$141, DW_AT_decl_line(0x64)
    1744                    .dwattr $C$DW$141, DW_AT_decl_column(0x0e)
    1745            
    1746                    .dwattr $C$DW$T$45, DW_AT_decl_file("..\MSP430F5xx_6xx\usci_a_spi.h")
    1747                    .dwattr $C$DW$T$45, DW_AT_decl_line(0x5f)
    1748                    .dwattr $C$DW$T$45, DW_AT_decl_column(0x10)
    1749                    .dwendtag $C$DW$T$45
    1750            
    1751            $C$DW$T$76      .dwtag  DW_TAG_typedef
    1752                    .dwattr $C$DW$T$76, DW_AT_name("USCI_A_SPI_changeMasterClockParam")
    1753                    .dwattr $C$DW$T$76, DW_AT_type(*$C$DW$T$45)
    1754                    .dwattr $C$DW$T$76, DW_AT_language(DW_LANG_C)
MSP430 Assembler PC v15.12.3 Wed Oct 12 11:17:26 2016

Tools Copyright (c) 2003-2015 Texas Instruments Incorporated
C:\Users\LokBok\AppData\Local\Temp\097882                            PAGE   33

    1755                    .dwattr $C$DW$T$76, DW_AT_decl_file("..\MSP430F5xx_6xx\usci_a_spi.h")
    1756                    .dwattr $C$DW$T$76, DW_AT_decl_line(0x65)
    1757                    .dwattr $C$DW$T$76, DW_AT_decl_column(0x03)
    1758            
    1759            
    1760            $C$DW$T$46      .dwtag  DW_TAG_structure_type
    1761                    .dwattr $C$DW$T$46, DW_AT_name("USCI_A_SPI_initMasterParam")
    1762                    .dwattr $C$DW$T$46, DW_AT_byte_size(0x0e)
    1763            $C$DW$142       .dwtag  DW_TAG_member
    1764                    .dwattr $C$DW$142, DW_AT_type(*$C$DW$T$19)
    1765                    .dwattr $C$DW$142, DW_AT_name("selectClockSource")
    1766                    .dwattr $C$DW$142, DW_AT_TI_symbol_name("selectClockSource")
    1767                    .dwattr $C$DW$142, DW_AT_data_member_location[DW_OP_plus_uconst 0x0]
    1768                    .dwattr $C$DW$142, DW_AT_accessibility(DW_ACCESS_public)
    1769                    .dwattr $C$DW$142, DW_AT_decl_file("..\MSP430F5xx_6xx\usci_a_spi.h")
    1770                    .dwattr $C$DW$142, DW_AT_decl_line(0x44)
    1771                    .dwattr $C$DW$142, DW_AT_decl_column(0x0d)
    1772            
    1773            $C$DW$143       .dwtag  DW_TAG_member
    1774                    .dwattr $C$DW$143, DW_AT_type(*$C$DW$T$44)
    1775                    .dwattr $C$DW$143, DW_AT_name("clockSourceFrequency")
    1776                    .dwattr $C$DW$143, DW_AT_TI_symbol_name("clockSourceFrequency")
    1777                    .dwattr $C$DW$143, DW_AT_data_member_location[DW_OP_plus_uconst 0x2]
    1778                    .dwattr $C$DW$143, DW_AT_accessibility(DW_ACCESS_public)
    1779                    .dwattr $C$DW$143, DW_AT_decl_file("..\MSP430F5xx_6xx\usci_a_spi.h")
    1780                    .dwattr $C$DW$143, DW_AT_decl_line(0x46)
    1781                    .dwattr $C$DW$143, DW_AT_decl_column(0x0e)
    1782            
    1783            $C$DW$144       .dwtag  DW_TAG_member
    1784                    .dwattr $C$DW$144, DW_AT_type(*$C$DW$T$44)
    1785                    .dwattr $C$DW$144, DW_AT_name("desiredSpiClock")
    1786                    .dwattr $C$DW$144, DW_AT_TI_symbol_name("desiredSpiClock")
    1787                    .dwattr $C$DW$144, DW_AT_data_member_location[DW_OP_plus_uconst 0x6]
    1788                    .dwattr $C$DW$144, DW_AT_accessibility(DW_ACCESS_public)
    1789                    .dwattr $C$DW$144, DW_AT_decl_file("..\MSP430F5xx_6xx\usci_a_spi.h")
    1790                    .dwattr $C$DW$144, DW_AT_decl_line(0x48)
    1791                    .dwattr $C$DW$144, DW_AT_decl_column(0x0e)
    1792            
    1793            $C$DW$145       .dwtag  DW_TAG_member
    1794                    .dwattr $C$DW$145, DW_AT_type(*$C$DW$T$19)
    1795                    .dwattr $C$DW$145, DW_AT_name("msbFirst")
    1796                    .dwattr $C$DW$145, DW_AT_TI_symbol_name("msbFirst")
    1797                    .dwattr $C$DW$145, DW_AT_data_member_location[DW_OP_plus_uconst 0xa]
    1798                    .dwattr $C$DW$145, DW_AT_accessibility(DW_ACCESS_public)
    1799                    .dwattr $C$DW$145, DW_AT_decl_file("..\MSP430F5xx_6xx\usci_a_spi.h")
    1800                    .dwattr $C$DW$145, DW_AT_decl_line(0x4d)
    1801                    .dwattr $C$DW$145, DW_AT_decl_column(0x0d)
    1802            
    1803            $C$DW$146       .dwtag  DW_TAG_member
    1804                    .dwattr $C$DW$146, DW_AT_type(*$C$DW$T$19)
    1805                    .dwattr $C$DW$146, DW_AT_name("clockPhase")
    1806                    .dwattr $C$DW$146, DW_AT_TI_symbol_name("clockPhase")
    1807                    .dwattr $C$DW$146, DW_AT_data_member_location[DW_OP_plus_uconst 0xb]
    1808                    .dwattr $C$DW$146, DW_AT_accessibility(DW_ACCESS_public)
    1809                    .dwattr $C$DW$146, DW_AT_decl_file("..\MSP430F5xx_6xx\usci_a_spi.h")
MSP430 Assembler PC v15.12.3 Wed Oct 12 11:17:26 2016

Tools Copyright (c) 2003-2015 Texas Instruments Incorporated
C:\Users\LokBok\AppData\Local\Temp\097882                            PAGE   34

    1810                    .dwattr $C$DW$146, DW_AT_decl_line(0x52)
    1811                    .dwattr $C$DW$146, DW_AT_decl_column(0x0d)
    1812            
    1813            $C$DW$147       .dwtag  DW_TAG_member
    1814                    .dwattr $C$DW$147, DW_AT_type(*$C$DW$T$19)
    1815                    .dwattr $C$DW$147, DW_AT_name("clockPolarity")
    1816                    .dwattr $C$DW$147, DW_AT_TI_symbol_name("clockPolarity")
    1817                    .dwattr $C$DW$147, DW_AT_data_member_location[DW_OP_plus_uconst 0xc]
    1818                    .dwattr $C$DW$147, DW_AT_accessibility(DW_ACCESS_public)
    1819                    .dwattr $C$DW$147, DW_AT_decl_file("..\MSP430F5xx_6xx\usci_a_spi.h")
    1820                    .dwattr $C$DW$147, DW_AT_decl_line(0x56)
    1821                    .dwattr $C$DW$147, DW_AT_decl_column(0x0d)
    1822            
    1823                    .dwattr $C$DW$T$46, DW_AT_decl_file("..\MSP430F5xx_6xx\usci_a_spi.h")
    1824                    .dwattr $C$DW$T$46, DW_AT_decl_line(0x3e)
    1825                    .dwattr $C$DW$T$46, DW_AT_decl_column(0x10)
    1826                    .dwendtag $C$DW$T$46
    1827            
    1828            $C$DW$T$77      .dwtag  DW_TAG_typedef
    1829                    .dwattr $C$DW$T$77, DW_AT_name("USCI_A_SPI_initMasterParam")
    1830                    .dwattr $C$DW$T$77, DW_AT_type(*$C$DW$T$46)
    1831                    .dwattr $C$DW$T$77, DW_AT_language(DW_LANG_C)
    1832                    .dwattr $C$DW$T$77, DW_AT_decl_file("..\MSP430F5xx_6xx\usci_a_spi.h")
    1833                    .dwattr $C$DW$T$77, DW_AT_decl_line(0x57)
    1834                    .dwattr $C$DW$T$77, DW_AT_decl_column(0x03)
    1835            
    1836            
    1837            $C$DW$T$47      .dwtag  DW_TAG_structure_type
    1838                    .dwattr $C$DW$T$47, DW_AT_name("USCI_A_UART_initParam")
    1839                    .dwattr $C$DW$T$47, DW_AT_byte_size(0x0c)
    1840            $C$DW$148       .dwtag  DW_TAG_member
    1841                    .dwattr $C$DW$148, DW_AT_type(*$C$DW$T$19)
    1842                    .dwattr $C$DW$148, DW_AT_name("selectClockSource")
    1843                    .dwattr $C$DW$148, DW_AT_TI_symbol_name("selectClockSource")
    1844                    .dwattr $C$DW$148, DW_AT_data_member_location[DW_OP_plus_uconst 0x0]
    1845                    .dwattr $C$DW$148, DW_AT_accessibility(DW_ACCESS_public)
    1846                    .dwattr $C$DW$148, DW_AT_decl_file("..\MSP430F5xx_6xx\usci_a_uart.h")
    1847                    .dwattr $C$DW$148, DW_AT_decl_line(0x4c)
    1848                    .dwattr $C$DW$148, DW_AT_decl_column(0x0d)
    1849            
    1850            $C$DW$149       .dwtag  DW_TAG_member
    1851                    .dwattr $C$DW$149, DW_AT_type(*$C$DW$T$21)
    1852                    .dwattr $C$DW$149, DW_AT_name("clockPrescalar")
    1853                    .dwattr $C$DW$149, DW_AT_TI_symbol_name("clockPrescalar")
    1854                    .dwattr $C$DW$149, DW_AT_data_member_location[DW_OP_plus_uconst 0x2]
    1855                    .dwattr $C$DW$149, DW_AT_accessibility(DW_ACCESS_public)
    1856                    .dwattr $C$DW$149, DW_AT_decl_file("..\MSP430F5xx_6xx\usci_a_uart.h")
    1857                    .dwattr $C$DW$149, DW_AT_decl_line(0x4e)
    1858                    .dwattr $C$DW$149, DW_AT_decl_column(0x0e)
    1859            
    1860            $C$DW$150       .dwtag  DW_TAG_member
    1861                    .dwattr $C$DW$150, DW_AT_type(*$C$DW$T$19)
    1862                    .dwattr $C$DW$150, DW_AT_name("firstModReg")
    1863                    .dwattr $C$DW$150, DW_AT_TI_symbol_name("firstModReg")
    1864                    .dwattr $C$DW$150, DW_AT_data_member_location[DW_OP_plus_uconst 0x4]
MSP430 Assembler PC v15.12.3 Wed Oct 12 11:17:26 2016

Tools Copyright (c) 2003-2015 Texas Instruments Incorporated
C:\Users\LokBok\AppData\Local\Temp\097882                            PAGE   35

    1865                    .dwattr $C$DW$150, DW_AT_accessibility(DW_ACCESS_public)
    1866                    .dwattr $C$DW$150, DW_AT_decl_file("..\MSP430F5xx_6xx\usci_a_uart.h")
    1867                    .dwattr $C$DW$150, DW_AT_decl_line(0x52)
    1868                    .dwattr $C$DW$150, DW_AT_decl_column(0x0d)
    1869            
    1870            $C$DW$151       .dwtag  DW_TAG_member
    1871                    .dwattr $C$DW$151, DW_AT_type(*$C$DW$T$19)
    1872                    .dwattr $C$DW$151, DW_AT_name("secondModReg")
    1873                    .dwattr $C$DW$151, DW_AT_TI_symbol_name("secondModReg")
    1874                    .dwattr $C$DW$151, DW_AT_data_member_location[DW_OP_plus_uconst 0x5]
    1875                    .dwattr $C$DW$151, DW_AT_accessibility(DW_ACCESS_public)
    1876                    .dwattr $C$DW$151, DW_AT_decl_file("..\MSP430F5xx_6xx\usci_a_uart.h")
    1877                    .dwattr $C$DW$151, DW_AT_decl_line(0x56)
    1878                    .dwattr $C$DW$151, DW_AT_decl_column(0x0d)
    1879            
    1880            $C$DW$152       .dwtag  DW_TAG_member
    1881                    .dwattr $C$DW$152, DW_AT_type(*$C$DW$T$19)
    1882                    .dwattr $C$DW$152, DW_AT_name("parity")
    1883                    .dwattr $C$DW$152, DW_AT_TI_symbol_name("parity")
    1884                    .dwattr $C$DW$152, DW_AT_data_member_location[DW_OP_plus_uconst 0x6]
    1885                    .dwattr $C$DW$152, DW_AT_accessibility(DW_ACCESS_public)
    1886                    .dwattr $C$DW$152, DW_AT_decl_file("..\MSP430F5xx_6xx\usci_a_uart.h")
    1887                    .dwattr $C$DW$152, DW_AT_decl_line(0x5c)
    1888                    .dwattr $C$DW$152, DW_AT_decl_column(0x0d)
    1889            
    1890            $C$DW$153       .dwtag  DW_TAG_member
    1891                    .dwattr $C$DW$153, DW_AT_type(*$C$DW$T$19)
    1892                    .dwattr $C$DW$153, DW_AT_name("msborLsbFirst")
    1893                    .dwattr $C$DW$153, DW_AT_TI_symbol_name("msborLsbFirst")
    1894                    .dwattr $C$DW$153, DW_AT_data_member_location[DW_OP_plus_uconst 0x7]
    1895                    .dwattr $C$DW$153, DW_AT_accessibility(DW_ACCESS_public)
    1896                    .dwattr $C$DW$153, DW_AT_decl_file("..\MSP430F5xx_6xx\usci_a_uart.h")
    1897                    .dwattr $C$DW$153, DW_AT_decl_line(0x61)
    1898                    .dwattr $C$DW$153, DW_AT_decl_column(0x0d)
    1899            
    1900            $C$DW$154       .dwtag  DW_TAG_member
    1901                    .dwattr $C$DW$154, DW_AT_type(*$C$DW$T$19)
    1902                    .dwattr $C$DW$154, DW_AT_name("numberofStopBits")
    1903                    .dwattr $C$DW$154, DW_AT_TI_symbol_name("numberofStopBits")
    1904                    .dwattr $C$DW$154, DW_AT_data_member_location[DW_OP_plus_uconst 0x8]
    1905                    .dwattr $C$DW$154, DW_AT_accessibility(DW_ACCESS_public)
    1906                    .dwattr $C$DW$154, DW_AT_decl_file("..\MSP430F5xx_6xx\usci_a_uart.h")
    1907                    .dwattr $C$DW$154, DW_AT_decl_line(0x66)
    1908                    .dwattr $C$DW$154, DW_AT_decl_column(0x0d)
    1909            
    1910            $C$DW$155       .dwtag  DW_TAG_member
    1911                    .dwattr $C$DW$155, DW_AT_type(*$C$DW$T$19)
    1912                    .dwattr $C$DW$155, DW_AT_name("uartMode")
    1913                    .dwattr $C$DW$155, DW_AT_TI_symbol_name("uartMode")
    1914                    .dwattr $C$DW$155, DW_AT_data_member_location[DW_OP_plus_uconst 0x9]
    1915                    .dwattr $C$DW$155, DW_AT_accessibility(DW_ACCESS_public)
    1916                    .dwattr $C$DW$155, DW_AT_decl_file("..\MSP430F5xx_6xx\usci_a_uart.h")
    1917                    .dwattr $C$DW$155, DW_AT_decl_line(0x6d)
    1918                    .dwattr $C$DW$155, DW_AT_decl_column(0x0d)
    1919            
MSP430 Assembler PC v15.12.3 Wed Oct 12 11:17:26 2016

Tools Copyright (c) 2003-2015 Texas Instruments Incorporated
C:\Users\LokBok\AppData\Local\Temp\097882                            PAGE   36

    1920            $C$DW$156       .dwtag  DW_TAG_member
    1921                    .dwattr $C$DW$156, DW_AT_type(*$C$DW$T$19)
    1922                    .dwattr $C$DW$156, DW_AT_name("overSampling")
    1923                    .dwattr $C$DW$156, DW_AT_TI_symbol_name("overSampling")
    1924                    .dwattr $C$DW$156, DW_AT_data_member_location[DW_OP_plus_uconst 0xa]
    1925                    .dwattr $C$DW$156, DW_AT_accessibility(DW_ACCESS_public)
    1926                    .dwattr $C$DW$156, DW_AT_decl_file("..\MSP430F5xx_6xx\usci_a_uart.h")
    1927                    .dwattr $C$DW$156, DW_AT_decl_line(0x72)
    1928                    .dwattr $C$DW$156, DW_AT_decl_column(0x0d)
    1929            
    1930                    .dwattr $C$DW$T$47, DW_AT_decl_file("..\MSP430F5xx_6xx\usci_a_uart.h")
    1931                    .dwattr $C$DW$T$47, DW_AT_decl_line(0x46)
    1932                    .dwattr $C$DW$T$47, DW_AT_decl_column(0x10)
    1933                    .dwendtag $C$DW$T$47
    1934            
    1935            $C$DW$T$78      .dwtag  DW_TAG_typedef
    1936                    .dwattr $C$DW$T$78, DW_AT_name("USCI_A_UART_initParam")
    1937                    .dwattr $C$DW$T$78, DW_AT_type(*$C$DW$T$47)
    1938                    .dwattr $C$DW$T$78, DW_AT_language(DW_LANG_C)
    1939                    .dwattr $C$DW$T$78, DW_AT_decl_file("..\MSP430F5xx_6xx\usci_a_uart.h")
    1940                    .dwattr $C$DW$T$78, DW_AT_decl_line(0x73)
    1941                    .dwattr $C$DW$T$78, DW_AT_decl_column(0x03)
    1942            
    1943            
    1944            $C$DW$T$48      .dwtag  DW_TAG_structure_type
    1945                    .dwattr $C$DW$T$48, DW_AT_name("USCI_B_I2C_initMasterParam")
    1946                    .dwattr $C$DW$T$48, DW_AT_byte_size(0x0a)
    1947            $C$DW$157       .dwtag  DW_TAG_member
    1948                    .dwattr $C$DW$157, DW_AT_type(*$C$DW$T$19)
    1949                    .dwattr $C$DW$157, DW_AT_name("selectClockSource")
    1950                    .dwattr $C$DW$157, DW_AT_TI_symbol_name("selectClockSource")
    1951                    .dwattr $C$DW$157, DW_AT_data_member_location[DW_OP_plus_uconst 0x0]
    1952                    .dwattr $C$DW$157, DW_AT_accessibility(DW_ACCESS_public)
    1953                    .dwattr $C$DW$157, DW_AT_decl_file("..\MSP430F5xx_6xx\usci_b_i2c.h")
    1954                    .dwattr $C$DW$157, DW_AT_decl_line(0x44)
    1955                    .dwattr $C$DW$157, DW_AT_decl_column(0x0d)
    1956            
    1957            $C$DW$158       .dwtag  DW_TAG_member
    1958                    .dwattr $C$DW$158, DW_AT_type(*$C$DW$T$44)
    1959                    .dwattr $C$DW$158, DW_AT_name("i2cClk")
    1960                    .dwattr $C$DW$158, DW_AT_TI_symbol_name("i2cClk")
    1961                    .dwattr $C$DW$158, DW_AT_data_member_location[DW_OP_plus_uconst 0x2]
    1962                    .dwattr $C$DW$158, DW_AT_accessibility(DW_ACCESS_public)
    1963                    .dwattr $C$DW$158, DW_AT_decl_file("..\MSP430F5xx_6xx\usci_b_i2c.h")
    1964                    .dwattr $C$DW$158, DW_AT_decl_line(0x46)
    1965                    .dwattr $C$DW$158, DW_AT_decl_column(0x0e)
    1966            
    1967            $C$DW$159       .dwtag  DW_TAG_member
    1968                    .dwattr $C$DW$159, DW_AT_type(*$C$DW$T$44)
    1969                    .dwattr $C$DW$159, DW_AT_name("dataRate")
    1970                    .dwattr $C$DW$159, DW_AT_TI_symbol_name("dataRate")
    1971                    .dwattr $C$DW$159, DW_AT_data_member_location[DW_OP_plus_uconst 0x6]
    1972                    .dwattr $C$DW$159, DW_AT_accessibility(DW_ACCESS_public)
    1973                    .dwattr $C$DW$159, DW_AT_decl_file("..\MSP430F5xx_6xx\usci_b_i2c.h")
    1974                    .dwattr $C$DW$159, DW_AT_decl_line(0x4b)
MSP430 Assembler PC v15.12.3 Wed Oct 12 11:17:26 2016

Tools Copyright (c) 2003-2015 Texas Instruments Incorporated
C:\Users\LokBok\AppData\Local\Temp\097882                            PAGE   37

    1975                    .dwattr $C$DW$159, DW_AT_decl_column(0x0e)
    1976            
    1977                    .dwattr $C$DW$T$48, DW_AT_decl_file("..\MSP430F5xx_6xx\usci_b_i2c.h")
    1978                    .dwattr $C$DW$T$48, DW_AT_decl_line(0x3e)
    1979                    .dwattr $C$DW$T$48, DW_AT_decl_column(0x10)
    1980                    .dwendtag $C$DW$T$48
    1981            
    1982            $C$DW$T$79      .dwtag  DW_TAG_typedef
    1983                    .dwattr $C$DW$T$79, DW_AT_name("USCI_B_I2C_initMasterParam")
    1984                    .dwattr $C$DW$T$79, DW_AT_type(*$C$DW$T$48)
    1985                    .dwattr $C$DW$T$79, DW_AT_language(DW_LANG_C)
    1986                    .dwattr $C$DW$T$79, DW_AT_decl_file("..\MSP430F5xx_6xx\usci_b_i2c.h")
    1987                    .dwattr $C$DW$T$79, DW_AT_decl_line(0x4c)
    1988                    .dwattr $C$DW$T$79, DW_AT_decl_column(0x03)
    1989            
    1990            
    1991            $C$DW$T$49      .dwtag  DW_TAG_structure_type
    1992                    .dwattr $C$DW$T$49, DW_AT_name("USCI_B_SPI_changeMasterClockParam")
    1993                    .dwattr $C$DW$T$49, DW_AT_byte_size(0x08)
    1994            $C$DW$160       .dwtag  DW_TAG_member
    1995                    .dwattr $C$DW$160, DW_AT_type(*$C$DW$T$44)
    1996                    .dwattr $C$DW$160, DW_AT_name("clockSourceFrequency")
    1997                    .dwattr $C$DW$160, DW_AT_TI_symbol_name("clockSourceFrequency")
    1998                    .dwattr $C$DW$160, DW_AT_data_member_location[DW_OP_plus_uconst 0x0]
    1999                    .dwattr $C$DW$160, DW_AT_accessibility(DW_ACCESS_public)
    2000                    .dwattr $C$DW$160, DW_AT_decl_file("..\MSP430F5xx_6xx\usci_b_spi.h")
    2001                    .dwattr $C$DW$160, DW_AT_decl_line(0x62)
    2002                    .dwattr $C$DW$160, DW_AT_decl_column(0x0e)
    2003            
    2004            $C$DW$161       .dwtag  DW_TAG_member
    2005                    .dwattr $C$DW$161, DW_AT_type(*$C$DW$T$44)
    2006                    .dwattr $C$DW$161, DW_AT_name("desiredSpiClock")
    2007                    .dwattr $C$DW$161, DW_AT_TI_symbol_name("desiredSpiClock")
    2008                    .dwattr $C$DW$161, DW_AT_data_member_location[DW_OP_plus_uconst 0x4]
    2009                    .dwattr $C$DW$161, DW_AT_accessibility(DW_ACCESS_public)
    2010                    .dwattr $C$DW$161, DW_AT_decl_file("..\MSP430F5xx_6xx\usci_b_spi.h")
    2011                    .dwattr $C$DW$161, DW_AT_decl_line(0x64)
    2012                    .dwattr $C$DW$161, DW_AT_decl_column(0x0e)
    2013            
    2014                    .dwattr $C$DW$T$49, DW_AT_decl_file("..\MSP430F5xx_6xx\usci_b_spi.h")
    2015                    .dwattr $C$DW$T$49, DW_AT_decl_line(0x5f)
    2016                    .dwattr $C$DW$T$49, DW_AT_decl_column(0x10)
    2017                    .dwendtag $C$DW$T$49
    2018            
    2019            $C$DW$T$80      .dwtag  DW_TAG_typedef
    2020                    .dwattr $C$DW$T$80, DW_AT_name("USCI_B_SPI_changeMasterClockParam")
    2021                    .dwattr $C$DW$T$80, DW_AT_type(*$C$DW$T$49)
    2022                    .dwattr $C$DW$T$80, DW_AT_language(DW_LANG_C)
    2023                    .dwattr $C$DW$T$80, DW_AT_decl_file("..\MSP430F5xx_6xx\usci_b_spi.h")
    2024                    .dwattr $C$DW$T$80, DW_AT_decl_line(0x65)
    2025                    .dwattr $C$DW$T$80, DW_AT_decl_column(0x03)
    2026            
    2027            
    2028            $C$DW$T$50      .dwtag  DW_TAG_structure_type
    2029                    .dwattr $C$DW$T$50, DW_AT_name("USCI_B_SPI_initMasterParam")
MSP430 Assembler PC v15.12.3 Wed Oct 12 11:17:26 2016

Tools Copyright (c) 2003-2015 Texas Instruments Incorporated
C:\Users\LokBok\AppData\Local\Temp\097882                            PAGE   38

    2030                    .dwattr $C$DW$T$50, DW_AT_byte_size(0x0e)
    2031            $C$DW$162       .dwtag  DW_TAG_member
    2032                    .dwattr $C$DW$162, DW_AT_type(*$C$DW$T$19)
    2033                    .dwattr $C$DW$162, DW_AT_name("selectClockSource")
    2034                    .dwattr $C$DW$162, DW_AT_TI_symbol_name("selectClockSource")
    2035                    .dwattr $C$DW$162, DW_AT_data_member_location[DW_OP_plus_uconst 0x0]
    2036                    .dwattr $C$DW$162, DW_AT_accessibility(DW_ACCESS_public)
    2037                    .dwattr $C$DW$162, DW_AT_decl_file("..\MSP430F5xx_6xx\usci_b_spi.h")
    2038                    .dwattr $C$DW$162, DW_AT_decl_line(0x44)
    2039                    .dwattr $C$DW$162, DW_AT_decl_column(0x0d)
    2040            
    2041            $C$DW$163       .dwtag  DW_TAG_member
    2042                    .dwattr $C$DW$163, DW_AT_type(*$C$DW$T$44)
    2043                    .dwattr $C$DW$163, DW_AT_name("clockSourceFrequency")
    2044                    .dwattr $C$DW$163, DW_AT_TI_symbol_name("clockSourceFrequency")
    2045                    .dwattr $C$DW$163, DW_AT_data_member_location[DW_OP_plus_uconst 0x2]
    2046                    .dwattr $C$DW$163, DW_AT_accessibility(DW_ACCESS_public)
    2047                    .dwattr $C$DW$163, DW_AT_decl_file("..\MSP430F5xx_6xx\usci_b_spi.h")
    2048                    .dwattr $C$DW$163, DW_AT_decl_line(0x46)
    2049                    .dwattr $C$DW$163, DW_AT_decl_column(0x0e)
    2050            
    2051            $C$DW$164       .dwtag  DW_TAG_member
    2052                    .dwattr $C$DW$164, DW_AT_type(*$C$DW$T$44)
    2053                    .dwattr $C$DW$164, DW_AT_name("desiredSpiClock")
    2054                    .dwattr $C$DW$164, DW_AT_TI_symbol_name("desiredSpiClock")
    2055                    .dwattr $C$DW$164, DW_AT_data_member_location[DW_OP_plus_uconst 0x6]
    2056                    .dwattr $C$DW$164, DW_AT_accessibility(DW_ACCESS_public)
    2057                    .dwattr $C$DW$164, DW_AT_decl_file("..\MSP430F5xx_6xx\usci_b_spi.h")
    2058                    .dwattr $C$DW$164, DW_AT_decl_line(0x48)
    2059                    .dwattr $C$DW$164, DW_AT_decl_column(0x0e)
    2060            
    2061            $C$DW$165       .dwtag  DW_TAG_member
    2062                    .dwattr $C$DW$165, DW_AT_type(*$C$DW$T$19)
    2063                    .dwattr $C$DW$165, DW_AT_name("msbFirst")
    2064                    .dwattr $C$DW$165, DW_AT_TI_symbol_name("msbFirst")
    2065                    .dwattr $C$DW$165, DW_AT_data_member_location[DW_OP_plus_uconst 0xa]
    2066                    .dwattr $C$DW$165, DW_AT_accessibility(DW_ACCESS_public)
    2067                    .dwattr $C$DW$165, DW_AT_decl_file("..\MSP430F5xx_6xx\usci_b_spi.h")
    2068                    .dwattr $C$DW$165, DW_AT_decl_line(0x4d)
    2069                    .dwattr $C$DW$165, DW_AT_decl_column(0x0d)
    2070            
    2071            $C$DW$166       .dwtag  DW_TAG_member
    2072                    .dwattr $C$DW$166, DW_AT_type(*$C$DW$T$19)
    2073                    .dwattr $C$DW$166, DW_AT_name("clockPhase")
    2074                    .dwattr $C$DW$166, DW_AT_TI_symbol_name("clockPhase")
    2075                    .dwattr $C$DW$166, DW_AT_data_member_location[DW_OP_plus_uconst 0xb]
    2076                    .dwattr $C$DW$166, DW_AT_accessibility(DW_ACCESS_public)
    2077                    .dwattr $C$DW$166, DW_AT_decl_file("..\MSP430F5xx_6xx\usci_b_spi.h")
    2078                    .dwattr $C$DW$166, DW_AT_decl_line(0x52)
    2079                    .dwattr $C$DW$166, DW_AT_decl_column(0x0d)
    2080            
    2081            $C$DW$167       .dwtag  DW_TAG_member
    2082                    .dwattr $C$DW$167, DW_AT_type(*$C$DW$T$19)
    2083                    .dwattr $C$DW$167, DW_AT_name("clockPolarity")
    2084                    .dwattr $C$DW$167, DW_AT_TI_symbol_name("clockPolarity")
MSP430 Assembler PC v15.12.3 Wed Oct 12 11:17:26 2016

Tools Copyright (c) 2003-2015 Texas Instruments Incorporated
C:\Users\LokBok\AppData\Local\Temp\097882                            PAGE   39

    2085                    .dwattr $C$DW$167, DW_AT_data_member_location[DW_OP_plus_uconst 0xc]
    2086                    .dwattr $C$DW$167, DW_AT_accessibility(DW_ACCESS_public)
    2087                    .dwattr $C$DW$167, DW_AT_decl_file("..\MSP430F5xx_6xx\usci_b_spi.h")
    2088                    .dwattr $C$DW$167, DW_AT_decl_line(0x56)
    2089                    .dwattr $C$DW$167, DW_AT_decl_column(0x0d)
    2090            
    2091                    .dwattr $C$DW$T$50, DW_AT_decl_file("..\MSP430F5xx_6xx\usci_b_spi.h")
    2092                    .dwattr $C$DW$T$50, DW_AT_decl_line(0x3e)
    2093                    .dwattr $C$DW$T$50, DW_AT_decl_column(0x10)
    2094                    .dwendtag $C$DW$T$50
    2095            
    2096            $C$DW$T$81      .dwtag  DW_TAG_typedef
    2097                    .dwattr $C$DW$T$81, DW_AT_name("USCI_B_SPI_initMasterParam")
    2098                    .dwattr $C$DW$T$81, DW_AT_type(*$C$DW$T$50)
    2099                    .dwattr $C$DW$T$81, DW_AT_language(DW_LANG_C)
    2100                    .dwattr $C$DW$T$81, DW_AT_decl_file("..\MSP430F5xx_6xx\usci_b_spi.h")
    2101                    .dwattr $C$DW$T$81, DW_AT_decl_line(0x57)
    2102                    .dwattr $C$DW$T$81, DW_AT_decl_column(0x03)
    2103            
    2104            $C$DW$T$2       .dwtag  DW_TAG_unspecified_type
    2105                    .dwattr $C$DW$T$2, DW_AT_name("void")
    2106            
    2107            
    2108            $C$DW$T$85      .dwtag  DW_TAG_subroutine_type
    2109                    .dwattr $C$DW$T$85, DW_AT_language(DW_LANG_C)
    2110                    .dwendtag $C$DW$T$85
    2111            
    2112            $C$DW$T$86      .dwtag  DW_TAG_pointer_type
    2113                    .dwattr $C$DW$T$86, DW_AT_type(*$C$DW$T$85)
    2114                    .dwattr $C$DW$T$86, DW_AT_address_class(0x14)
    2115            
    2116            $C$DW$T$87      .dwtag  DW_TAG_typedef
    2117                    .dwattr $C$DW$T$87, DW_AT_name("__SFR_FARPTR")
    2118                    .dwattr $C$DW$T$87, DW_AT_type(*$C$DW$T$86)
    2119                    .dwattr $C$DW$T$87, DW_AT_language(DW_LANG_C)
    2120                    .dwattr $C$DW$T$87, DW_AT_decl_file("D:\Program Files\TI CCSv6\ccsv6\ccs_base\msp430\include\m
    2121                    .dwattr $C$DW$T$87, DW_AT_decl_line(0x47)
    2122                    .dwattr $C$DW$T$87, DW_AT_decl_column(0x11)
    2123            
    2124            $C$DW$T$4       .dwtag  DW_TAG_base_type
    2125                    .dwattr $C$DW$T$4, DW_AT_encoding(DW_ATE_boolean)
    2126                    .dwattr $C$DW$T$4, DW_AT_name("bool")
    2127                    .dwattr $C$DW$T$4, DW_AT_byte_size(0x01)
    2128            
    2129            $C$DW$T$5       .dwtag  DW_TAG_base_type
    2130                    .dwattr $C$DW$T$5, DW_AT_encoding(DW_ATE_signed_char)
    2131                    .dwattr $C$DW$T$5, DW_AT_name("signed char")
    2132                    .dwattr $C$DW$T$5, DW_AT_byte_size(0x01)
    2133            
    2134            $C$DW$T$88      .dwtag  DW_TAG_typedef
    2135                    .dwattr $C$DW$T$88, DW_AT_name("int8_t")
    2136                    .dwattr $C$DW$T$88, DW_AT_type(*$C$DW$T$5)
    2137                    .dwattr $C$DW$T$88, DW_AT_language(DW_LANG_C)
    2138                    .dwattr $C$DW$T$88, DW_AT_decl_file("D:/Program Files/TI CCSv6/ccsv6/tools/compiler/msp430_15.
    2139                    .dwattr $C$DW$T$88, DW_AT_decl_line(0x2a)
MSP430 Assembler PC v15.12.3 Wed Oct 12 11:17:26 2016

Tools Copyright (c) 2003-2015 Texas Instruments Incorporated
C:\Users\LokBok\AppData\Local\Temp\097882                            PAGE   40

    2140                    .dwattr $C$DW$T$88, DW_AT_decl_column(0x1e)
    2141            
    2142            $C$DW$T$89      .dwtag  DW_TAG_typedef
    2143                    .dwattr $C$DW$T$89, DW_AT_name("int_least8_t")
    2144                    .dwattr $C$DW$T$89, DW_AT_type(*$C$DW$T$88)
    2145                    .dwattr $C$DW$T$89, DW_AT_language(DW_LANG_C)
    2146                    .dwattr $C$DW$T$89, DW_AT_decl_file("D:/Program Files/TI CCSv6/ccsv6/tools/compiler/msp430_15.
    2147                    .dwattr $C$DW$T$89, DW_AT_decl_line(0x37)
    2148                    .dwattr $C$DW$T$89, DW_AT_decl_column(0x17)
    2149            
    2150            $C$DW$T$6       .dwtag  DW_TAG_base_type
    2151                    .dwattr $C$DW$T$6, DW_AT_encoding(DW_ATE_unsigned_char)
    2152                    .dwattr $C$DW$T$6, DW_AT_name("unsigned char")
    2153                    .dwattr $C$DW$T$6, DW_AT_byte_size(0x01)
    2154            
    2155            $C$DW$T$19      .dwtag  DW_TAG_typedef
    2156                    .dwattr $C$DW$T$19, DW_AT_name("uint8_t")
    2157                    .dwattr $C$DW$T$19, DW_AT_type(*$C$DW$T$6)
    2158                    .dwattr $C$DW$T$19, DW_AT_language(DW_LANG_C)
    2159                    .dwattr $C$DW$T$19, DW_AT_decl_file("D:/Program Files/TI CCSv6/ccsv6/tools/compiler/msp430_15.
    2160                    .dwattr $C$DW$T$19, DW_AT_decl_line(0x2b)
    2161                    .dwattr $C$DW$T$19, DW_AT_decl_column(0x1d)
    2162            
    2163            $C$DW$T$28      .dwtag  DW_TAG_pointer_type
    2164                    .dwattr $C$DW$T$28, DW_AT_type(*$C$DW$T$19)
    2165                    .dwattr $C$DW$T$28, DW_AT_address_class(0x14)
    2166            
    2167            $C$DW$168       .dwtag  DW_TAG_TI_far_type
    2168                    .dwattr $C$DW$168, DW_AT_type(*$C$DW$T$19)
    2169            
    2170            $C$DW$T$26      .dwtag  DW_TAG_const_type
    2171                    .dwattr $C$DW$T$26, DW_AT_type(*$C$DW$168)
    2172            
    2173            $C$DW$T$27      .dwtag  DW_TAG_pointer_type
    2174                    .dwattr $C$DW$T$27, DW_AT_type(*$C$DW$T$26)
    2175                    .dwattr $C$DW$T$27, DW_AT_address_class(0x14)
    2176            
    2177            $C$DW$T$90      .dwtag  DW_TAG_typedef
    2178                    .dwattr $C$DW$T$90, DW_AT_name("uint_least8_t")
    2179                    .dwattr $C$DW$T$90, DW_AT_type(*$C$DW$T$19)
    2180                    .dwattr $C$DW$T$90, DW_AT_language(DW_LANG_C)
    2181                    .dwattr $C$DW$T$90, DW_AT_decl_file("D:/Program Files/TI CCSv6/ccsv6/tools/compiler/msp430_15.
    2182                    .dwattr $C$DW$T$90, DW_AT_decl_line(0x38)
    2183                    .dwattr $C$DW$T$90, DW_AT_decl_column(0x16)
    2184            
    2185            $C$DW$T$7       .dwtag  DW_TAG_base_type
    2186                    .dwattr $C$DW$T$7, DW_AT_encoding(DW_ATE_signed_char)
    2187                    .dwattr $C$DW$T$7, DW_AT_name("wchar_t")
    2188                    .dwattr $C$DW$T$7, DW_AT_byte_size(0x02)
    2189            
    2190            $C$DW$T$8       .dwtag  DW_TAG_base_type
    2191                    .dwattr $C$DW$T$8, DW_AT_encoding(DW_ATE_signed)
    2192                    .dwattr $C$DW$T$8, DW_AT_name("short")
    2193                    .dwattr $C$DW$T$8, DW_AT_byte_size(0x02)
    2194            
MSP430 Assembler PC v15.12.3 Wed Oct 12 11:17:26 2016

Tools Copyright (c) 2003-2015 Texas Instruments Incorporated
C:\Users\LokBok\AppData\Local\Temp\097882                            PAGE   41

    2195            $C$DW$T$9       .dwtag  DW_TAG_base_type
    2196                    .dwattr $C$DW$T$9, DW_AT_encoding(DW_ATE_unsigned)
    2197                    .dwattr $C$DW$T$9, DW_AT_name("unsigned short")
    2198                    .dwattr $C$DW$T$9, DW_AT_byte_size(0x02)
    2199            
    2200            $C$DW$T$10      .dwtag  DW_TAG_base_type
    2201                    .dwattr $C$DW$T$10, DW_AT_encoding(DW_ATE_signed)
    2202                    .dwattr $C$DW$T$10, DW_AT_name("int")
    2203                    .dwattr $C$DW$T$10, DW_AT_byte_size(0x02)
    2204            
    2205            $C$DW$T$52      .dwtag  DW_TAG_typedef
    2206                    .dwattr $C$DW$T$52, DW_AT_name("int16_t")
    2207                    .dwattr $C$DW$T$52, DW_AT_type(*$C$DW$T$10)
    2208                    .dwattr $C$DW$T$52, DW_AT_language(DW_LANG_C)
    2209                    .dwattr $C$DW$T$52, DW_AT_decl_file("D:/Program Files/TI CCSv6/ccsv6/tools/compiler/msp430_15.
    2210                    .dwattr $C$DW$T$52, DW_AT_decl_line(0x2c)
    2211                    .dwattr $C$DW$T$52, DW_AT_decl_column(0x1d)
    2212            
    2213            $C$DW$T$91      .dwtag  DW_TAG_typedef
    2214                    .dwattr $C$DW$T$91, DW_AT_name("int_fast16_t")
    2215                    .dwattr $C$DW$T$91, DW_AT_type(*$C$DW$T$52)
    2216                    .dwattr $C$DW$T$91, DW_AT_language(DW_LANG_C)
    2217                    .dwattr $C$DW$T$91, DW_AT_decl_file("D:/Program Files/TI CCSv6/ccsv6/tools/compiler/msp430_15.
    2218                    .dwattr $C$DW$T$91, DW_AT_decl_line(0x47)
    2219                    .dwattr $C$DW$T$91, DW_AT_decl_column(0x17)
    2220            
    2221            $C$DW$T$92      .dwtag  DW_TAG_typedef
    2222                    .dwattr $C$DW$T$92, DW_AT_name("int_fast8_t")
    2223                    .dwattr $C$DW$T$92, DW_AT_type(*$C$DW$T$52)
    2224                    .dwattr $C$DW$T$92, DW_AT_language(DW_LANG_C)
    2225                    .dwattr $C$DW$T$92, DW_AT_decl_file("D:/Program Files/TI CCSv6/ccsv6/tools/compiler/msp430_15.
    2226                    .dwattr $C$DW$T$92, DW_AT_decl_line(0x45)
    2227                    .dwattr $C$DW$T$92, DW_AT_decl_column(0x17)
    2228            
    2229            $C$DW$T$93      .dwtag  DW_TAG_typedef
    2230                    .dwattr $C$DW$T$93, DW_AT_name("int_least16_t")
    2231                    .dwattr $C$DW$T$93, DW_AT_type(*$C$DW$T$52)
    2232                    .dwattr $C$DW$T$93, DW_AT_language(DW_LANG_C)
    2233                    .dwattr $C$DW$T$93, DW_AT_decl_file("D:/Program Files/TI CCSv6/ccsv6/tools/compiler/msp430_15.
    2234                    .dwattr $C$DW$T$93, DW_AT_decl_line(0x3a)
    2235                    .dwattr $C$DW$T$93, DW_AT_decl_column(0x17)
    2236            
    2237            $C$DW$T$11      .dwtag  DW_TAG_base_type
    2238                    .dwattr $C$DW$T$11, DW_AT_encoding(DW_ATE_unsigned)
    2239                    .dwattr $C$DW$T$11, DW_AT_name("unsigned int")
    2240                    .dwattr $C$DW$T$11, DW_AT_byte_size(0x02)
    2241            
    2242            $C$DW$T$21      .dwtag  DW_TAG_typedef
    2243                    .dwattr $C$DW$T$21, DW_AT_name("uint16_t")
    2244                    .dwattr $C$DW$T$21, DW_AT_type(*$C$DW$T$11)
    2245                    .dwattr $C$DW$T$21, DW_AT_language(DW_LANG_C)
    2246                    .dwattr $C$DW$T$21, DW_AT_decl_file("D:/Program Files/TI CCSv6/ccsv6/tools/compiler/msp430_15.
    2247                    .dwattr $C$DW$T$21, DW_AT_decl_line(0x2d)
    2248                    .dwattr $C$DW$T$21, DW_AT_decl_column(0x1c)
    2249            
MSP430 Assembler PC v15.12.3 Wed Oct 12 11:17:26 2016

Tools Copyright (c) 2003-2015 Texas Instruments Incorporated
C:\Users\LokBok\AppData\Local\Temp\097882                            PAGE   42

    2250            $C$DW$T$94      .dwtag  DW_TAG_typedef
    2251                    .dwattr $C$DW$T$94, DW_AT_name("uint_fast16_t")
    2252                    .dwattr $C$DW$T$94, DW_AT_type(*$C$DW$T$21)
    2253                    .dwattr $C$DW$T$94, DW_AT_language(DW_LANG_C)
    2254                    .dwattr $C$DW$T$94, DW_AT_decl_file("D:/Program Files/TI CCSv6/ccsv6/tools/compiler/msp430_15.
    2255                    .dwattr $C$DW$T$94, DW_AT_decl_line(0x48)
    2256                    .dwattr $C$DW$T$94, DW_AT_decl_column(0x16)
    2257            
    2258            $C$DW$T$95      .dwtag  DW_TAG_typedef
    2259                    .dwattr $C$DW$T$95, DW_AT_name("uint_fast8_t")
    2260                    .dwattr $C$DW$T$95, DW_AT_type(*$C$DW$T$21)
    2261                    .dwattr $C$DW$T$95, DW_AT_language(DW_LANG_C)
    2262                    .dwattr $C$DW$T$95, DW_AT_decl_file("D:/Program Files/TI CCSv6/ccsv6/tools/compiler/msp430_15.
    2263                    .dwattr $C$DW$T$95, DW_AT_decl_line(0x46)
    2264                    .dwattr $C$DW$T$95, DW_AT_decl_column(0x16)
    2265            
    2266            $C$DW$T$96      .dwtag  DW_TAG_typedef
    2267                    .dwattr $C$DW$T$96, DW_AT_name("uint_least16_t")
    2268                    .dwattr $C$DW$T$96, DW_AT_type(*$C$DW$T$21)
    2269                    .dwattr $C$DW$T$96, DW_AT_language(DW_LANG_C)
    2270                    .dwattr $C$DW$T$96, DW_AT_decl_file("D:/Program Files/TI CCSv6/ccsv6/tools/compiler/msp430_15.
    2271                    .dwattr $C$DW$T$96, DW_AT_decl_line(0x3b)
    2272                    .dwattr $C$DW$T$96, DW_AT_decl_column(0x16)
    2273            
    2274            $C$DW$T$12      .dwtag  DW_TAG_base_type
    2275                    .dwattr $C$DW$T$12, DW_AT_encoding(DW_ATE_signed)
    2276                    .dwattr $C$DW$T$12, DW_AT_name("long")
    2277                    .dwattr $C$DW$T$12, DW_AT_byte_size(0x04)
    2278            
    2279            $C$DW$T$97      .dwtag  DW_TAG_typedef
    2280                    .dwattr $C$DW$T$97, DW_AT_name("int32_t")
    2281                    .dwattr $C$DW$T$97, DW_AT_type(*$C$DW$T$12)
    2282                    .dwattr $C$DW$T$97, DW_AT_language(DW_LANG_C)
    2283                    .dwattr $C$DW$T$97, DW_AT_decl_file("D:/Program Files/TI CCSv6/ccsv6/tools/compiler/msp430_15.
    2284                    .dwattr $C$DW$T$97, DW_AT_decl_line(0x2e)
    2285                    .dwattr $C$DW$T$97, DW_AT_decl_column(0x1d)
    2286            
    2287            $C$DW$T$98      .dwtag  DW_TAG_typedef
    2288                    .dwattr $C$DW$T$98, DW_AT_name("int_fast32_t")
    2289                    .dwattr $C$DW$T$98, DW_AT_type(*$C$DW$T$97)
    2290                    .dwattr $C$DW$T$98, DW_AT_language(DW_LANG_C)
    2291                    .dwattr $C$DW$T$98, DW_AT_decl_file("D:/Program Files/TI CCSv6/ccsv6/tools/compiler/msp430_15.
    2292                    .dwattr $C$DW$T$98, DW_AT_decl_line(0x4a)
    2293                    .dwattr $C$DW$T$98, DW_AT_decl_column(0x17)
    2294            
    2295            $C$DW$T$99      .dwtag  DW_TAG_typedef
    2296                    .dwattr $C$DW$T$99, DW_AT_name("int_least32_t")
    2297                    .dwattr $C$DW$T$99, DW_AT_type(*$C$DW$T$97)
    2298                    .dwattr $C$DW$T$99, DW_AT_language(DW_LANG_C)
    2299                    .dwattr $C$DW$T$99, DW_AT_decl_file("D:/Program Files/TI CCSv6/ccsv6/tools/compiler/msp430_15.
    2300                    .dwattr $C$DW$T$99, DW_AT_decl_line(0x3c)
    2301                    .dwattr $C$DW$T$99, DW_AT_decl_column(0x17)
    2302            
    2303            $C$DW$T$100     .dwtag  DW_TAG_typedef
    2304                    .dwattr $C$DW$T$100, DW_AT_name("intptr_t")
MSP430 Assembler PC v15.12.3 Wed Oct 12 11:17:26 2016

Tools Copyright (c) 2003-2015 Texas Instruments Incorporated
C:\Users\LokBok\AppData\Local\Temp\097882                            PAGE   43

    2305                    .dwattr $C$DW$T$100, DW_AT_type(*$C$DW$T$12)
    2306                    .dwattr $C$DW$T$100, DW_AT_language(DW_LANG_C)
    2307                    .dwattr $C$DW$T$100, DW_AT_decl_file("D:/Program Files/TI CCSv6/ccsv6/tools/compiler/msp430_15
    2308                    .dwattr $C$DW$T$100, DW_AT_decl_line(0x55)
    2309                    .dwattr $C$DW$T$100, DW_AT_decl_column(0x1b)
    2310            
    2311            $C$DW$T$13      .dwtag  DW_TAG_base_type
    2312                    .dwattr $C$DW$T$13, DW_AT_encoding(DW_ATE_unsigned)
    2313                    .dwattr $C$DW$T$13, DW_AT_name("unsigned long")
    2314                    .dwattr $C$DW$T$13, DW_AT_byte_size(0x04)
    2315            
    2316            $C$DW$T$44      .dwtag  DW_TAG_typedef
    2317                    .dwattr $C$DW$T$44, DW_AT_name("uint32_t")
    2318                    .dwattr $C$DW$T$44, DW_AT_type(*$C$DW$T$13)
    2319                    .dwattr $C$DW$T$44, DW_AT_language(DW_LANG_C)
    2320                    .dwattr $C$DW$T$44, DW_AT_decl_file("D:/Program Files/TI CCSv6/ccsv6/tools/compiler/msp430_15.
    2321                    .dwattr $C$DW$T$44, DW_AT_decl_line(0x2f)
    2322                    .dwattr $C$DW$T$44, DW_AT_decl_column(0x1c)
    2323            
    2324            $C$DW$T$101     .dwtag  DW_TAG_typedef
    2325                    .dwattr $C$DW$T$101, DW_AT_name("uint_fast32_t")
    2326                    .dwattr $C$DW$T$101, DW_AT_type(*$C$DW$T$44)
    2327                    .dwattr $C$DW$T$101, DW_AT_language(DW_LANG_C)
    2328                    .dwattr $C$DW$T$101, DW_AT_decl_file("D:/Program Files/TI CCSv6/ccsv6/tools/compiler/msp430_15
    2329                    .dwattr $C$DW$T$101, DW_AT_decl_line(0x4b)
    2330                    .dwattr $C$DW$T$101, DW_AT_decl_column(0x16)
    2331            
    2332            $C$DW$T$102     .dwtag  DW_TAG_typedef
    2333                    .dwattr $C$DW$T$102, DW_AT_name("uint_least32_t")
    2334                    .dwattr $C$DW$T$102, DW_AT_type(*$C$DW$T$44)
    2335                    .dwattr $C$DW$T$102, DW_AT_language(DW_LANG_C)
    2336                    .dwattr $C$DW$T$102, DW_AT_decl_file("D:/Program Files/TI CCSv6/ccsv6/tools/compiler/msp430_15
    2337                    .dwattr $C$DW$T$102, DW_AT_decl_line(0x3d)
    2338                    .dwattr $C$DW$T$102, DW_AT_decl_column(0x16)
    2339            
    2340            $C$DW$T$103     .dwtag  DW_TAG_typedef
    2341                    .dwattr $C$DW$T$103, DW_AT_name("uintptr_t")
    2342                    .dwattr $C$DW$T$103, DW_AT_type(*$C$DW$T$13)
    2343                    .dwattr $C$DW$T$103, DW_AT_language(DW_LANG_C)
    2344                    .dwattr $C$DW$T$103, DW_AT_decl_file("D:/Program Files/TI CCSv6/ccsv6/tools/compiler/msp430_15
    2345                    .dwattr $C$DW$T$103, DW_AT_decl_line(0x56)
    2346                    .dwattr $C$DW$T$103, DW_AT_decl_column(0x1b)
    2347            
    2348            $C$DW$T$14      .dwtag  DW_TAG_base_type
    2349                    .dwattr $C$DW$T$14, DW_AT_encoding(DW_ATE_signed)
    2350                    .dwattr $C$DW$T$14, DW_AT_name("long long")
    2351                    .dwattr $C$DW$T$14, DW_AT_byte_size(0x08)
    2352            
    2353            $C$DW$T$104     .dwtag  DW_TAG_typedef
    2354                    .dwattr $C$DW$T$104, DW_AT_name("int64_t")
    2355                    .dwattr $C$DW$T$104, DW_AT_type(*$C$DW$T$14)
    2356                    .dwattr $C$DW$T$104, DW_AT_language(DW_LANG_C)
    2357                    .dwattr $C$DW$T$104, DW_AT_decl_file("D:/Program Files/TI CCSv6/ccsv6/tools/compiler/msp430_15
    2358                    .dwattr $C$DW$T$104, DW_AT_decl_line(0x32)
    2359                    .dwattr $C$DW$T$104, DW_AT_decl_column(0x21)
MSP430 Assembler PC v15.12.3 Wed Oct 12 11:17:26 2016

Tools Copyright (c) 2003-2015 Texas Instruments Incorporated
C:\Users\LokBok\AppData\Local\Temp\097882                            PAGE   44

    2360            
    2361            $C$DW$T$105     .dwtag  DW_TAG_typedef
    2362                    .dwattr $C$DW$T$105, DW_AT_name("int_fast64_t")
    2363                    .dwattr $C$DW$T$105, DW_AT_type(*$C$DW$T$104)
    2364                    .dwattr $C$DW$T$105, DW_AT_language(DW_LANG_C)
    2365                    .dwattr $C$DW$T$105, DW_AT_decl_file("D:/Program Files/TI CCSv6/ccsv6/tools/compiler/msp430_15
    2366                    .dwattr $C$DW$T$105, DW_AT_decl_line(0x4e)
    2367                    .dwattr $C$DW$T$105, DW_AT_decl_column(0x17)
    2368            
    2369            $C$DW$T$106     .dwtag  DW_TAG_typedef
    2370                    .dwattr $C$DW$T$106, DW_AT_name("int_least64_t")
    2371                    .dwattr $C$DW$T$106, DW_AT_type(*$C$DW$T$104)
    2372                    .dwattr $C$DW$T$106, DW_AT_language(DW_LANG_C)
    2373                    .dwattr $C$DW$T$106, DW_AT_decl_file("D:/Program Files/TI CCSv6/ccsv6/tools/compiler/msp430_15
    2374                    .dwattr $C$DW$T$106, DW_AT_decl_line(0x40)
    2375                    .dwattr $C$DW$T$106, DW_AT_decl_column(0x17)
    2376            
    2377            $C$DW$T$107     .dwtag  DW_TAG_typedef
    2378                    .dwattr $C$DW$T$107, DW_AT_name("intmax_t")
    2379                    .dwattr $C$DW$T$107, DW_AT_type(*$C$DW$T$14)
    2380                    .dwattr $C$DW$T$107, DW_AT_language(DW_LANG_C)
    2381                    .dwattr $C$DW$T$107, DW_AT_decl_file("D:/Program Files/TI CCSv6/ccsv6/tools/compiler/msp430_15
    2382                    .dwattr $C$DW$T$107, DW_AT_decl_line(0x5d)
    2383                    .dwattr $C$DW$T$107, DW_AT_decl_column(0x20)
    2384            
    2385            $C$DW$T$15      .dwtag  DW_TAG_base_type
    2386                    .dwattr $C$DW$T$15, DW_AT_encoding(DW_ATE_unsigned)
    2387                    .dwattr $C$DW$T$15, DW_AT_name("unsigned long long")
    2388                    .dwattr $C$DW$T$15, DW_AT_byte_size(0x08)
    2389            
    2390            $C$DW$T$108     .dwtag  DW_TAG_typedef
    2391                    .dwattr $C$DW$T$108, DW_AT_name("uint64_t")
    2392                    .dwattr $C$DW$T$108, DW_AT_type(*$C$DW$T$15)
    2393                    .dwattr $C$DW$T$108, DW_AT_language(DW_LANG_C)
    2394                    .dwattr $C$DW$T$108, DW_AT_decl_file("D:/Program Files/TI CCSv6/ccsv6/tools/compiler/msp430_15
    2395                    .dwattr $C$DW$T$108, DW_AT_decl_line(0x33)
    2396                    .dwattr $C$DW$T$108, DW_AT_decl_column(0x20)
    2397            
    2398            $C$DW$T$109     .dwtag  DW_TAG_typedef
    2399                    .dwattr $C$DW$T$109, DW_AT_name("uint_fast64_t")
    2400                    .dwattr $C$DW$T$109, DW_AT_type(*$C$DW$T$108)
    2401                    .dwattr $C$DW$T$109, DW_AT_language(DW_LANG_C)
    2402                    .dwattr $C$DW$T$109, DW_AT_decl_file("D:/Program Files/TI CCSv6/ccsv6/tools/compiler/msp430_15
    2403                    .dwattr $C$DW$T$109, DW_AT_decl_line(0x4f)
    2404                    .dwattr $C$DW$T$109, DW_AT_decl_column(0x16)
    2405            
    2406            $C$DW$T$110     .dwtag  DW_TAG_typedef
    2407                    .dwattr $C$DW$T$110, DW_AT_name("uint_least64_t")
    2408                    .dwattr $C$DW$T$110, DW_AT_type(*$C$DW$T$108)
    2409                    .dwattr $C$DW$T$110, DW_AT_language(DW_LANG_C)
    2410                    .dwattr $C$DW$T$110, DW_AT_decl_file("D:/Program Files/TI CCSv6/ccsv6/tools/compiler/msp430_15
    2411                    .dwattr $C$DW$T$110, DW_AT_decl_line(0x41)
    2412                    .dwattr $C$DW$T$110, DW_AT_decl_column(0x16)
    2413            
    2414            $C$DW$T$111     .dwtag  DW_TAG_typedef
MSP430 Assembler PC v15.12.3 Wed Oct 12 11:17:26 2016

Tools Copyright (c) 2003-2015 Texas Instruments Incorporated
C:\Users\LokBok\AppData\Local\Temp\097882                            PAGE   45

    2415                    .dwattr $C$DW$T$111, DW_AT_name("uintmax_t")
    2416                    .dwattr $C$DW$T$111, DW_AT_type(*$C$DW$T$15)
    2417                    .dwattr $C$DW$T$111, DW_AT_language(DW_LANG_C)
    2418                    .dwattr $C$DW$T$111, DW_AT_decl_file("D:/Program Files/TI CCSv6/ccsv6/tools/compiler/msp430_15
    2419                    .dwattr $C$DW$T$111, DW_AT_decl_line(0x5e)
    2420                    .dwattr $C$DW$T$111, DW_AT_decl_column(0x20)
    2421            
    2422            $C$DW$T$16      .dwtag  DW_TAG_base_type
    2423                    .dwattr $C$DW$T$16, DW_AT_encoding(DW_ATE_float)
    2424                    .dwattr $C$DW$T$16, DW_AT_name("float")
    2425                    .dwattr $C$DW$T$16, DW_AT_byte_size(0x04)
    2426            
    2427            $C$DW$T$17      .dwtag  DW_TAG_base_type
    2428                    .dwattr $C$DW$T$17, DW_AT_encoding(DW_ATE_float)
    2429                    .dwattr $C$DW$T$17, DW_AT_name("double")
    2430                    .dwattr $C$DW$T$17, DW_AT_byte_size(0x08)
    2431            
    2432            $C$DW$T$18      .dwtag  DW_TAG_base_type
    2433                    .dwattr $C$DW$T$18, DW_AT_encoding(DW_ATE_float)
    2434                    .dwattr $C$DW$T$18, DW_AT_name("long double")
    2435                    .dwattr $C$DW$T$18, DW_AT_byte_size(0x08)
    2436            
    2437            $C$DW$T$33      .dwtag  DW_TAG_base_type
    2438                    .dwattr $C$DW$T$33, DW_AT_encoding(DW_ATE_unsigned_char)
    2439                    .dwattr $C$DW$T$33, DW_AT_name("unsigned char")
    2440                    .dwattr $C$DW$T$33, DW_AT_byte_size(0x01)
    2441            
    2442            
    2443            $C$DW$T$51      .dwtag  DW_TAG_structure_type
    2444                    .dwattr $C$DW$T$51, DW_AT_name("s_Peripheral_Memory_Data")
    2445                    .dwattr $C$DW$T$51, DW_AT_byte_size(0x08)
    2446            $C$DW$169       .dwtag  DW_TAG_member
    2447                    .dwattr $C$DW$169, DW_AT_type(*$C$DW$T$21)
    2448                    .dwattr $C$DW$169, DW_AT_name("memory_1")
    2449                    .dwattr $C$DW$169, DW_AT_TI_symbol_name("memory_1")
    2450                    .dwattr $C$DW$169, DW_AT_data_member_location[DW_OP_plus_uconst 0x0]
    2451                    .dwattr $C$DW$169, DW_AT_accessibility(DW_ACCESS_public)
    2452                    .dwattr $C$DW$169, DW_AT_decl_file("..\MSP430F5xx_6xx\tlv.h")
    2453                    .dwattr $C$DW$169, DW_AT_decl_line(0x63)
    2454                    .dwattr $C$DW$169, DW_AT_decl_column(0x0e)
    2455            
    2456            $C$DW$170       .dwtag  DW_TAG_member
    2457                    .dwattr $C$DW$170, DW_AT_type(*$C$DW$T$21)
    2458                    .dwattr $C$DW$170, DW_AT_name("memory_2")
    2459                    .dwattr $C$DW$170, DW_AT_TI_symbol_name("memory_2")
    2460                    .dwattr $C$DW$170, DW_AT_data_member_location[DW_OP_plus_uconst 0x2]
    2461                    .dwattr $C$DW$170, DW_AT_accessibility(DW_ACCESS_public)
    2462                    .dwattr $C$DW$170, DW_AT_decl_file("..\MSP430F5xx_6xx\tlv.h")
    2463                    .dwattr $C$DW$170, DW_AT_decl_line(0x64)
    2464                    .dwattr $C$DW$170, DW_AT_decl_column(0x0e)
    2465            
    2466            $C$DW$171       .dwtag  DW_TAG_member
    2467                    .dwattr $C$DW$171, DW_AT_type(*$C$DW$T$21)
    2468                    .dwattr $C$DW$171, DW_AT_name("memory_3")
    2469                    .dwattr $C$DW$171, DW_AT_TI_symbol_name("memory_3")
MSP430 Assembler PC v15.12.3 Wed Oct 12 11:17:26 2016

Tools Copyright (c) 2003-2015 Texas Instruments Incorporated
C:\Users\LokBok\AppData\Local\Temp\097882                            PAGE   46

    2470                    .dwattr $C$DW$171, DW_AT_data_member_location[DW_OP_plus_uconst 0x4]
    2471                    .dwattr $C$DW$171, DW_AT_accessibility(DW_ACCESS_public)
    2472                    .dwattr $C$DW$171, DW_AT_decl_file("..\MSP430F5xx_6xx\tlv.h")
    2473                    .dwattr $C$DW$171, DW_AT_decl_line(0x65)
    2474                    .dwattr $C$DW$171, DW_AT_decl_column(0x0e)
    2475            
    2476            $C$DW$172       .dwtag  DW_TAG_member
    2477                    .dwattr $C$DW$172, DW_AT_type(*$C$DW$T$21)
    2478                    .dwattr $C$DW$172, DW_AT_name("memory_4")
    2479                    .dwattr $C$DW$172, DW_AT_TI_symbol_name("memory_4")
    2480                    .dwattr $C$DW$172, DW_AT_data_member_location[DW_OP_plus_uconst 0x6]
    2481                    .dwattr $C$DW$172, DW_AT_accessibility(DW_ACCESS_public)
    2482                    .dwattr $C$DW$172, DW_AT_decl_file("..\MSP430F5xx_6xx\tlv.h")
    2483                    .dwattr $C$DW$172, DW_AT_decl_line(0x66)
    2484                    .dwattr $C$DW$172, DW_AT_decl_column(0x0e)
    2485            
    2486                    .dwattr $C$DW$T$51, DW_AT_decl_file("..\MSP430F5xx_6xx\tlv.h")
    2487                    .dwattr $C$DW$T$51, DW_AT_decl_line(0x61)
    2488                    .dwattr $C$DW$T$51, DW_AT_decl_column(0x08)
    2489                    .dwendtag $C$DW$T$51
    2490            
    2491            
    2492            $C$DW$T$53      .dwtag  DW_TAG_structure_type
    2493                    .dwattr $C$DW$T$53, DW_AT_name("s_TLV_ADC_Cal_Data")
    2494                    .dwattr $C$DW$T$53, DW_AT_byte_size(0x10)
    2495            $C$DW$173       .dwtag  DW_TAG_member
    2496                    .dwattr $C$DW$173, DW_AT_type(*$C$DW$T$21)
    2497                    .dwattr $C$DW$173, DW_AT_name("adc_gain_factor")
    2498                    .dwattr $C$DW$173, DW_AT_TI_symbol_name("adc_gain_factor")
    2499                    .dwattr $C$DW$173, DW_AT_data_member_location[DW_OP_plus_uconst 0x0]
    2500                    .dwattr $C$DW$173, DW_AT_accessibility(DW_ACCESS_public)
    2501                    .dwattr $C$DW$173, DW_AT_decl_file("..\MSP430F5xx_6xx\tlv.h")
    2502                    .dwattr $C$DW$173, DW_AT_decl_line(0x48)
    2503                    .dwattr $C$DW$173, DW_AT_decl_column(0x0e)
    2504            
    2505            $C$DW$174       .dwtag  DW_TAG_member
    2506                    .dwattr $C$DW$174, DW_AT_type(*$C$DW$T$52)
    2507                    .dwattr $C$DW$174, DW_AT_name("adc_offset")
    2508                    .dwattr $C$DW$174, DW_AT_TI_symbol_name("adc_offset")
    2509                    .dwattr $C$DW$174, DW_AT_data_member_location[DW_OP_plus_uconst 0x2]
    2510                    .dwattr $C$DW$174, DW_AT_accessibility(DW_ACCESS_public)
    2511                    .dwattr $C$DW$174, DW_AT_decl_file("..\MSP430F5xx_6xx\tlv.h")
    2512                    .dwattr $C$DW$174, DW_AT_decl_line(0x49)
    2513                    .dwattr $C$DW$174, DW_AT_decl_column(0x0d)
    2514            
    2515            $C$DW$175       .dwtag  DW_TAG_member
    2516                    .dwattr $C$DW$175, DW_AT_type(*$C$DW$T$21)
    2517                    .dwattr $C$DW$175, DW_AT_name("adc_ref15_30_temp")
    2518                    .dwattr $C$DW$175, DW_AT_TI_symbol_name("adc_ref15_30_temp")
    2519                    .dwattr $C$DW$175, DW_AT_data_member_location[DW_OP_plus_uconst 0x4]
    2520                    .dwattr $C$DW$175, DW_AT_accessibility(DW_ACCESS_public)
    2521                    .dwattr $C$DW$175, DW_AT_decl_file("..\MSP430F5xx_6xx\tlv.h")
    2522                    .dwattr $C$DW$175, DW_AT_decl_line(0x4a)
    2523                    .dwattr $C$DW$175, DW_AT_decl_column(0x0e)
    2524            
MSP430 Assembler PC v15.12.3 Wed Oct 12 11:17:26 2016

Tools Copyright (c) 2003-2015 Texas Instruments Incorporated
C:\Users\LokBok\AppData\Local\Temp\097882                            PAGE   47

    2525            $C$DW$176       .dwtag  DW_TAG_member
    2526                    .dwattr $C$DW$176, DW_AT_type(*$C$DW$T$21)
    2527                    .dwattr $C$DW$176, DW_AT_name("adc_ref15_85_temp")
    2528                    .dwattr $C$DW$176, DW_AT_TI_symbol_name("adc_ref15_85_temp")
    2529                    .dwattr $C$DW$176, DW_AT_data_member_location[DW_OP_plus_uconst 0x6]
    2530                    .dwattr $C$DW$176, DW_AT_accessibility(DW_ACCESS_public)
    2531                    .dwattr $C$DW$176, DW_AT_decl_file("..\MSP430F5xx_6xx\tlv.h")
    2532                    .dwattr $C$DW$176, DW_AT_decl_line(0x4b)
    2533                    .dwattr $C$DW$176, DW_AT_decl_column(0x0e)
    2534            
    2535            $C$DW$177       .dwtag  DW_TAG_member
    2536                    .dwattr $C$DW$177, DW_AT_type(*$C$DW$T$21)
    2537                    .dwattr $C$DW$177, DW_AT_name("adc_ref20_30_temp")
    2538                    .dwattr $C$DW$177, DW_AT_TI_symbol_name("adc_ref20_30_temp")
    2539                    .dwattr $C$DW$177, DW_AT_data_member_location[DW_OP_plus_uconst 0x8]
    2540                    .dwattr $C$DW$177, DW_AT_accessibility(DW_ACCESS_public)
    2541                    .dwattr $C$DW$177, DW_AT_decl_file("..\MSP430F5xx_6xx\tlv.h")
    2542                    .dwattr $C$DW$177, DW_AT_decl_line(0x4c)
    2543                    .dwattr $C$DW$177, DW_AT_decl_column(0x0e)
    2544            
    2545            $C$DW$178       .dwtag  DW_TAG_member
    2546                    .dwattr $C$DW$178, DW_AT_type(*$C$DW$T$21)
    2547                    .dwattr $C$DW$178, DW_AT_name("adc_ref20_85_temp")
    2548                    .dwattr $C$DW$178, DW_AT_TI_symbol_name("adc_ref20_85_temp")
    2549                    .dwattr $C$DW$178, DW_AT_data_member_location[DW_OP_plus_uconst 0xa]
    2550                    .dwattr $C$DW$178, DW_AT_accessibility(DW_ACCESS_public)
    2551                    .dwattr $C$DW$178, DW_AT_decl_file("..\MSP430F5xx_6xx\tlv.h")
    2552                    .dwattr $C$DW$178, DW_AT_decl_line(0x4d)
    2553                    .dwattr $C$DW$178, DW_AT_decl_column(0x0e)
    2554            
    2555            $C$DW$179       .dwtag  DW_TAG_member
    2556                    .dwattr $C$DW$179, DW_AT_type(*$C$DW$T$21)
    2557                    .dwattr $C$DW$179, DW_AT_name("adc_ref25_30_temp")
    2558                    .dwattr $C$DW$179, DW_AT_TI_symbol_name("adc_ref25_30_temp")
    2559                    .dwattr $C$DW$179, DW_AT_data_member_location[DW_OP_plus_uconst 0xc]
    2560                    .dwattr $C$DW$179, DW_AT_accessibility(DW_ACCESS_public)
    2561                    .dwattr $C$DW$179, DW_AT_decl_file("..\MSP430F5xx_6xx\tlv.h")
    2562                    .dwattr $C$DW$179, DW_AT_decl_line(0x4e)
    2563                    .dwattr $C$DW$179, DW_AT_decl_column(0x0e)
    2564            
    2565            $C$DW$180       .dwtag  DW_TAG_member
    2566                    .dwattr $C$DW$180, DW_AT_type(*$C$DW$T$21)
    2567                    .dwattr $C$DW$180, DW_AT_name("adc_ref25_85_temp")
    2568                    .dwattr $C$DW$180, DW_AT_TI_symbol_name("adc_ref25_85_temp")
    2569                    .dwattr $C$DW$180, DW_AT_data_member_location[DW_OP_plus_uconst 0xe]
    2570                    .dwattr $C$DW$180, DW_AT_accessibility(DW_ACCESS_public)
    2571                    .dwattr $C$DW$180, DW_AT_decl_file("..\MSP430F5xx_6xx\tlv.h")
    2572                    .dwattr $C$DW$180, DW_AT_decl_line(0x4f)
    2573                    .dwattr $C$DW$180, DW_AT_decl_column(0x0e)
    2574            
    2575                    .dwattr $C$DW$T$53, DW_AT_decl_file("..\MSP430F5xx_6xx\tlv.h")
    2576                    .dwattr $C$DW$T$53, DW_AT_decl_line(0x46)
    2577                    .dwattr $C$DW$T$53, DW_AT_decl_column(0x08)
    2578                    .dwendtag $C$DW$T$53
    2579            
MSP430 Assembler PC v15.12.3 Wed Oct 12 11:17:26 2016

Tools Copyright (c) 2003-2015 Texas Instruments Incorporated
C:\Users\LokBok\AppData\Local\Temp\097882                            PAGE   48

    2580            
    2581            $C$DW$T$54      .dwtag  DW_TAG_structure_type
    2582                    .dwattr $C$DW$T$54, DW_AT_name("s_TLV_Die_Record")
    2583                    .dwattr $C$DW$T$54, DW_AT_byte_size(0x0a)
    2584            $C$DW$181       .dwtag  DW_TAG_member
    2585                    .dwattr $C$DW$181, DW_AT_type(*$C$DW$T$44)
    2586                    .dwattr $C$DW$181, DW_AT_name("wafer_id")
    2587                    .dwattr $C$DW$181, DW_AT_TI_symbol_name("wafer_id")
    2588                    .dwattr $C$DW$181, DW_AT_data_member_location[DW_OP_plus_uconst 0x0]
    2589                    .dwattr $C$DW$181, DW_AT_accessibility(DW_ACCESS_public)
    2590                    .dwattr $C$DW$181, DW_AT_decl_file("..\MSP430F5xx_6xx\tlv.h")
    2591                    .dwattr $C$DW$181, DW_AT_decl_line(0x40)
    2592                    .dwattr $C$DW$181, DW_AT_decl_column(0x0e)
    2593            
    2594            $C$DW$182       .dwtag  DW_TAG_member
    2595                    .dwattr $C$DW$182, DW_AT_type(*$C$DW$T$21)
    2596                    .dwattr $C$DW$182, DW_AT_name("die_x_position")
    2597                    .dwattr $C$DW$182, DW_AT_TI_symbol_name("die_x_position")
    2598                    .dwattr $C$DW$182, DW_AT_data_member_location[DW_OP_plus_uconst 0x4]
    2599                    .dwattr $C$DW$182, DW_AT_accessibility(DW_ACCESS_public)
    2600                    .dwattr $C$DW$182, DW_AT_decl_file("..\MSP430F5xx_6xx\tlv.h")
    2601                    .dwattr $C$DW$182, DW_AT_decl_line(0x41)
    2602                    .dwattr $C$DW$182, DW_AT_decl_column(0x0e)
    2603            
    2604            $C$DW$183       .dwtag  DW_TAG_member
    2605                    .dwattr $C$DW$183, DW_AT_type(*$C$DW$T$21)
    2606                    .dwattr $C$DW$183, DW_AT_name("die_y_position")
    2607                    .dwattr $C$DW$183, DW_AT_TI_symbol_name("die_y_position")
    2608                    .dwattr $C$DW$183, DW_AT_data_member_location[DW_OP_plus_uconst 0x6]
    2609                    .dwattr $C$DW$183, DW_AT_accessibility(DW_ACCESS_public)
    2610                    .dwattr $C$DW$183, DW_AT_decl_file("..\MSP430F5xx_6xx\tlv.h")
    2611                    .dwattr $C$DW$183, DW_AT_decl_line(0x42)
    2612                    .dwattr $C$DW$183, DW_AT_decl_column(0x0e)
    2613            
    2614            $C$DW$184       .dwtag  DW_TAG_member
    2615                    .dwattr $C$DW$184, DW_AT_type(*$C$DW$T$21)
    2616                    .dwattr $C$DW$184, DW_AT_name("test_results")
    2617                    .dwattr $C$DW$184, DW_AT_TI_symbol_name("test_results")
    2618                    .dwattr $C$DW$184, DW_AT_data_member_location[DW_OP_plus_uconst 0x8]
    2619                    .dwattr $C$DW$184, DW_AT_accessibility(DW_ACCESS_public)
    2620                    .dwattr $C$DW$184, DW_AT_decl_file("..\MSP430F5xx_6xx\tlv.h")
    2621                    .dwattr $C$DW$184, DW_AT_decl_line(0x43)
    2622                    .dwattr $C$DW$184, DW_AT_decl_column(0x0e)
    2623            
    2624                    .dwattr $C$DW$T$54, DW_AT_decl_file("..\MSP430F5xx_6xx\tlv.h")
    2625                    .dwattr $C$DW$T$54, DW_AT_decl_line(0x3e)
    2626                    .dwattr $C$DW$T$54, DW_AT_decl_column(0x08)
    2627                    .dwendtag $C$DW$T$54
    2628            
    2629            
    2630            $C$DW$T$55      .dwtag  DW_TAG_structure_type
    2631                    .dwattr $C$DW$T$55, DW_AT_name("s_TLV_REF_Cal_Data")
    2632                    .dwattr $C$DW$T$55, DW_AT_byte_size(0x06)
    2633            $C$DW$185       .dwtag  DW_TAG_member
    2634                    .dwattr $C$DW$185, DW_AT_type(*$C$DW$T$21)
MSP430 Assembler PC v15.12.3 Wed Oct 12 11:17:26 2016

Tools Copyright (c) 2003-2015 Texas Instruments Incorporated
C:\Users\LokBok\AppData\Local\Temp\097882                            PAGE   49

    2635                    .dwattr $C$DW$185, DW_AT_name("ref_ref15")
    2636                    .dwattr $C$DW$185, DW_AT_TI_symbol_name("ref_ref15")
    2637                    .dwattr $C$DW$185, DW_AT_data_member_location[DW_OP_plus_uconst 0x0]
    2638                    .dwattr $C$DW$185, DW_AT_accessibility(DW_ACCESS_public)
    2639                    .dwattr $C$DW$185, DW_AT_decl_file("..\MSP430F5xx_6xx\tlv.h")
    2640                    .dwattr $C$DW$185, DW_AT_decl_line(0x5c)
    2641                    .dwattr $C$DW$185, DW_AT_decl_column(0x0e)
    2642            
    2643            $C$DW$186       .dwtag  DW_TAG_member
    2644                    .dwattr $C$DW$186, DW_AT_type(*$C$DW$T$21)
    2645                    .dwattr $C$DW$186, DW_AT_name("ref_ref20")
    2646                    .dwattr $C$DW$186, DW_AT_TI_symbol_name("ref_ref20")
    2647                    .dwattr $C$DW$186, DW_AT_data_member_location[DW_OP_plus_uconst 0x2]
    2648                    .dwattr $C$DW$186, DW_AT_accessibility(DW_ACCESS_public)
    2649                    .dwattr $C$DW$186, DW_AT_decl_file("..\MSP430F5xx_6xx\tlv.h")
    2650                    .dwattr $C$DW$186, DW_AT_decl_line(0x5d)
    2651                    .dwattr $C$DW$186, DW_AT_decl_column(0x0e)
    2652            
    2653            $C$DW$187       .dwtag  DW_TAG_member
    2654                    .dwattr $C$DW$187, DW_AT_type(*$C$DW$T$21)
    2655                    .dwattr $C$DW$187, DW_AT_name("ref_ref25")
    2656                    .dwattr $C$DW$187, DW_AT_TI_symbol_name("ref_ref25")
    2657                    .dwattr $C$DW$187, DW_AT_data_member_location[DW_OP_plus_uconst 0x4]
    2658                    .dwattr $C$DW$187, DW_AT_accessibility(DW_ACCESS_public)
    2659                    .dwattr $C$DW$187, DW_AT_decl_file("..\MSP430F5xx_6xx\tlv.h")
    2660                    .dwattr $C$DW$187, DW_AT_decl_line(0x5e)
    2661                    .dwattr $C$DW$187, DW_AT_decl_column(0x0e)
    2662            
    2663                    .dwattr $C$DW$T$55, DW_AT_decl_file("..\MSP430F5xx_6xx\tlv.h")
    2664                    .dwattr $C$DW$T$55, DW_AT_decl_line(0x5a)
    2665                    .dwattr $C$DW$T$55, DW_AT_decl_column(0x08)
    2666                    .dwendtag $C$DW$T$55
    2667            
    2668            
    2669            $C$DW$T$56      .dwtag  DW_TAG_structure_type
    2670                    .dwattr $C$DW$T$56, DW_AT_name("s_TLV_Timer_D_Cal_Data")
    2671                    .dwattr $C$DW$T$56, DW_AT_byte_size(0x08)
    2672            $C$DW$188       .dwtag  DW_TAG_member
    2673                    .dwattr $C$DW$188, DW_AT_type(*$C$DW$T$21)
    2674                    .dwattr $C$DW$188, DW_AT_name("TDH0CTL1_64")
    2675                    .dwattr $C$DW$188, DW_AT_TI_symbol_name("TDH0CTL1_64")
    2676                    .dwattr $C$DW$188, DW_AT_data_member_location[DW_OP_plus_uconst 0x0]
    2677                    .dwattr $C$DW$188, DW_AT_accessibility(DW_ACCESS_public)
    2678                    .dwattr $C$DW$188, DW_AT_decl_file("..\MSP430F5xx_6xx\tlv.h")
    2679                    .dwattr $C$DW$188, DW_AT_decl_line(0x54)
    2680                    .dwattr $C$DW$188, DW_AT_decl_column(0x0e)
    2681            
    2682            $C$DW$189       .dwtag  DW_TAG_member
    2683                    .dwattr $C$DW$189, DW_AT_type(*$C$DW$T$21)
    2684                    .dwattr $C$DW$189, DW_AT_name("TDH0CTL1_128")
    2685                    .dwattr $C$DW$189, DW_AT_TI_symbol_name("TDH0CTL1_128")
    2686                    .dwattr $C$DW$189, DW_AT_data_member_location[DW_OP_plus_uconst 0x2]
    2687                    .dwattr $C$DW$189, DW_AT_accessibility(DW_ACCESS_public)
    2688                    .dwattr $C$DW$189, DW_AT_decl_file("..\MSP430F5xx_6xx\tlv.h")
    2689                    .dwattr $C$DW$189, DW_AT_decl_line(0x55)
MSP430 Assembler PC v15.12.3 Wed Oct 12 11:17:26 2016

Tools Copyright (c) 2003-2015 Texas Instruments Incorporated
C:\Users\LokBok\AppData\Local\Temp\097882                            PAGE   50

    2690                    .dwattr $C$DW$189, DW_AT_decl_column(0x0e)
    2691            
    2692            $C$DW$190       .dwtag  DW_TAG_member
    2693                    .dwattr $C$DW$190, DW_AT_type(*$C$DW$T$21)
    2694                    .dwattr $C$DW$190, DW_AT_name("TDH0CTL1_200")
    2695                    .dwattr $C$DW$190, DW_AT_TI_symbol_name("TDH0CTL1_200")
    2696                    .dwattr $C$DW$190, DW_AT_data_member_location[DW_OP_plus_uconst 0x4]
    2697                    .dwattr $C$DW$190, DW_AT_accessibility(DW_ACCESS_public)
    2698                    .dwattr $C$DW$190, DW_AT_decl_file("..\MSP430F5xx_6xx\tlv.h")
    2699                    .dwattr $C$DW$190, DW_AT_decl_line(0x56)
    2700                    .dwattr $C$DW$190, DW_AT_decl_column(0x0e)
    2701            
    2702            $C$DW$191       .dwtag  DW_TAG_member
    2703                    .dwattr $C$DW$191, DW_AT_type(*$C$DW$T$21)
    2704                    .dwattr $C$DW$191, DW_AT_name("TDH0CTL1_256")
    2705                    .dwattr $C$DW$191, DW_AT_TI_symbol_name("TDH0CTL1_256")
    2706                    .dwattr $C$DW$191, DW_AT_data_member_location[DW_OP_plus_uconst 0x6]
    2707                    .dwattr $C$DW$191, DW_AT_accessibility(DW_ACCESS_public)
    2708                    .dwattr $C$DW$191, DW_AT_decl_file("..\MSP430F5xx_6xx\tlv.h")
    2709                    .dwattr $C$DW$191, DW_AT_decl_line(0x57)
    2710                    .dwattr $C$DW$191, DW_AT_decl_column(0x0e)
    2711            
    2712                    .dwattr $C$DW$T$56, DW_AT_decl_file("..\MSP430F5xx_6xx\tlv.h")
    2713                    .dwattr $C$DW$T$56, DW_AT_decl_line(0x52)
    2714                    .dwattr $C$DW$T$56, DW_AT_decl_column(0x08)
    2715                    .dwendtag $C$DW$T$56
    2716            
    2717                    .dwattr $C$DW$CU, DW_AT_language(DW_LANG_C)
    2718            
    2719            ;***************************************************************
    2720            ;* DWARF CIE ENTRIES                                           *
    2721            ;***************************************************************
    2722            
    2723            $C$DW$CIE       .dwcie 16
    2724                    .dwcfi  cfa_register, 1
    2725                    .dwcfi  cfa_offset, 0
    2726                    .dwcfi  same_value, 0
    2727                    .dwcfi  same_value, 1
    2728                    .dwcfi  undefined, 2
    2729                    .dwcfi  same_value, 3
    2730                    .dwcfi  same_value, 4
    2731                    .dwcfi  same_value, 5
    2732                    .dwcfi  same_value, 6
    2733                    .dwcfi  same_value, 7
    2734                    .dwcfi  same_value, 8
    2735                    .dwcfi  same_value, 9
    2736                    .dwcfi  same_value, 10
    2737                    .dwcfi  undefined, 11
    2738                    .dwcfi  undefined, 12
    2739                    .dwcfi  undefined, 13
    2740                    .dwcfi  undefined, 14
    2741                    .dwcfi  undefined, 15
    2742                    .dwcfi  undefined, 16
    2743                    .dwendentry
    2744            
MSP430 Assembler PC v15.12.3 Wed Oct 12 11:17:26 2016

Tools Copyright (c) 2003-2015 Texas Instruments Incorporated
C:\Users\LokBok\AppData\Local\Temp\097882                            PAGE   51

    2745            ;***************************************************************
    2746            ;* DWARF REGISTER MAP                                          *
    2747            ;***************************************************************
    2748            
    2749            $C$DW$192       .dwtag  DW_TAG_TI_assign_register
    2750                    .dwattr $C$DW$192, DW_AT_name("PC")
    2751                    .dwattr $C$DW$192, DW_AT_location[DW_OP_reg0]
    2752            
    2753            $C$DW$193       .dwtag  DW_TAG_TI_assign_register
    2754                    .dwattr $C$DW$193, DW_AT_name("SP")
    2755                    .dwattr $C$DW$193, DW_AT_location[DW_OP_reg1]
    2756            
    2757            $C$DW$194       .dwtag  DW_TAG_TI_assign_register
    2758                    .dwattr $C$DW$194, DW_AT_name("SR")
    2759                    .dwattr $C$DW$194, DW_AT_location[DW_OP_reg2]
    2760            
    2761            $C$DW$195       .dwtag  DW_TAG_TI_assign_register
    2762                    .dwattr $C$DW$195, DW_AT_name("CG")
    2763                    .dwattr $C$DW$195, DW_AT_location[DW_OP_reg3]
    2764            
    2765            $C$DW$196       .dwtag  DW_TAG_TI_assign_register
    2766                    .dwattr $C$DW$196, DW_AT_name("r4")
    2767                    .dwattr $C$DW$196, DW_AT_location[DW_OP_reg4]
    2768            
    2769            $C$DW$197       .dwtag  DW_TAG_TI_assign_register
    2770                    .dwattr $C$DW$197, DW_AT_name("r5")
    2771                    .dwattr $C$DW$197, DW_AT_location[DW_OP_reg5]
    2772            
    2773            $C$DW$198       .dwtag  DW_TAG_TI_assign_register
    2774                    .dwattr $C$DW$198, DW_AT_name("r6")
    2775                    .dwattr $C$DW$198, DW_AT_location[DW_OP_reg6]
    2776            
    2777            $C$DW$199       .dwtag  DW_TAG_TI_assign_register
    2778                    .dwattr $C$DW$199, DW_AT_name("r7")
    2779                    .dwattr $C$DW$199, DW_AT_location[DW_OP_reg7]
    2780            
    2781            $C$DW$200       .dwtag  DW_TAG_TI_assign_register
    2782                    .dwattr $C$DW$200, DW_AT_name("r8")
    2783                    .dwattr $C$DW$200, DW_AT_location[DW_OP_reg8]
    2784            
    2785            $C$DW$201       .dwtag  DW_TAG_TI_assign_register
    2786                    .dwattr $C$DW$201, DW_AT_name("r9")
    2787                    .dwattr $C$DW$201, DW_AT_location[DW_OP_reg9]
    2788            
    2789            $C$DW$202       .dwtag  DW_TAG_TI_assign_register
    2790                    .dwattr $C$DW$202, DW_AT_name("r10")
    2791                    .dwattr $C$DW$202, DW_AT_location[DW_OP_reg10]
    2792            
    2793            $C$DW$203       .dwtag  DW_TAG_TI_assign_register
    2794                    .dwattr $C$DW$203, DW_AT_name("r11")
    2795                    .dwattr $C$DW$203, DW_AT_location[DW_OP_reg11]
    2796            
    2797            $C$DW$204       .dwtag  DW_TAG_TI_assign_register
    2798                    .dwattr $C$DW$204, DW_AT_name("r12")
    2799                    .dwattr $C$DW$204, DW_AT_location[DW_OP_reg12]
MSP430 Assembler PC v15.12.3 Wed Oct 12 11:17:26 2016

Tools Copyright (c) 2003-2015 Texas Instruments Incorporated
C:\Users\LokBok\AppData\Local\Temp\097882                            PAGE   52

    2800            
    2801            $C$DW$205       .dwtag  DW_TAG_TI_assign_register
    2802                    .dwattr $C$DW$205, DW_AT_name("r13")
    2803                    .dwattr $C$DW$205, DW_AT_location[DW_OP_reg13]
    2804            
    2805            $C$DW$206       .dwtag  DW_TAG_TI_assign_register
    2806                    .dwattr $C$DW$206, DW_AT_name("r14")
    2807                    .dwattr $C$DW$206, DW_AT_location[DW_OP_reg14]
    2808            
    2809            $C$DW$207       .dwtag  DW_TAG_TI_assign_register
    2810                    .dwattr $C$DW$207, DW_AT_name("r15")
    2811                    .dwattr $C$DW$207, DW_AT_location[DW_OP_reg15]
    2812            
    2813            $C$DW$208       .dwtag  DW_TAG_TI_assign_register
    2814                    .dwattr $C$DW$208, DW_AT_name("CIE_RETA")
    2815                    .dwattr $C$DW$208, DW_AT_location[DW_OP_reg16]
    2816            
    2817                    .dwendtag $C$DW$CU
    2818            

No Assembly Errors, No Assembly Warnings
