MSP430 Assembler PC v15.12.3 Mon Oct 17 14:33:07 2016

Tools Copyright (c) 2003-2015 Texas Instruments Incorporated
C:\Users\madis\AppData\Local\Temp\027322                             PAGE    1

       1            ;******************************************************************************
       2            ;* MSP430 C/C++ Codegen                                       PC v15.12.3.LTS *
       3            ;* Date/Time created: Mon Oct 17 14:33:06 2016                                *
       4            ;******************************************************************************
       5                    .compiler_opts --abi=eabi --diag_wrap=off --hll_source=on --mem_model:code=large --mem_model:d
       6            
       7            $C$DW$CU        .dwtag  DW_TAG_compile_unit
       8                    .dwattr $C$DW$CU, DW_AT_name("../MSP430F5xx_6xx/pmm.c")
       9                    .dwattr $C$DW$CU, DW_AT_producer("TI MSP430 C/C++ Codegen PC v15.12.3.LTS Copyright (c) 2003-2
      10                    .dwattr $C$DW$CU, DW_AT_TI_version(0x01)
      11                    .dwattr $C$DW$CU, DW_AT_comp_dir("D:\CodeComposerProj\CardReader001\src\Debug")
      12            ;       D:\ti\ccsv6\tools\compiler\msp430_15.12.3.LTS\bin\opt430.exe D:/CodeComposerProj/CardReader001
      13 000000               .sect   ".text:PMM_enableSvsL"
      14                    .clink
      15                    .global PMM_enableSvsL
      16            
      17            $C$DW$1 .dwtag  DW_TAG_subprogram
      18                    .dwattr $C$DW$1, DW_AT_name("PMM_enableSvsL")
      19                    .dwattr $C$DW$1, DW_AT_low_pc(PMM_enableSvsL)
      20                    .dwattr $C$DW$1, DW_AT_high_pc(0x00)
      21                    .dwattr $C$DW$1, DW_AT_TI_symbol_name("PMM_enableSvsL")
      22                    .dwattr $C$DW$1, DW_AT_external
      23                    .dwattr $C$DW$1, DW_AT_TI_begin_file("../MSP430F5xx_6xx/pmm.c")
      24                    .dwattr $C$DW$1, DW_AT_TI_begin_line(0x34)
      25                    .dwattr $C$DW$1, DW_AT_TI_begin_column(0x06)
      26                    .dwattr $C$DW$1, DW_AT_decl_file("../MSP430F5xx_6xx/pmm.c")
      27                    .dwattr $C$DW$1, DW_AT_decl_line(0x34)
      28                    .dwattr $C$DW$1, DW_AT_decl_column(0x06)
      29                    .dwattr $C$DW$1, DW_AT_TI_max_frame_size(0x04)
      30                    .dwpsn  file "../MSP430F5xx_6xx/pmm.c",line 53,column 1,is_stmt,address PMM_enableSvsL,isa 0
      31            
      32                    .dwfde $C$DW$CIE, PMM_enableSvsL
      33            
      34            ;*****************************************************************************
      35            ;* FUNCTION NAME: PMM_enableSvsL                                             *
      36            ;*                                                                           *
      37            ;*   Regs Modified     : SP                                                  *
      38            ;*   Regs Used         : SP                                                  *
      39            ;*   Local Frame Size  : 0 Args + 0 Auto + 0 Save = 0 byte                   *
      40            ;*****************************************************************************
      41 000000       PMM_enableSvsL:
      42            ;* --------------------------------------------------------------------------*
      43                    .dwcfi  cfa_offset, 4
      44                    .dwcfi  save_reg_to_mem, 16, -4
      45                    .dwpsn  file "../MSP430F5xx_6xx/pmm.c",line 54,column 5,is_stmt,isa 0
      46 000000 40F2          MOV.B     #165,&0x121           ; [] |54| 
         000002 00A5 
         000004 0121 
      47                    .dwpsn  file "../MSP430F5xx_6xx/pmm.c",line 55,column 5,is_stmt,isa 0
      48 000006 D0B2          OR.W      #1024,&0x126          ; [] |55| 
         000008 0400 
         00000a 0126 
      49                    .dwpsn  file "../MSP430F5xx_6xx/pmm.c",line 56,column 5,is_stmt,isa 0
      50 00000c 43C2          MOV.B     #0,&0x121             ; [] |56| 
         00000e 0121 
MSP430 Assembler PC v15.12.3 Mon Oct 17 14:33:07 2016

Tools Copyright (c) 2003-2015 Texas Instruments Incorporated
C:\Users\madis\AppData\Local\Temp\027322                             PAGE    2

      51                    .dwpsn  file "../MSP430F5xx_6xx/pmm.c",line 57,column 1,is_stmt,isa 0
      52            $C$DW$2 .dwtag  DW_TAG_TI_branch
      53                    .dwattr $C$DW$2, DW_AT_low_pc(0x00)
      54                    .dwattr $C$DW$2, DW_AT_TI_return
      55            
      56 000010 0110          RETA      ; [] 
      57                    ; [] 
      58                    .dwattr $C$DW$1, DW_AT_TI_end_file("../MSP430F5xx_6xx/pmm.c")
      59                    .dwattr $C$DW$1, DW_AT_TI_end_line(0x39)
      60                    .dwattr $C$DW$1, DW_AT_TI_end_column(0x01)
      61                    .dwendentry
      62                    .dwendtag $C$DW$1
      63            
      64 000000               .sect   ".text:PMM_disableSvsL"
      65                    .clink
      66                    .global PMM_disableSvsL
      67            
      68            $C$DW$3 .dwtag  DW_TAG_subprogram
      69                    .dwattr $C$DW$3, DW_AT_name("PMM_disableSvsL")
      70                    .dwattr $C$DW$3, DW_AT_low_pc(PMM_disableSvsL)
      71                    .dwattr $C$DW$3, DW_AT_high_pc(0x00)
      72                    .dwattr $C$DW$3, DW_AT_TI_symbol_name("PMM_disableSvsL")
      73                    .dwattr $C$DW$3, DW_AT_external
      74                    .dwattr $C$DW$3, DW_AT_TI_begin_file("../MSP430F5xx_6xx/pmm.c")
      75                    .dwattr $C$DW$3, DW_AT_TI_begin_line(0x3b)
      76                    .dwattr $C$DW$3, DW_AT_TI_begin_column(0x06)
      77                    .dwattr $C$DW$3, DW_AT_decl_file("../MSP430F5xx_6xx/pmm.c")
      78                    .dwattr $C$DW$3, DW_AT_decl_line(0x3b)
      79                    .dwattr $C$DW$3, DW_AT_decl_column(0x06)
      80                    .dwattr $C$DW$3, DW_AT_TI_max_frame_size(0x04)
      81                    .dwpsn  file "../MSP430F5xx_6xx/pmm.c",line 60,column 1,is_stmt,address PMM_disableSvsL,isa 0
      82            
      83                    .dwfde $C$DW$CIE, PMM_disableSvsL
      84            
      85            ;*****************************************************************************
      86            ;* FUNCTION NAME: PMM_disableSvsL                                            *
      87            ;*                                                                           *
      88            ;*   Regs Modified     : SP,SR                                               *
      89            ;*   Regs Used         : SP,SR                                               *
      90            ;*   Local Frame Size  : 0 Args + 0 Auto + 0 Save = 0 byte                   *
      91            ;*****************************************************************************
      92 000000       PMM_disableSvsL:
      93            ;* --------------------------------------------------------------------------*
      94                    .dwcfi  cfa_offset, 4
      95                    .dwcfi  save_reg_to_mem, 16, -4
      96                    .dwpsn  file "../MSP430F5xx_6xx/pmm.c",line 61,column 5,is_stmt,isa 0
      97 000000 40F2          MOV.B     #165,&0x121           ; [] |61| 
         000002 00A5 
         000004 0121 
      98                    .dwpsn  file "../MSP430F5xx_6xx/pmm.c",line 62,column 5,is_stmt,isa 0
      99 000006 F0B2          AND.W     #64511,&0x126         ; [] |62| 
         000008 FBFF 
         00000a 0126 
     100                    .dwpsn  file "../MSP430F5xx_6xx/pmm.c",line 63,column 5,is_stmt,isa 0
     101 00000c 43C2          MOV.B     #0,&0x121             ; [] |63| 
MSP430 Assembler PC v15.12.3 Mon Oct 17 14:33:07 2016

Tools Copyright (c) 2003-2015 Texas Instruments Incorporated
C:\Users\madis\AppData\Local\Temp\027322                             PAGE    3

         00000e 0121 
     102                    .dwpsn  file "../MSP430F5xx_6xx/pmm.c",line 64,column 1,is_stmt,isa 0
     103            $C$DW$4 .dwtag  DW_TAG_TI_branch
     104                    .dwattr $C$DW$4, DW_AT_low_pc(0x00)
     105                    .dwattr $C$DW$4, DW_AT_TI_return
     106            
     107 000010 0110          RETA      ; [] 
     108                    ; [] 
     109                    .dwattr $C$DW$3, DW_AT_TI_end_file("../MSP430F5xx_6xx/pmm.c")
     110                    .dwattr $C$DW$3, DW_AT_TI_end_line(0x40)
     111                    .dwattr $C$DW$3, DW_AT_TI_end_column(0x01)
     112                    .dwendentry
     113                    .dwendtag $C$DW$3
     114            
     115 000000               .sect   ".text:PMM_enableSvmL"
     116                    .clink
     117                    .global PMM_enableSvmL
     118            
     119            $C$DW$5 .dwtag  DW_TAG_subprogram
     120                    .dwattr $C$DW$5, DW_AT_name("PMM_enableSvmL")
     121                    .dwattr $C$DW$5, DW_AT_low_pc(PMM_enableSvmL)
     122                    .dwattr $C$DW$5, DW_AT_high_pc(0x00)
     123                    .dwattr $C$DW$5, DW_AT_TI_symbol_name("PMM_enableSvmL")
     124                    .dwattr $C$DW$5, DW_AT_external
     125                    .dwattr $C$DW$5, DW_AT_TI_begin_file("../MSP430F5xx_6xx/pmm.c")
     126                    .dwattr $C$DW$5, DW_AT_TI_begin_line(0x42)
     127                    .dwattr $C$DW$5, DW_AT_TI_begin_column(0x06)
     128                    .dwattr $C$DW$5, DW_AT_decl_file("../MSP430F5xx_6xx/pmm.c")
     129                    .dwattr $C$DW$5, DW_AT_decl_line(0x42)
     130                    .dwattr $C$DW$5, DW_AT_decl_column(0x06)
     131                    .dwattr $C$DW$5, DW_AT_TI_max_frame_size(0x04)
     132                    .dwpsn  file "../MSP430F5xx_6xx/pmm.c",line 67,column 1,is_stmt,address PMM_enableSvmL,isa 0
     133            
     134                    .dwfde $C$DW$CIE, PMM_enableSvmL
     135            
     136            ;*****************************************************************************
     137            ;* FUNCTION NAME: PMM_enableSvmL                                             *
     138            ;*                                                                           *
     139            ;*   Regs Modified     : SP                                                  *
     140            ;*   Regs Used         : SP                                                  *
     141            ;*   Local Frame Size  : 0 Args + 0 Auto + 0 Save = 0 byte                   *
     142            ;*****************************************************************************
     143 000000       PMM_enableSvmL:
     144            ;* --------------------------------------------------------------------------*
     145                    .dwcfi  cfa_offset, 4
     146                    .dwcfi  save_reg_to_mem, 16, -4
     147                    .dwpsn  file "../MSP430F5xx_6xx/pmm.c",line 68,column 5,is_stmt,isa 0
     148 000000 40F2          MOV.B     #165,&0x121           ; [] |68| 
         000002 00A5 
         000004 0121 
     149                    .dwpsn  file "../MSP430F5xx_6xx/pmm.c",line 69,column 5,is_stmt,isa 0
     150 000006 D0B2          OR.W      #16384,&0x126         ; [] |69| 
         000008 4000 
         00000a 0126 
     151                    .dwpsn  file "../MSP430F5xx_6xx/pmm.c",line 70,column 5,is_stmt,isa 0
MSP430 Assembler PC v15.12.3 Mon Oct 17 14:33:07 2016

Tools Copyright (c) 2003-2015 Texas Instruments Incorporated
C:\Users\madis\AppData\Local\Temp\027322                             PAGE    4

     152 00000c 43C2          MOV.B     #0,&0x121             ; [] |70| 
         00000e 0121 
     153                    .dwpsn  file "../MSP430F5xx_6xx/pmm.c",line 71,column 1,is_stmt,isa 0
     154            $C$DW$6 .dwtag  DW_TAG_TI_branch
     155                    .dwattr $C$DW$6, DW_AT_low_pc(0x00)
     156                    .dwattr $C$DW$6, DW_AT_TI_return
     157            
     158 000010 0110          RETA      ; [] 
     159                    ; [] 
     160                    .dwattr $C$DW$5, DW_AT_TI_end_file("../MSP430F5xx_6xx/pmm.c")
     161                    .dwattr $C$DW$5, DW_AT_TI_end_line(0x47)
     162                    .dwattr $C$DW$5, DW_AT_TI_end_column(0x01)
     163                    .dwendentry
     164                    .dwendtag $C$DW$5
     165            
     166 000000               .sect   ".text:PMM_disableSvmL"
     167                    .clink
     168                    .global PMM_disableSvmL
     169            
     170            $C$DW$7 .dwtag  DW_TAG_subprogram
     171                    .dwattr $C$DW$7, DW_AT_name("PMM_disableSvmL")
     172                    .dwattr $C$DW$7, DW_AT_low_pc(PMM_disableSvmL)
     173                    .dwattr $C$DW$7, DW_AT_high_pc(0x00)
     174                    .dwattr $C$DW$7, DW_AT_TI_symbol_name("PMM_disableSvmL")
     175                    .dwattr $C$DW$7, DW_AT_external
     176                    .dwattr $C$DW$7, DW_AT_TI_begin_file("../MSP430F5xx_6xx/pmm.c")
     177                    .dwattr $C$DW$7, DW_AT_TI_begin_line(0x49)
     178                    .dwattr $C$DW$7, DW_AT_TI_begin_column(0x06)
     179                    .dwattr $C$DW$7, DW_AT_decl_file("../MSP430F5xx_6xx/pmm.c")
     180                    .dwattr $C$DW$7, DW_AT_decl_line(0x49)
     181                    .dwattr $C$DW$7, DW_AT_decl_column(0x06)
     182                    .dwattr $C$DW$7, DW_AT_TI_max_frame_size(0x04)
     183                    .dwpsn  file "../MSP430F5xx_6xx/pmm.c",line 74,column 1,is_stmt,address PMM_disableSvmL,isa 0
     184            
     185                    .dwfde $C$DW$CIE, PMM_disableSvmL
     186            
     187            ;*****************************************************************************
     188            ;* FUNCTION NAME: PMM_disableSvmL                                            *
     189            ;*                                                                           *
     190            ;*   Regs Modified     : SP,SR                                               *
     191            ;*   Regs Used         : SP,SR                                               *
     192            ;*   Local Frame Size  : 0 Args + 0 Auto + 0 Save = 0 byte                   *
     193            ;*****************************************************************************
     194 000000       PMM_disableSvmL:
     195            ;* --------------------------------------------------------------------------*
     196                    .dwcfi  cfa_offset, 4
     197                    .dwcfi  save_reg_to_mem, 16, -4
     198                    .dwpsn  file "../MSP430F5xx_6xx/pmm.c",line 75,column 5,is_stmt,isa 0
     199 000000 40F2          MOV.B     #165,&0x121           ; [] |75| 
         000002 00A5 
         000004 0121 
     200                    .dwpsn  file "../MSP430F5xx_6xx/pmm.c",line 76,column 5,is_stmt,isa 0
     201 000006 F0B2          AND.W     #49151,&0x126         ; [] |76| 
         000008 BFFF 
         00000a 0126 
MSP430 Assembler PC v15.12.3 Mon Oct 17 14:33:07 2016

Tools Copyright (c) 2003-2015 Texas Instruments Incorporated
C:\Users\madis\AppData\Local\Temp\027322                             PAGE    5

     202                    .dwpsn  file "../MSP430F5xx_6xx/pmm.c",line 77,column 5,is_stmt,isa 0
     203 00000c 43C2          MOV.B     #0,&0x121             ; [] |77| 
         00000e 0121 
     204                    .dwpsn  file "../MSP430F5xx_6xx/pmm.c",line 78,column 1,is_stmt,isa 0
     205            $C$DW$8 .dwtag  DW_TAG_TI_branch
     206                    .dwattr $C$DW$8, DW_AT_low_pc(0x00)
     207                    .dwattr $C$DW$8, DW_AT_TI_return
     208            
     209 000010 0110          RETA      ; [] 
     210                    ; [] 
     211                    .dwattr $C$DW$7, DW_AT_TI_end_file("../MSP430F5xx_6xx/pmm.c")
     212                    .dwattr $C$DW$7, DW_AT_TI_end_line(0x4e)
     213                    .dwattr $C$DW$7, DW_AT_TI_end_column(0x01)
     214                    .dwendentry
     215                    .dwendtag $C$DW$7
     216            
     217 000000               .sect   ".text:PMM_enableSvsH"
     218                    .clink
     219                    .global PMM_enableSvsH
     220            
     221            $C$DW$9 .dwtag  DW_TAG_subprogram
     222                    .dwattr $C$DW$9, DW_AT_name("PMM_enableSvsH")
     223                    .dwattr $C$DW$9, DW_AT_low_pc(PMM_enableSvsH)
     224                    .dwattr $C$DW$9, DW_AT_high_pc(0x00)
     225                    .dwattr $C$DW$9, DW_AT_TI_symbol_name("PMM_enableSvsH")
     226                    .dwattr $C$DW$9, DW_AT_external
     227                    .dwattr $C$DW$9, DW_AT_TI_begin_file("../MSP430F5xx_6xx/pmm.c")
     228                    .dwattr $C$DW$9, DW_AT_TI_begin_line(0x50)
     229                    .dwattr $C$DW$9, DW_AT_TI_begin_column(0x06)
     230                    .dwattr $C$DW$9, DW_AT_decl_file("../MSP430F5xx_6xx/pmm.c")
     231                    .dwattr $C$DW$9, DW_AT_decl_line(0x50)
     232                    .dwattr $C$DW$9, DW_AT_decl_column(0x06)
     233                    .dwattr $C$DW$9, DW_AT_TI_max_frame_size(0x04)
     234                    .dwpsn  file "../MSP430F5xx_6xx/pmm.c",line 81,column 1,is_stmt,address PMM_enableSvsH,isa 0
     235            
     236                    .dwfde $C$DW$CIE, PMM_enableSvsH
     237            
     238            ;*****************************************************************************
     239            ;* FUNCTION NAME: PMM_enableSvsH                                             *
     240            ;*                                                                           *
     241            ;*   Regs Modified     : SP                                                  *
     242            ;*   Regs Used         : SP                                                  *
     243            ;*   Local Frame Size  : 0 Args + 0 Auto + 0 Save = 0 byte                   *
     244            ;*****************************************************************************
     245 000000       PMM_enableSvsH:
     246            ;* --------------------------------------------------------------------------*
     247                    .dwcfi  cfa_offset, 4
     248                    .dwcfi  save_reg_to_mem, 16, -4
     249                    .dwpsn  file "../MSP430F5xx_6xx/pmm.c",line 82,column 5,is_stmt,isa 0
     250 000000 40F2          MOV.B     #165,&0x121           ; [] |82| 
         000002 00A5 
         000004 0121 
     251                    .dwpsn  file "../MSP430F5xx_6xx/pmm.c",line 83,column 5,is_stmt,isa 0
     252 000006 D0B2          OR.W      #1024,&0x124          ; [] |83| 
         000008 0400 
MSP430 Assembler PC v15.12.3 Mon Oct 17 14:33:07 2016

Tools Copyright (c) 2003-2015 Texas Instruments Incorporated
C:\Users\madis\AppData\Local\Temp\027322                             PAGE    6

         00000a 0124 
     253                    .dwpsn  file "../MSP430F5xx_6xx/pmm.c",line 84,column 5,is_stmt,isa 0
     254 00000c 43C2          MOV.B     #0,&0x121             ; [] |84| 
         00000e 0121 
     255                    .dwpsn  file "../MSP430F5xx_6xx/pmm.c",line 85,column 1,is_stmt,isa 0
     256            $C$DW$10        .dwtag  DW_TAG_TI_branch
     257                    .dwattr $C$DW$10, DW_AT_low_pc(0x00)
     258                    .dwattr $C$DW$10, DW_AT_TI_return
     259            
     260 000010 0110          RETA      ; [] 
     261                    ; [] 
     262                    .dwattr $C$DW$9, DW_AT_TI_end_file("../MSP430F5xx_6xx/pmm.c")
     263                    .dwattr $C$DW$9, DW_AT_TI_end_line(0x55)
     264                    .dwattr $C$DW$9, DW_AT_TI_end_column(0x01)
     265                    .dwendentry
     266                    .dwendtag $C$DW$9
     267            
     268 000000               .sect   ".text:PMM_disableSvsH"
     269                    .clink
     270                    .global PMM_disableSvsH
     271            
     272            $C$DW$11        .dwtag  DW_TAG_subprogram
     273                    .dwattr $C$DW$11, DW_AT_name("PMM_disableSvsH")
     274                    .dwattr $C$DW$11, DW_AT_low_pc(PMM_disableSvsH)
     275                    .dwattr $C$DW$11, DW_AT_high_pc(0x00)
     276                    .dwattr $C$DW$11, DW_AT_TI_symbol_name("PMM_disableSvsH")
     277                    .dwattr $C$DW$11, DW_AT_external
     278                    .dwattr $C$DW$11, DW_AT_TI_begin_file("../MSP430F5xx_6xx/pmm.c")
     279                    .dwattr $C$DW$11, DW_AT_TI_begin_line(0x57)
     280                    .dwattr $C$DW$11, DW_AT_TI_begin_column(0x06)
     281                    .dwattr $C$DW$11, DW_AT_decl_file("../MSP430F5xx_6xx/pmm.c")
     282                    .dwattr $C$DW$11, DW_AT_decl_line(0x57)
     283                    .dwattr $C$DW$11, DW_AT_decl_column(0x06)
     284                    .dwattr $C$DW$11, DW_AT_TI_max_frame_size(0x04)
     285                    .dwpsn  file "../MSP430F5xx_6xx/pmm.c",line 88,column 1,is_stmt,address PMM_disableSvsH,isa 0
     286            
     287                    .dwfde $C$DW$CIE, PMM_disableSvsH
     288            
     289            ;*****************************************************************************
     290            ;* FUNCTION NAME: PMM_disableSvsH                                            *
     291            ;*                                                                           *
     292            ;*   Regs Modified     : SP,SR                                               *
     293            ;*   Regs Used         : SP,SR                                               *
     294            ;*   Local Frame Size  : 0 Args + 0 Auto + 0 Save = 0 byte                   *
     295            ;*****************************************************************************
     296 000000       PMM_disableSvsH:
     297            ;* --------------------------------------------------------------------------*
     298                    .dwcfi  cfa_offset, 4
     299                    .dwcfi  save_reg_to_mem, 16, -4
     300                    .dwpsn  file "../MSP430F5xx_6xx/pmm.c",line 89,column 5,is_stmt,isa 0
     301 000000 40F2          MOV.B     #165,&0x121           ; [] |89| 
         000002 00A5 
         000004 0121 
     302                    .dwpsn  file "../MSP430F5xx_6xx/pmm.c",line 90,column 5,is_stmt,isa 0
     303 000006 F0B2          AND.W     #64511,&0x124         ; [] |90| 
MSP430 Assembler PC v15.12.3 Mon Oct 17 14:33:07 2016

Tools Copyright (c) 2003-2015 Texas Instruments Incorporated
C:\Users\madis\AppData\Local\Temp\027322                             PAGE    7

         000008 FBFF 
         00000a 0124 
     304                    .dwpsn  file "../MSP430F5xx_6xx/pmm.c",line 91,column 5,is_stmt,isa 0
     305 00000c 43C2          MOV.B     #0,&0x121             ; [] |91| 
         00000e 0121 
     306                    .dwpsn  file "../MSP430F5xx_6xx/pmm.c",line 92,column 1,is_stmt,isa 0
     307            $C$DW$12        .dwtag  DW_TAG_TI_branch
     308                    .dwattr $C$DW$12, DW_AT_low_pc(0x00)
     309                    .dwattr $C$DW$12, DW_AT_TI_return
     310            
     311 000010 0110          RETA      ; [] 
     312                    ; [] 
     313                    .dwattr $C$DW$11, DW_AT_TI_end_file("../MSP430F5xx_6xx/pmm.c")
     314                    .dwattr $C$DW$11, DW_AT_TI_end_line(0x5c)
     315                    .dwattr $C$DW$11, DW_AT_TI_end_column(0x01)
     316                    .dwendentry
     317                    .dwendtag $C$DW$11
     318            
     319 000000               .sect   ".text:PMM_enableSvmH"
     320                    .clink
     321                    .global PMM_enableSvmH
     322            
     323            $C$DW$13        .dwtag  DW_TAG_subprogram
     324                    .dwattr $C$DW$13, DW_AT_name("PMM_enableSvmH")
     325                    .dwattr $C$DW$13, DW_AT_low_pc(PMM_enableSvmH)
     326                    .dwattr $C$DW$13, DW_AT_high_pc(0x00)
     327                    .dwattr $C$DW$13, DW_AT_TI_symbol_name("PMM_enableSvmH")
     328                    .dwattr $C$DW$13, DW_AT_external
     329                    .dwattr $C$DW$13, DW_AT_TI_begin_file("../MSP430F5xx_6xx/pmm.c")
     330                    .dwattr $C$DW$13, DW_AT_TI_begin_line(0x5e)
     331                    .dwattr $C$DW$13, DW_AT_TI_begin_column(0x06)
     332                    .dwattr $C$DW$13, DW_AT_decl_file("../MSP430F5xx_6xx/pmm.c")
     333                    .dwattr $C$DW$13, DW_AT_decl_line(0x5e)
     334                    .dwattr $C$DW$13, DW_AT_decl_column(0x06)
     335                    .dwattr $C$DW$13, DW_AT_TI_max_frame_size(0x04)
     336                    .dwpsn  file "../MSP430F5xx_6xx/pmm.c",line 95,column 1,is_stmt,address PMM_enableSvmH,isa 0
     337            
     338                    .dwfde $C$DW$CIE, PMM_enableSvmH
     339            
     340            ;*****************************************************************************
     341            ;* FUNCTION NAME: PMM_enableSvmH                                             *
     342            ;*                                                                           *
     343            ;*   Regs Modified     : SP                                                  *
     344            ;*   Regs Used         : SP                                                  *
     345            ;*   Local Frame Size  : 0 Args + 0 Auto + 0 Save = 0 byte                   *
     346            ;*****************************************************************************
     347 000000       PMM_enableSvmH:
     348            ;* --------------------------------------------------------------------------*
     349                    .dwcfi  cfa_offset, 4
     350                    .dwcfi  save_reg_to_mem, 16, -4
     351                    .dwpsn  file "../MSP430F5xx_6xx/pmm.c",line 96,column 5,is_stmt,isa 0
     352 000000 40F2          MOV.B     #165,&0x121           ; [] |96| 
         000002 00A5 
         000004 0121 
     353                    .dwpsn  file "../MSP430F5xx_6xx/pmm.c",line 97,column 5,is_stmt,isa 0
MSP430 Assembler PC v15.12.3 Mon Oct 17 14:33:07 2016

Tools Copyright (c) 2003-2015 Texas Instruments Incorporated
C:\Users\madis\AppData\Local\Temp\027322                             PAGE    8

     354 000006 D0B2          OR.W      #16384,&0x124         ; [] |97| 
         000008 4000 
         00000a 0124 
     355                    .dwpsn  file "../MSP430F5xx_6xx/pmm.c",line 98,column 5,is_stmt,isa 0
     356 00000c 43C2          MOV.B     #0,&0x121             ; [] |98| 
         00000e 0121 
     357                    .dwpsn  file "../MSP430F5xx_6xx/pmm.c",line 99,column 1,is_stmt,isa 0
     358            $C$DW$14        .dwtag  DW_TAG_TI_branch
     359                    .dwattr $C$DW$14, DW_AT_low_pc(0x00)
     360                    .dwattr $C$DW$14, DW_AT_TI_return
     361            
     362 000010 0110          RETA      ; [] 
     363                    ; [] 
     364                    .dwattr $C$DW$13, DW_AT_TI_end_file("../MSP430F5xx_6xx/pmm.c")
     365                    .dwattr $C$DW$13, DW_AT_TI_end_line(0x63)
     366                    .dwattr $C$DW$13, DW_AT_TI_end_column(0x01)
     367                    .dwendentry
     368                    .dwendtag $C$DW$13
     369            
     370 000000               .sect   ".text:PMM_disableSvmH"
     371                    .clink
     372                    .global PMM_disableSvmH
     373            
     374            $C$DW$15        .dwtag  DW_TAG_subprogram
     375                    .dwattr $C$DW$15, DW_AT_name("PMM_disableSvmH")
     376                    .dwattr $C$DW$15, DW_AT_low_pc(PMM_disableSvmH)
     377                    .dwattr $C$DW$15, DW_AT_high_pc(0x00)
     378                    .dwattr $C$DW$15, DW_AT_TI_symbol_name("PMM_disableSvmH")
     379                    .dwattr $C$DW$15, DW_AT_external
     380                    .dwattr $C$DW$15, DW_AT_TI_begin_file("../MSP430F5xx_6xx/pmm.c")
     381                    .dwattr $C$DW$15, DW_AT_TI_begin_line(0x65)
     382                    .dwattr $C$DW$15, DW_AT_TI_begin_column(0x06)
     383                    .dwattr $C$DW$15, DW_AT_decl_file("../MSP430F5xx_6xx/pmm.c")
     384                    .dwattr $C$DW$15, DW_AT_decl_line(0x65)
     385                    .dwattr $C$DW$15, DW_AT_decl_column(0x06)
     386                    .dwattr $C$DW$15, DW_AT_TI_max_frame_size(0x04)
     387                    .dwpsn  file "../MSP430F5xx_6xx/pmm.c",line 102,column 1,is_stmt,address PMM_disableSvmH,isa 0
     388            
     389                    .dwfde $C$DW$CIE, PMM_disableSvmH
     390            
     391            ;*****************************************************************************
     392            ;* FUNCTION NAME: PMM_disableSvmH                                            *
     393            ;*                                                                           *
     394            ;*   Regs Modified     : SP,SR                                               *
     395            ;*   Regs Used         : SP,SR                                               *
     396            ;*   Local Frame Size  : 0 Args + 0 Auto + 0 Save = 0 byte                   *
     397            ;*****************************************************************************
     398 000000       PMM_disableSvmH:
     399            ;* --------------------------------------------------------------------------*
     400                    .dwcfi  cfa_offset, 4
     401                    .dwcfi  save_reg_to_mem, 16, -4
     402                    .dwpsn  file "../MSP430F5xx_6xx/pmm.c",line 103,column 5,is_stmt,isa 0
     403 000000 40F2          MOV.B     #165,&0x121           ; [] |103| 
         000002 00A5 
         000004 0121 
MSP430 Assembler PC v15.12.3 Mon Oct 17 14:33:07 2016

Tools Copyright (c) 2003-2015 Texas Instruments Incorporated
C:\Users\madis\AppData\Local\Temp\027322                             PAGE    9

     404                    .dwpsn  file "../MSP430F5xx_6xx/pmm.c",line 104,column 5,is_stmt,isa 0
     405 000006 F0B2          AND.W     #49151,&0x124         ; [] |104| 
         000008 BFFF 
         00000a 0124 
     406                    .dwpsn  file "../MSP430F5xx_6xx/pmm.c",line 105,column 5,is_stmt,isa 0
     407 00000c 43C2          MOV.B     #0,&0x121             ; [] |105| 
         00000e 0121 
     408                    .dwpsn  file "../MSP430F5xx_6xx/pmm.c",line 106,column 1,is_stmt,isa 0
     409            $C$DW$16        .dwtag  DW_TAG_TI_branch
     410                    .dwattr $C$DW$16, DW_AT_low_pc(0x00)
     411                    .dwattr $C$DW$16, DW_AT_TI_return
     412            
     413 000010 0110          RETA      ; [] 
     414                    ; [] 
     415                    .dwattr $C$DW$15, DW_AT_TI_end_file("../MSP430F5xx_6xx/pmm.c")
     416                    .dwattr $C$DW$15, DW_AT_TI_end_line(0x6a)
     417                    .dwattr $C$DW$15, DW_AT_TI_end_column(0x01)
     418                    .dwendentry
     419                    .dwendtag $C$DW$15
     420            
     421 000000               .sect   ".text:PMM_enableSvsLSvmL"
     422                    .clink
     423                    .global PMM_enableSvsLSvmL
     424            
     425            $C$DW$17        .dwtag  DW_TAG_subprogram
     426                    .dwattr $C$DW$17, DW_AT_name("PMM_enableSvsLSvmL")
     427                    .dwattr $C$DW$17, DW_AT_low_pc(PMM_enableSvsLSvmL)
     428                    .dwattr $C$DW$17, DW_AT_high_pc(0x00)
     429                    .dwattr $C$DW$17, DW_AT_TI_symbol_name("PMM_enableSvsLSvmL")
     430                    .dwattr $C$DW$17, DW_AT_external
     431                    .dwattr $C$DW$17, DW_AT_TI_begin_file("../MSP430F5xx_6xx/pmm.c")
     432                    .dwattr $C$DW$17, DW_AT_TI_begin_line(0x6c)
     433                    .dwattr $C$DW$17, DW_AT_TI_begin_column(0x06)
     434                    .dwattr $C$DW$17, DW_AT_decl_file("../MSP430F5xx_6xx/pmm.c")
     435                    .dwattr $C$DW$17, DW_AT_decl_line(0x6c)
     436                    .dwattr $C$DW$17, DW_AT_decl_column(0x06)
     437                    .dwattr $C$DW$17, DW_AT_TI_max_frame_size(0x04)
     438                    .dwpsn  file "../MSP430F5xx_6xx/pmm.c",line 109,column 1,is_stmt,address PMM_enableSvsLSvmL,is
     439            
     440                    .dwfde $C$DW$CIE, PMM_enableSvsLSvmL
     441            
     442            ;*****************************************************************************
     443            ;* FUNCTION NAME: PMM_enableSvsLSvmL                                         *
     444            ;*                                                                           *
     445            ;*   Regs Modified     : SP                                                  *
     446            ;*   Regs Used         : SP                                                  *
     447            ;*   Local Frame Size  : 0 Args + 0 Auto + 0 Save = 0 byte                   *
     448            ;*****************************************************************************
     449 000000       PMM_enableSvsLSvmL:
     450            ;* --------------------------------------------------------------------------*
     451                    .dwcfi  cfa_offset, 4
     452                    .dwcfi  save_reg_to_mem, 16, -4
     453                    .dwpsn  file "../MSP430F5xx_6xx/pmm.c",line 110,column 5,is_stmt,isa 0
     454 000000 40F2          MOV.B     #165,&0x121           ; [] |110| 
         000002 00A5 
MSP430 Assembler PC v15.12.3 Mon Oct 17 14:33:07 2016

Tools Copyright (c) 2003-2015 Texas Instruments Incorporated
C:\Users\madis\AppData\Local\Temp\027322                             PAGE   10

         000004 0121 
     455                    .dwpsn  file "../MSP430F5xx_6xx/pmm.c",line 111,column 5,is_stmt,isa 0
     456 000006 D0B2          OR.W      #17408,&0x126         ; [] |111| 
         000008 4400 
         00000a 0126 
     457                    .dwpsn  file "../MSP430F5xx_6xx/pmm.c",line 112,column 5,is_stmt,isa 0
     458 00000c 43C2          MOV.B     #0,&0x121             ; [] |112| 
         00000e 0121 
     459                    .dwpsn  file "../MSP430F5xx_6xx/pmm.c",line 113,column 1,is_stmt,isa 0
     460            $C$DW$18        .dwtag  DW_TAG_TI_branch
     461                    .dwattr $C$DW$18, DW_AT_low_pc(0x00)
     462                    .dwattr $C$DW$18, DW_AT_TI_return
     463            
     464 000010 0110          RETA      ; [] 
     465                    ; [] 
     466                    .dwattr $C$DW$17, DW_AT_TI_end_file("../MSP430F5xx_6xx/pmm.c")
     467                    .dwattr $C$DW$17, DW_AT_TI_end_line(0x71)
     468                    .dwattr $C$DW$17, DW_AT_TI_end_column(0x01)
     469                    .dwendentry
     470                    .dwendtag $C$DW$17
     471            
     472 000000               .sect   ".text:PMM_disableSvsLSvmL"
     473                    .clink
     474                    .global PMM_disableSvsLSvmL
     475            
     476            $C$DW$19        .dwtag  DW_TAG_subprogram
     477                    .dwattr $C$DW$19, DW_AT_name("PMM_disableSvsLSvmL")
     478                    .dwattr $C$DW$19, DW_AT_low_pc(PMM_disableSvsLSvmL)
     479                    .dwattr $C$DW$19, DW_AT_high_pc(0x00)
     480                    .dwattr $C$DW$19, DW_AT_TI_symbol_name("PMM_disableSvsLSvmL")
     481                    .dwattr $C$DW$19, DW_AT_external
     482                    .dwattr $C$DW$19, DW_AT_TI_begin_file("../MSP430F5xx_6xx/pmm.c")
     483                    .dwattr $C$DW$19, DW_AT_TI_begin_line(0x73)
     484                    .dwattr $C$DW$19, DW_AT_TI_begin_column(0x06)
     485                    .dwattr $C$DW$19, DW_AT_decl_file("../MSP430F5xx_6xx/pmm.c")
     486                    .dwattr $C$DW$19, DW_AT_decl_line(0x73)
     487                    .dwattr $C$DW$19, DW_AT_decl_column(0x06)
     488                    .dwattr $C$DW$19, DW_AT_TI_max_frame_size(0x04)
     489                    .dwpsn  file "../MSP430F5xx_6xx/pmm.c",line 116,column 1,is_stmt,address PMM_disableSvsLSvmL,i
     490            
     491                    .dwfde $C$DW$CIE, PMM_disableSvsLSvmL
     492            
     493            ;*****************************************************************************
     494            ;* FUNCTION NAME: PMM_disableSvsLSvmL                                        *
     495            ;*                                                                           *
     496            ;*   Regs Modified     : SP,SR                                               *
     497            ;*   Regs Used         : SP,SR                                               *
     498            ;*   Local Frame Size  : 0 Args + 0 Auto + 0 Save = 0 byte                   *
     499            ;*****************************************************************************
     500 000000       PMM_disableSvsLSvmL:
     501            ;* --------------------------------------------------------------------------*
     502                    .dwcfi  cfa_offset, 4
     503                    .dwcfi  save_reg_to_mem, 16, -4
     504                    .dwpsn  file "../MSP430F5xx_6xx/pmm.c",line 117,column 5,is_stmt,isa 0
     505 000000 40F2          MOV.B     #165,&0x121           ; [] |117| 
MSP430 Assembler PC v15.12.3 Mon Oct 17 14:33:07 2016

Tools Copyright (c) 2003-2015 Texas Instruments Incorporated
C:\Users\madis\AppData\Local\Temp\027322                             PAGE   11

         000002 00A5 
         000004 0121 
     506                    .dwpsn  file "../MSP430F5xx_6xx/pmm.c",line 118,column 5,is_stmt,isa 0
     507 000006 F0B2          AND.W     #48127,&0x126         ; [] |118| 
         000008 BBFF 
         00000a 0126 
     508                    .dwpsn  file "../MSP430F5xx_6xx/pmm.c",line 119,column 5,is_stmt,isa 0
     509 00000c 43C2          MOV.B     #0,&0x121             ; [] |119| 
         00000e 0121 
     510                    .dwpsn  file "../MSP430F5xx_6xx/pmm.c",line 120,column 1,is_stmt,isa 0
     511            $C$DW$20        .dwtag  DW_TAG_TI_branch
     512                    .dwattr $C$DW$20, DW_AT_low_pc(0x00)
     513                    .dwattr $C$DW$20, DW_AT_TI_return
     514            
     515 000010 0110          RETA      ; [] 
     516                    ; [] 
     517                    .dwattr $C$DW$19, DW_AT_TI_end_file("../MSP430F5xx_6xx/pmm.c")
     518                    .dwattr $C$DW$19, DW_AT_TI_end_line(0x78)
     519                    .dwattr $C$DW$19, DW_AT_TI_end_column(0x01)
     520                    .dwendentry
     521                    .dwendtag $C$DW$19
     522            
     523 000000               .sect   ".text:PMM_enableSvsHSvmH"
     524                    .clink
     525                    .global PMM_enableSvsHSvmH
     526            
     527            $C$DW$21        .dwtag  DW_TAG_subprogram
     528                    .dwattr $C$DW$21, DW_AT_name("PMM_enableSvsHSvmH")
     529                    .dwattr $C$DW$21, DW_AT_low_pc(PMM_enableSvsHSvmH)
     530                    .dwattr $C$DW$21, DW_AT_high_pc(0x00)
     531                    .dwattr $C$DW$21, DW_AT_TI_symbol_name("PMM_enableSvsHSvmH")
     532                    .dwattr $C$DW$21, DW_AT_external
     533                    .dwattr $C$DW$21, DW_AT_TI_begin_file("../MSP430F5xx_6xx/pmm.c")
     534                    .dwattr $C$DW$21, DW_AT_TI_begin_line(0x7a)
     535                    .dwattr $C$DW$21, DW_AT_TI_begin_column(0x06)
     536                    .dwattr $C$DW$21, DW_AT_decl_file("../MSP430F5xx_6xx/pmm.c")
     537                    .dwattr $C$DW$21, DW_AT_decl_line(0x7a)
     538                    .dwattr $C$DW$21, DW_AT_decl_column(0x06)
     539                    .dwattr $C$DW$21, DW_AT_TI_max_frame_size(0x04)
     540                    .dwpsn  file "../MSP430F5xx_6xx/pmm.c",line 123,column 1,is_stmt,address PMM_enableSvsHSvmH,is
     541            
     542                    .dwfde $C$DW$CIE, PMM_enableSvsHSvmH
     543            
     544            ;*****************************************************************************
     545            ;* FUNCTION NAME: PMM_enableSvsHSvmH                                         *
     546            ;*                                                                           *
     547            ;*   Regs Modified     : SP                                                  *
     548            ;*   Regs Used         : SP                                                  *
     549            ;*   Local Frame Size  : 0 Args + 0 Auto + 0 Save = 0 byte                   *
     550            ;*****************************************************************************
     551 000000       PMM_enableSvsHSvmH:
     552            ;* --------------------------------------------------------------------------*
     553                    .dwcfi  cfa_offset, 4
     554                    .dwcfi  save_reg_to_mem, 16, -4
     555                    .dwpsn  file "../MSP430F5xx_6xx/pmm.c",line 124,column 5,is_stmt,isa 0
MSP430 Assembler PC v15.12.3 Mon Oct 17 14:33:07 2016

Tools Copyright (c) 2003-2015 Texas Instruments Incorporated
C:\Users\madis\AppData\Local\Temp\027322                             PAGE   12

     556 000000 40F2          MOV.B     #165,&0x121           ; [] |124| 
         000002 00A5 
         000004 0121 
     557                    .dwpsn  file "../MSP430F5xx_6xx/pmm.c",line 125,column 5,is_stmt,isa 0
     558 000006 D0B2          OR.W      #17408,&0x124         ; [] |125| 
         000008 4400 
         00000a 0124 
     559                    .dwpsn  file "../MSP430F5xx_6xx/pmm.c",line 126,column 5,is_stmt,isa 0
     560 00000c 43C2          MOV.B     #0,&0x121             ; [] |126| 
         00000e 0121 
     561                    .dwpsn  file "../MSP430F5xx_6xx/pmm.c",line 127,column 1,is_stmt,isa 0
     562            $C$DW$22        .dwtag  DW_TAG_TI_branch
     563                    .dwattr $C$DW$22, DW_AT_low_pc(0x00)
     564                    .dwattr $C$DW$22, DW_AT_TI_return
     565            
     566 000010 0110          RETA      ; [] 
     567                    ; [] 
     568                    .dwattr $C$DW$21, DW_AT_TI_end_file("../MSP430F5xx_6xx/pmm.c")
     569                    .dwattr $C$DW$21, DW_AT_TI_end_line(0x7f)
     570                    .dwattr $C$DW$21, DW_AT_TI_end_column(0x01)
     571                    .dwendentry
     572                    .dwendtag $C$DW$21
     573            
     574 000000               .sect   ".text:PMM_disableSvsHSvmH"
     575                    .clink
     576                    .global PMM_disableSvsHSvmH
     577            
     578            $C$DW$23        .dwtag  DW_TAG_subprogram
     579                    .dwattr $C$DW$23, DW_AT_name("PMM_disableSvsHSvmH")
     580                    .dwattr $C$DW$23, DW_AT_low_pc(PMM_disableSvsHSvmH)
     581                    .dwattr $C$DW$23, DW_AT_high_pc(0x00)
     582                    .dwattr $C$DW$23, DW_AT_TI_symbol_name("PMM_disableSvsHSvmH")
     583                    .dwattr $C$DW$23, DW_AT_external
     584                    .dwattr $C$DW$23, DW_AT_TI_begin_file("../MSP430F5xx_6xx/pmm.c")
     585                    .dwattr $C$DW$23, DW_AT_TI_begin_line(0x81)
     586                    .dwattr $C$DW$23, DW_AT_TI_begin_column(0x06)
     587                    .dwattr $C$DW$23, DW_AT_decl_file("../MSP430F5xx_6xx/pmm.c")
     588                    .dwattr $C$DW$23, DW_AT_decl_line(0x81)
     589                    .dwattr $C$DW$23, DW_AT_decl_column(0x06)
     590                    .dwattr $C$DW$23, DW_AT_TI_max_frame_size(0x04)
     591                    .dwpsn  file "../MSP430F5xx_6xx/pmm.c",line 130,column 1,is_stmt,address PMM_disableSvsHSvmH,i
     592            
     593                    .dwfde $C$DW$CIE, PMM_disableSvsHSvmH
     594            
     595            ;*****************************************************************************
     596            ;* FUNCTION NAME: PMM_disableSvsHSvmH                                        *
     597            ;*                                                                           *
     598            ;*   Regs Modified     : SP,SR                                               *
     599            ;*   Regs Used         : SP,SR                                               *
     600            ;*   Local Frame Size  : 0 Args + 0 Auto + 0 Save = 0 byte                   *
     601            ;*****************************************************************************
     602 000000       PMM_disableSvsHSvmH:
     603            ;* --------------------------------------------------------------------------*
     604                    .dwcfi  cfa_offset, 4
     605                    .dwcfi  save_reg_to_mem, 16, -4
MSP430 Assembler PC v15.12.3 Mon Oct 17 14:33:07 2016

Tools Copyright (c) 2003-2015 Texas Instruments Incorporated
C:\Users\madis\AppData\Local\Temp\027322                             PAGE   13

     606                    .dwpsn  file "../MSP430F5xx_6xx/pmm.c",line 131,column 5,is_stmt,isa 0
     607 000000 40F2          MOV.B     #165,&0x121           ; [] |131| 
         000002 00A5 
         000004 0121 
     608                    .dwpsn  file "../MSP430F5xx_6xx/pmm.c",line 132,column 5,is_stmt,isa 0
     609 000006 F0B2          AND.W     #48127,&0x124         ; [] |132| 
         000008 BBFF 
         00000a 0124 
     610                    .dwpsn  file "../MSP430F5xx_6xx/pmm.c",line 133,column 5,is_stmt,isa 0
     611 00000c 43C2          MOV.B     #0,&0x121             ; [] |133| 
         00000e 0121 
     612                    .dwpsn  file "../MSP430F5xx_6xx/pmm.c",line 134,column 1,is_stmt,isa 0
     613            $C$DW$24        .dwtag  DW_TAG_TI_branch
     614                    .dwattr $C$DW$24, DW_AT_low_pc(0x00)
     615                    .dwattr $C$DW$24, DW_AT_TI_return
     616            
     617 000010 0110          RETA      ; [] 
     618                    ; [] 
     619                    .dwattr $C$DW$23, DW_AT_TI_end_file("../MSP430F5xx_6xx/pmm.c")
     620                    .dwattr $C$DW$23, DW_AT_TI_end_line(0x86)
     621                    .dwattr $C$DW$23, DW_AT_TI_end_column(0x01)
     622                    .dwendentry
     623                    .dwendtag $C$DW$23
     624            
     625 000000               .sect   ".text:PMM_enableSvsLReset"
     626                    .clink
     627                    .global PMM_enableSvsLReset
     628            
     629            $C$DW$25        .dwtag  DW_TAG_subprogram
     630                    .dwattr $C$DW$25, DW_AT_name("PMM_enableSvsLReset")
     631                    .dwattr $C$DW$25, DW_AT_low_pc(PMM_enableSvsLReset)
     632                    .dwattr $C$DW$25, DW_AT_high_pc(0x00)
     633                    .dwattr $C$DW$25, DW_AT_TI_symbol_name("PMM_enableSvsLReset")
     634                    .dwattr $C$DW$25, DW_AT_external
     635                    .dwattr $C$DW$25, DW_AT_TI_begin_file("../MSP430F5xx_6xx/pmm.c")
     636                    .dwattr $C$DW$25, DW_AT_TI_begin_line(0x88)
     637                    .dwattr $C$DW$25, DW_AT_TI_begin_column(0x06)
     638                    .dwattr $C$DW$25, DW_AT_decl_file("../MSP430F5xx_6xx/pmm.c")
     639                    .dwattr $C$DW$25, DW_AT_decl_line(0x88)
     640                    .dwattr $C$DW$25, DW_AT_decl_column(0x06)
     641                    .dwattr $C$DW$25, DW_AT_TI_max_frame_size(0x04)
     642                    .dwpsn  file "../MSP430F5xx_6xx/pmm.c",line 137,column 1,is_stmt,address PMM_enableSvsLReset,i
     643            
     644                    .dwfde $C$DW$CIE, PMM_enableSvsLReset
     645            
     646            ;*****************************************************************************
     647            ;* FUNCTION NAME: PMM_enableSvsLReset                                        *
     648            ;*                                                                           *
     649            ;*   Regs Modified     : SP                                                  *
     650            ;*   Regs Used         : SP                                                  *
     651            ;*   Local Frame Size  : 0 Args + 0 Auto + 0 Save = 0 byte                   *
     652            ;*****************************************************************************
     653 000000       PMM_enableSvsLReset:
     654            ;* --------------------------------------------------------------------------*
     655                    .dwcfi  cfa_offset, 4
MSP430 Assembler PC v15.12.3 Mon Oct 17 14:33:07 2016

Tools Copyright (c) 2003-2015 Texas Instruments Incorporated
C:\Users\madis\AppData\Local\Temp\027322                             PAGE   14

     656                    .dwcfi  save_reg_to_mem, 16, -4
     657                    .dwpsn  file "../MSP430F5xx_6xx/pmm.c",line 138,column 5,is_stmt,isa 0
     658 000000 40F2          MOV.B     #165,&0x121           ; [] |138| 
         000002 00A5 
         000004 0121 
     659                    .dwpsn  file "../MSP430F5xx_6xx/pmm.c",line 139,column 5,is_stmt,isa 0
     660 000006 D0B2          OR.W      #256,&0x12e           ; [] |139| 
         000008 0100 
         00000a 012E 
     661                    .dwpsn  file "../MSP430F5xx_6xx/pmm.c",line 140,column 5,is_stmt,isa 0
     662 00000c 43C2          MOV.B     #0,&0x121             ; [] |140| 
         00000e 0121 
     663                    .dwpsn  file "../MSP430F5xx_6xx/pmm.c",line 141,column 1,is_stmt,isa 0
     664            $C$DW$26        .dwtag  DW_TAG_TI_branch
     665                    .dwattr $C$DW$26, DW_AT_low_pc(0x00)
     666                    .dwattr $C$DW$26, DW_AT_TI_return
     667            
     668 000010 0110          RETA      ; [] 
     669                    ; [] 
     670                    .dwattr $C$DW$25, DW_AT_TI_end_file("../MSP430F5xx_6xx/pmm.c")
     671                    .dwattr $C$DW$25, DW_AT_TI_end_line(0x8d)
     672                    .dwattr $C$DW$25, DW_AT_TI_end_column(0x01)
     673                    .dwendentry
     674                    .dwendtag $C$DW$25
     675            
     676 000000               .sect   ".text:PMM_disableSvsLReset"
     677                    .clink
     678                    .global PMM_disableSvsLReset
     679            
     680            $C$DW$27        .dwtag  DW_TAG_subprogram
     681                    .dwattr $C$DW$27, DW_AT_name("PMM_disableSvsLReset")
     682                    .dwattr $C$DW$27, DW_AT_low_pc(PMM_disableSvsLReset)
     683                    .dwattr $C$DW$27, DW_AT_high_pc(0x00)
     684                    .dwattr $C$DW$27, DW_AT_TI_symbol_name("PMM_disableSvsLReset")
     685                    .dwattr $C$DW$27, DW_AT_external
     686                    .dwattr $C$DW$27, DW_AT_TI_begin_file("../MSP430F5xx_6xx/pmm.c")
     687                    .dwattr $C$DW$27, DW_AT_TI_begin_line(0x8f)
     688                    .dwattr $C$DW$27, DW_AT_TI_begin_column(0x06)
     689                    .dwattr $C$DW$27, DW_AT_decl_file("../MSP430F5xx_6xx/pmm.c")
     690                    .dwattr $C$DW$27, DW_AT_decl_line(0x8f)
     691                    .dwattr $C$DW$27, DW_AT_decl_column(0x06)
     692                    .dwattr $C$DW$27, DW_AT_TI_max_frame_size(0x04)
     693                    .dwpsn  file "../MSP430F5xx_6xx/pmm.c",line 144,column 1,is_stmt,address PMM_disableSvsLReset,
     694            
     695                    .dwfde $C$DW$CIE, PMM_disableSvsLReset
     696            
     697            ;*****************************************************************************
     698            ;* FUNCTION NAME: PMM_disableSvsLReset                                       *
     699            ;*                                                                           *
     700            ;*   Regs Modified     : SP,SR                                               *
     701            ;*   Regs Used         : SP,SR                                               *
     702            ;*   Local Frame Size  : 0 Args + 0 Auto + 0 Save = 0 byte                   *
     703            ;*****************************************************************************
     704 000000       PMM_disableSvsLReset:
     705            ;* --------------------------------------------------------------------------*
MSP430 Assembler PC v15.12.3 Mon Oct 17 14:33:07 2016

Tools Copyright (c) 2003-2015 Texas Instruments Incorporated
C:\Users\madis\AppData\Local\Temp\027322                             PAGE   15

     706                    .dwcfi  cfa_offset, 4
     707                    .dwcfi  save_reg_to_mem, 16, -4
     708                    .dwpsn  file "../MSP430F5xx_6xx/pmm.c",line 145,column 5,is_stmt,isa 0
     709 000000 40F2          MOV.B     #165,&0x121           ; [] |145| 
         000002 00A5 
         000004 0121 
     710                    .dwpsn  file "../MSP430F5xx_6xx/pmm.c",line 146,column 5,is_stmt,isa 0
     711 000006 F0B2          AND.W     #65279,&0x12e         ; [] |146| 
         000008 FEFF 
         00000a 012E 
     712                    .dwpsn  file "../MSP430F5xx_6xx/pmm.c",line 147,column 5,is_stmt,isa 0
     713 00000c 43C2          MOV.B     #0,&0x121             ; [] |147| 
         00000e 0121 
     714                    .dwpsn  file "../MSP430F5xx_6xx/pmm.c",line 148,column 1,is_stmt,isa 0
     715            $C$DW$28        .dwtag  DW_TAG_TI_branch
     716                    .dwattr $C$DW$28, DW_AT_low_pc(0x00)
     717                    .dwattr $C$DW$28, DW_AT_TI_return
     718            
     719 000010 0110          RETA      ; [] 
     720                    ; [] 
     721                    .dwattr $C$DW$27, DW_AT_TI_end_file("../MSP430F5xx_6xx/pmm.c")
     722                    .dwattr $C$DW$27, DW_AT_TI_end_line(0x94)
     723                    .dwattr $C$DW$27, DW_AT_TI_end_column(0x01)
     724                    .dwendentry
     725                    .dwendtag $C$DW$27
     726            
     727 000000               .sect   ".text:PMM_enableSvmLInterrupt"
     728                    .clink
     729                    .global PMM_enableSvmLInterrupt
     730            
     731            $C$DW$29        .dwtag  DW_TAG_subprogram
     732                    .dwattr $C$DW$29, DW_AT_name("PMM_enableSvmLInterrupt")
     733                    .dwattr $C$DW$29, DW_AT_low_pc(PMM_enableSvmLInterrupt)
     734                    .dwattr $C$DW$29, DW_AT_high_pc(0x00)
     735                    .dwattr $C$DW$29, DW_AT_TI_symbol_name("PMM_enableSvmLInterrupt")
     736                    .dwattr $C$DW$29, DW_AT_external
     737                    .dwattr $C$DW$29, DW_AT_TI_begin_file("../MSP430F5xx_6xx/pmm.c")
     738                    .dwattr $C$DW$29, DW_AT_TI_begin_line(0x96)
     739                    .dwattr $C$DW$29, DW_AT_TI_begin_column(0x06)
     740                    .dwattr $C$DW$29, DW_AT_decl_file("../MSP430F5xx_6xx/pmm.c")
     741                    .dwattr $C$DW$29, DW_AT_decl_line(0x96)
     742                    .dwattr $C$DW$29, DW_AT_decl_column(0x06)
     743                    .dwattr $C$DW$29, DW_AT_TI_max_frame_size(0x04)
     744                    .dwpsn  file "../MSP430F5xx_6xx/pmm.c",line 151,column 1,is_stmt,address PMM_enableSvmLInterru
     745            
     746                    .dwfde $C$DW$CIE, PMM_enableSvmLInterrupt
     747            
     748            ;*****************************************************************************
     749            ;* FUNCTION NAME: PMM_enableSvmLInterrupt                                    *
     750            ;*                                                                           *
     751            ;*   Regs Modified     : SP                                                  *
     752            ;*   Regs Used         : SP                                                  *
     753            ;*   Local Frame Size  : 0 Args + 0 Auto + 0 Save = 0 byte                   *
     754            ;*****************************************************************************
     755 000000       PMM_enableSvmLInterrupt:
MSP430 Assembler PC v15.12.3 Mon Oct 17 14:33:07 2016

Tools Copyright (c) 2003-2015 Texas Instruments Incorporated
C:\Users\madis\AppData\Local\Temp\027322                             PAGE   16

     756            ;* --------------------------------------------------------------------------*
     757                    .dwcfi  cfa_offset, 4
     758                    .dwcfi  save_reg_to_mem, 16, -4
     759                    .dwpsn  file "../MSP430F5xx_6xx/pmm.c",line 152,column 5,is_stmt,isa 0
     760 000000 40F2          MOV.B     #165,&0x121           ; [] |152| 
         000002 00A5 
         000004 0121 
     761                    .dwpsn  file "../MSP430F5xx_6xx/pmm.c",line 153,column 5,is_stmt,isa 0
     762 000006 D3A2          OR.W      #2,&0x12e             ; [] |153| 
         000008 012E 
     763                    .dwpsn  file "../MSP430F5xx_6xx/pmm.c",line 154,column 5,is_stmt,isa 0
     764 00000a 43C2          MOV.B     #0,&0x121             ; [] |154| 
         00000c 0121 
     765                    .dwpsn  file "../MSP430F5xx_6xx/pmm.c",line 155,column 1,is_stmt,isa 0
     766            $C$DW$30        .dwtag  DW_TAG_TI_branch
     767                    .dwattr $C$DW$30, DW_AT_low_pc(0x00)
     768                    .dwattr $C$DW$30, DW_AT_TI_return
     769            
     770 00000e 0110          RETA      ; [] 
     771                    ; [] 
     772                    .dwattr $C$DW$29, DW_AT_TI_end_file("../MSP430F5xx_6xx/pmm.c")
     773                    .dwattr $C$DW$29, DW_AT_TI_end_line(0x9b)
     774                    .dwattr $C$DW$29, DW_AT_TI_end_column(0x01)
     775                    .dwendentry
     776                    .dwendtag $C$DW$29
     777            
     778 000000               .sect   ".text:PMM_disableSvmLInterrupt"
     779                    .clink
     780                    .global PMM_disableSvmLInterrupt
     781            
     782            $C$DW$31        .dwtag  DW_TAG_subprogram
     783                    .dwattr $C$DW$31, DW_AT_name("PMM_disableSvmLInterrupt")
     784                    .dwattr $C$DW$31, DW_AT_low_pc(PMM_disableSvmLInterrupt)
     785                    .dwattr $C$DW$31, DW_AT_high_pc(0x00)
     786                    .dwattr $C$DW$31, DW_AT_TI_symbol_name("PMM_disableSvmLInterrupt")
     787                    .dwattr $C$DW$31, DW_AT_external
     788                    .dwattr $C$DW$31, DW_AT_TI_begin_file("../MSP430F5xx_6xx/pmm.c")
     789                    .dwattr $C$DW$31, DW_AT_TI_begin_line(0x9d)
     790                    .dwattr $C$DW$31, DW_AT_TI_begin_column(0x06)
     791                    .dwattr $C$DW$31, DW_AT_decl_file("../MSP430F5xx_6xx/pmm.c")
     792                    .dwattr $C$DW$31, DW_AT_decl_line(0x9d)
     793                    .dwattr $C$DW$31, DW_AT_decl_column(0x06)
     794                    .dwattr $C$DW$31, DW_AT_TI_max_frame_size(0x04)
     795                    .dwpsn  file "../MSP430F5xx_6xx/pmm.c",line 158,column 1,is_stmt,address PMM_disableSvmLInterr
     796            
     797                    .dwfde $C$DW$CIE, PMM_disableSvmLInterrupt
     798            
     799            ;*****************************************************************************
     800            ;* FUNCTION NAME: PMM_disableSvmLInterrupt                                   *
     801            ;*                                                                           *
     802            ;*   Regs Modified     : SP                                                  *
     803            ;*   Regs Used         : SP                                                  *
     804            ;*   Local Frame Size  : 0 Args + 0 Auto + 0 Save = 0 byte                   *
     805            ;*****************************************************************************
     806 000000       PMM_disableSvmLInterrupt:
MSP430 Assembler PC v15.12.3 Mon Oct 17 14:33:07 2016

Tools Copyright (c) 2003-2015 Texas Instruments Incorporated
C:\Users\madis\AppData\Local\Temp\027322                             PAGE   17

     807            ;* --------------------------------------------------------------------------*
     808                    .dwcfi  cfa_offset, 4
     809                    .dwcfi  save_reg_to_mem, 16, -4
     810                    .dwpsn  file "../MSP430F5xx_6xx/pmm.c",line 159,column 5,is_stmt,isa 0
     811 000000 40F2          MOV.B     #165,&0x121           ; [] |159| 
         000002 00A5 
         000004 0121 
     812                    .dwpsn  file "../MSP430F5xx_6xx/pmm.c",line 160,column 5,is_stmt,isa 0
     813 000006 C3A2          BIC.W     #2,&0x12e             ; [] |160| 
         000008 012E 
     814                    .dwpsn  file "../MSP430F5xx_6xx/pmm.c",line 161,column 5,is_stmt,isa 0
     815 00000a 43C2          MOV.B     #0,&0x121             ; [] |161| 
         00000c 0121 
     816                    .dwpsn  file "../MSP430F5xx_6xx/pmm.c",line 162,column 1,is_stmt,isa 0
     817            $C$DW$32        .dwtag  DW_TAG_TI_branch
     818                    .dwattr $C$DW$32, DW_AT_low_pc(0x00)
     819                    .dwattr $C$DW$32, DW_AT_TI_return
     820            
     821 00000e 0110          RETA      ; [] 
     822                    ; [] 
     823                    .dwattr $C$DW$31, DW_AT_TI_end_file("../MSP430F5xx_6xx/pmm.c")
     824                    .dwattr $C$DW$31, DW_AT_TI_end_line(0xa2)
     825                    .dwattr $C$DW$31, DW_AT_TI_end_column(0x01)
     826                    .dwendentry
     827                    .dwendtag $C$DW$31
     828            
     829 000000               .sect   ".text:PMM_enableSvsHReset"
     830                    .clink
     831                    .global PMM_enableSvsHReset
     832            
     833            $C$DW$33        .dwtag  DW_TAG_subprogram
     834                    .dwattr $C$DW$33, DW_AT_name("PMM_enableSvsHReset")
     835                    .dwattr $C$DW$33, DW_AT_low_pc(PMM_enableSvsHReset)
     836                    .dwattr $C$DW$33, DW_AT_high_pc(0x00)
     837                    .dwattr $C$DW$33, DW_AT_TI_symbol_name("PMM_enableSvsHReset")
     838                    .dwattr $C$DW$33, DW_AT_external
     839                    .dwattr $C$DW$33, DW_AT_TI_begin_file("../MSP430F5xx_6xx/pmm.c")
     840                    .dwattr $C$DW$33, DW_AT_TI_begin_line(0xa4)
     841                    .dwattr $C$DW$33, DW_AT_TI_begin_column(0x06)
     842                    .dwattr $C$DW$33, DW_AT_decl_file("../MSP430F5xx_6xx/pmm.c")
     843                    .dwattr $C$DW$33, DW_AT_decl_line(0xa4)
     844                    .dwattr $C$DW$33, DW_AT_decl_column(0x06)
     845                    .dwattr $C$DW$33, DW_AT_TI_max_frame_size(0x04)
     846                    .dwpsn  file "../MSP430F5xx_6xx/pmm.c",line 165,column 1,is_stmt,address PMM_enableSvsHReset,i
     847            
     848                    .dwfde $C$DW$CIE, PMM_enableSvsHReset
     849            
     850            ;*****************************************************************************
     851            ;* FUNCTION NAME: PMM_enableSvsHReset                                        *
     852            ;*                                                                           *
     853            ;*   Regs Modified     : SP                                                  *
     854            ;*   Regs Used         : SP                                                  *
     855            ;*   Local Frame Size  : 0 Args + 0 Auto + 0 Save = 0 byte                   *
     856            ;*****************************************************************************
     857 000000       PMM_enableSvsHReset:
MSP430 Assembler PC v15.12.3 Mon Oct 17 14:33:07 2016

Tools Copyright (c) 2003-2015 Texas Instruments Incorporated
C:\Users\madis\AppData\Local\Temp\027322                             PAGE   18

     858            ;* --------------------------------------------------------------------------*
     859                    .dwcfi  cfa_offset, 4
     860                    .dwcfi  save_reg_to_mem, 16, -4
     861                    .dwpsn  file "../MSP430F5xx_6xx/pmm.c",line 166,column 5,is_stmt,isa 0
     862 000000 40F2          MOV.B     #165,&0x121           ; [] |166| 
         000002 00A5 
         000004 0121 
     863                    .dwpsn  file "../MSP430F5xx_6xx/pmm.c",line 167,column 5,is_stmt,isa 0
     864 000006 D0B2          OR.W      #4096,&0x12e          ; [] |167| 
         000008 1000 
         00000a 012E 
     865                    .dwpsn  file "../MSP430F5xx_6xx/pmm.c",line 168,column 5,is_stmt,isa 0
     866 00000c 43C2          MOV.B     #0,&0x121             ; [] |168| 
         00000e 0121 
     867                    .dwpsn  file "../MSP430F5xx_6xx/pmm.c",line 169,column 1,is_stmt,isa 0
     868            $C$DW$34        .dwtag  DW_TAG_TI_branch
     869                    .dwattr $C$DW$34, DW_AT_low_pc(0x00)
     870                    .dwattr $C$DW$34, DW_AT_TI_return
     871            
     872 000010 0110          RETA      ; [] 
     873                    ; [] 
     874                    .dwattr $C$DW$33, DW_AT_TI_end_file("../MSP430F5xx_6xx/pmm.c")
     875                    .dwattr $C$DW$33, DW_AT_TI_end_line(0xa9)
     876                    .dwattr $C$DW$33, DW_AT_TI_end_column(0x01)
     877                    .dwendentry
     878                    .dwendtag $C$DW$33
     879            
     880 000000               .sect   ".text:PMM_disableSvsHReset"
     881                    .clink
     882                    .global PMM_disableSvsHReset
     883            
     884            $C$DW$35        .dwtag  DW_TAG_subprogram
     885                    .dwattr $C$DW$35, DW_AT_name("PMM_disableSvsHReset")
     886                    .dwattr $C$DW$35, DW_AT_low_pc(PMM_disableSvsHReset)
     887                    .dwattr $C$DW$35, DW_AT_high_pc(0x00)
     888                    .dwattr $C$DW$35, DW_AT_TI_symbol_name("PMM_disableSvsHReset")
     889                    .dwattr $C$DW$35, DW_AT_external
     890                    .dwattr $C$DW$35, DW_AT_TI_begin_file("../MSP430F5xx_6xx/pmm.c")
     891                    .dwattr $C$DW$35, DW_AT_TI_begin_line(0xab)
     892                    .dwattr $C$DW$35, DW_AT_TI_begin_column(0x06)
     893                    .dwattr $C$DW$35, DW_AT_decl_file("../MSP430F5xx_6xx/pmm.c")
     894                    .dwattr $C$DW$35, DW_AT_decl_line(0xab)
     895                    .dwattr $C$DW$35, DW_AT_decl_column(0x06)
     896                    .dwattr $C$DW$35, DW_AT_TI_max_frame_size(0x04)
     897                    .dwpsn  file "../MSP430F5xx_6xx/pmm.c",line 172,column 1,is_stmt,address PMM_disableSvsHReset,
     898            
     899                    .dwfde $C$DW$CIE, PMM_disableSvsHReset
     900            
     901            ;*****************************************************************************
     902            ;* FUNCTION NAME: PMM_disableSvsHReset                                       *
     903            ;*                                                                           *
     904            ;*   Regs Modified     : SP,SR                                               *
     905            ;*   Regs Used         : SP,SR                                               *
     906            ;*   Local Frame Size  : 0 Args + 0 Auto + 0 Save = 0 byte                   *
     907            ;*****************************************************************************
MSP430 Assembler PC v15.12.3 Mon Oct 17 14:33:07 2016

Tools Copyright (c) 2003-2015 Texas Instruments Incorporated
C:\Users\madis\AppData\Local\Temp\027322                             PAGE   19

     908 000000       PMM_disableSvsHReset:
     909            ;* --------------------------------------------------------------------------*
     910                    .dwcfi  cfa_offset, 4
     911                    .dwcfi  save_reg_to_mem, 16, -4
     912                    .dwpsn  file "../MSP430F5xx_6xx/pmm.c",line 173,column 5,is_stmt,isa 0
     913 000000 40F2          MOV.B     #165,&0x121           ; [] |173| 
         000002 00A5 
         000004 0121 
     914                    .dwpsn  file "../MSP430F5xx_6xx/pmm.c",line 174,column 5,is_stmt,isa 0
     915 000006 F0B2          AND.W     #61439,&0x12e         ; [] |174| 
         000008 EFFF 
         00000a 012E 
     916                    .dwpsn  file "../MSP430F5xx_6xx/pmm.c",line 175,column 5,is_stmt,isa 0
     917 00000c 43C2          MOV.B     #0,&0x121             ; [] |175| 
         00000e 0121 
     918                    .dwpsn  file "../MSP430F5xx_6xx/pmm.c",line 176,column 1,is_stmt,isa 0
     919            $C$DW$36        .dwtag  DW_TAG_TI_branch
     920                    .dwattr $C$DW$36, DW_AT_low_pc(0x00)
     921                    .dwattr $C$DW$36, DW_AT_TI_return
     922            
     923 000010 0110          RETA      ; [] 
     924                    ; [] 
     925                    .dwattr $C$DW$35, DW_AT_TI_end_file("../MSP430F5xx_6xx/pmm.c")
     926                    .dwattr $C$DW$35, DW_AT_TI_end_line(0xb0)
     927                    .dwattr $C$DW$35, DW_AT_TI_end_column(0x01)
     928                    .dwendentry
     929                    .dwendtag $C$DW$35
     930            
     931 000000               .sect   ".text:PMM_enableSvmHInterrupt"
     932                    .clink
     933                    .global PMM_enableSvmHInterrupt
     934            
     935            $C$DW$37        .dwtag  DW_TAG_subprogram
     936                    .dwattr $C$DW$37, DW_AT_name("PMM_enableSvmHInterrupt")
     937                    .dwattr $C$DW$37, DW_AT_low_pc(PMM_enableSvmHInterrupt)
     938                    .dwattr $C$DW$37, DW_AT_high_pc(0x00)
     939                    .dwattr $C$DW$37, DW_AT_TI_symbol_name("PMM_enableSvmHInterrupt")
     940                    .dwattr $C$DW$37, DW_AT_external
     941                    .dwattr $C$DW$37, DW_AT_TI_begin_file("../MSP430F5xx_6xx/pmm.c")
     942                    .dwattr $C$DW$37, DW_AT_TI_begin_line(0xb2)
     943                    .dwattr $C$DW$37, DW_AT_TI_begin_column(0x06)
     944                    .dwattr $C$DW$37, DW_AT_decl_file("../MSP430F5xx_6xx/pmm.c")
     945                    .dwattr $C$DW$37, DW_AT_decl_line(0xb2)
     946                    .dwattr $C$DW$37, DW_AT_decl_column(0x06)
     947                    .dwattr $C$DW$37, DW_AT_TI_max_frame_size(0x04)
     948                    .dwpsn  file "../MSP430F5xx_6xx/pmm.c",line 179,column 1,is_stmt,address PMM_enableSvmHInterru
     949            
     950                    .dwfde $C$DW$CIE, PMM_enableSvmHInterrupt
     951            
     952            ;*****************************************************************************
     953            ;* FUNCTION NAME: PMM_enableSvmHInterrupt                                    *
     954            ;*                                                                           *
     955            ;*   Regs Modified     : SP                                                  *
     956            ;*   Regs Used         : SP                                                  *
     957            ;*   Local Frame Size  : 0 Args + 0 Auto + 0 Save = 0 byte                   *
MSP430 Assembler PC v15.12.3 Mon Oct 17 14:33:07 2016

Tools Copyright (c) 2003-2015 Texas Instruments Incorporated
C:\Users\madis\AppData\Local\Temp\027322                             PAGE   20

     958            ;*****************************************************************************
     959 000000       PMM_enableSvmHInterrupt:
     960            ;* --------------------------------------------------------------------------*
     961                    .dwcfi  cfa_offset, 4
     962                    .dwcfi  save_reg_to_mem, 16, -4
     963                    .dwpsn  file "../MSP430F5xx_6xx/pmm.c",line 180,column 5,is_stmt,isa 0
     964 000000 40F2          MOV.B     #165,&0x121           ; [] |180| 
         000002 00A5 
         000004 0121 
     965                    .dwpsn  file "../MSP430F5xx_6xx/pmm.c",line 181,column 5,is_stmt,isa 0
     966 000006 D0B2          OR.W      #32,&0x12e            ; [] |181| 
         000008 0020 
         00000a 012E 
     967                    .dwpsn  file "../MSP430F5xx_6xx/pmm.c",line 182,column 5,is_stmt,isa 0
     968 00000c 43C2          MOV.B     #0,&0x121             ; [] |182| 
         00000e 0121 
     969                    .dwpsn  file "../MSP430F5xx_6xx/pmm.c",line 183,column 1,is_stmt,isa 0
     970            $C$DW$38        .dwtag  DW_TAG_TI_branch
     971                    .dwattr $C$DW$38, DW_AT_low_pc(0x00)
     972                    .dwattr $C$DW$38, DW_AT_TI_return
     973            
     974 000010 0110          RETA      ; [] 
     975                    ; [] 
     976                    .dwattr $C$DW$37, DW_AT_TI_end_file("../MSP430F5xx_6xx/pmm.c")
     977                    .dwattr $C$DW$37, DW_AT_TI_end_line(0xb7)
     978                    .dwattr $C$DW$37, DW_AT_TI_end_column(0x01)
     979                    .dwendentry
     980                    .dwendtag $C$DW$37
     981            
     982 000000               .sect   ".text:PMM_disableSvmHInterrupt"
     983                    .clink
     984                    .global PMM_disableSvmHInterrupt
     985            
     986            $C$DW$39        .dwtag  DW_TAG_subprogram
     987                    .dwattr $C$DW$39, DW_AT_name("PMM_disableSvmHInterrupt")
     988                    .dwattr $C$DW$39, DW_AT_low_pc(PMM_disableSvmHInterrupt)
     989                    .dwattr $C$DW$39, DW_AT_high_pc(0x00)
     990                    .dwattr $C$DW$39, DW_AT_TI_symbol_name("PMM_disableSvmHInterrupt")
     991                    .dwattr $C$DW$39, DW_AT_external
     992                    .dwattr $C$DW$39, DW_AT_TI_begin_file("../MSP430F5xx_6xx/pmm.c")
     993                    .dwattr $C$DW$39, DW_AT_TI_begin_line(0xb9)
     994                    .dwattr $C$DW$39, DW_AT_TI_begin_column(0x06)
     995                    .dwattr $C$DW$39, DW_AT_decl_file("../MSP430F5xx_6xx/pmm.c")
     996                    .dwattr $C$DW$39, DW_AT_decl_line(0xb9)
     997                    .dwattr $C$DW$39, DW_AT_decl_column(0x06)
     998                    .dwattr $C$DW$39, DW_AT_TI_max_frame_size(0x04)
     999                    .dwpsn  file "../MSP430F5xx_6xx/pmm.c",line 186,column 1,is_stmt,address PMM_disableSvmHInterr
    1000            
    1001                    .dwfde $C$DW$CIE, PMM_disableSvmHInterrupt
    1002            
    1003            ;*****************************************************************************
    1004            ;* FUNCTION NAME: PMM_disableSvmHInterrupt                                   *
    1005            ;*                                                                           *
    1006            ;*   Regs Modified     : SP,SR                                               *
    1007            ;*   Regs Used         : SP,SR                                               *
MSP430 Assembler PC v15.12.3 Mon Oct 17 14:33:07 2016

Tools Copyright (c) 2003-2015 Texas Instruments Incorporated
C:\Users\madis\AppData\Local\Temp\027322                             PAGE   21

    1008            ;*   Local Frame Size  : 0 Args + 0 Auto + 0 Save = 0 byte                   *
    1009            ;*****************************************************************************
    1010 000000       PMM_disableSvmHInterrupt:
    1011            ;* --------------------------------------------------------------------------*
    1012                    .dwcfi  cfa_offset, 4
    1013                    .dwcfi  save_reg_to_mem, 16, -4
    1014                    .dwpsn  file "../MSP430F5xx_6xx/pmm.c",line 187,column 5,is_stmt,isa 0
    1015 000000 40F2          MOV.B     #165,&0x121           ; [] |187| 
         000002 00A5 
         000004 0121 
    1016                    .dwpsn  file "../MSP430F5xx_6xx/pmm.c",line 188,column 5,is_stmt,isa 0
    1017 000006 F0B2          AND.W     #65503,&0x12e         ; [] |188| 
         000008 FFDF 
         00000a 012E 
    1018                    .dwpsn  file "../MSP430F5xx_6xx/pmm.c",line 189,column 5,is_stmt,isa 0
    1019 00000c 43C2          MOV.B     #0,&0x121             ; [] |189| 
         00000e 0121 
    1020                    .dwpsn  file "../MSP430F5xx_6xx/pmm.c",line 190,column 1,is_stmt,isa 0
    1021            $C$DW$40        .dwtag  DW_TAG_TI_branch
    1022                    .dwattr $C$DW$40, DW_AT_low_pc(0x00)
    1023                    .dwattr $C$DW$40, DW_AT_TI_return
    1024            
    1025 000010 0110          RETA      ; [] 
    1026                    ; [] 
    1027                    .dwattr $C$DW$39, DW_AT_TI_end_file("../MSP430F5xx_6xx/pmm.c")
    1028                    .dwattr $C$DW$39, DW_AT_TI_end_line(0xbe)
    1029                    .dwattr $C$DW$39, DW_AT_TI_end_column(0x01)
    1030                    .dwendentry
    1031                    .dwendtag $C$DW$39
    1032            
    1033 000000               .sect   ".text:PMM_clearPMMIFGS"
    1034                    .clink
    1035                    .global PMM_clearPMMIFGS
    1036            
    1037            $C$DW$41        .dwtag  DW_TAG_subprogram
    1038                    .dwattr $C$DW$41, DW_AT_name("PMM_clearPMMIFGS")
    1039                    .dwattr $C$DW$41, DW_AT_low_pc(PMM_clearPMMIFGS)
    1040                    .dwattr $C$DW$41, DW_AT_high_pc(0x00)
    1041                    .dwattr $C$DW$41, DW_AT_TI_symbol_name("PMM_clearPMMIFGS")
    1042                    .dwattr $C$DW$41, DW_AT_external
    1043                    .dwattr $C$DW$41, DW_AT_TI_begin_file("../MSP430F5xx_6xx/pmm.c")
    1044                    .dwattr $C$DW$41, DW_AT_TI_begin_line(0xc0)
    1045                    .dwattr $C$DW$41, DW_AT_TI_begin_column(0x06)
    1046                    .dwattr $C$DW$41, DW_AT_decl_file("../MSP430F5xx_6xx/pmm.c")
    1047                    .dwattr $C$DW$41, DW_AT_decl_line(0xc0)
    1048                    .dwattr $C$DW$41, DW_AT_decl_column(0x06)
    1049                    .dwattr $C$DW$41, DW_AT_TI_max_frame_size(0x04)
    1050                    .dwpsn  file "../MSP430F5xx_6xx/pmm.c",line 193,column 1,is_stmt,address PMM_clearPMMIFGS,isa 
    1051            
    1052                    .dwfde $C$DW$CIE, PMM_clearPMMIFGS
    1053            
    1054            ;*****************************************************************************
    1055            ;* FUNCTION NAME: PMM_clearPMMIFGS                                           *
    1056            ;*                                                                           *
    1057            ;*   Regs Modified     : SP                                                  *
MSP430 Assembler PC v15.12.3 Mon Oct 17 14:33:07 2016

Tools Copyright (c) 2003-2015 Texas Instruments Incorporated
C:\Users\madis\AppData\Local\Temp\027322                             PAGE   22

    1058            ;*   Regs Used         : SP                                                  *
    1059            ;*   Local Frame Size  : 0 Args + 0 Auto + 0 Save = 0 byte                   *
    1060            ;*****************************************************************************
    1061 000000       PMM_clearPMMIFGS:
    1062            ;* --------------------------------------------------------------------------*
    1063                    .dwcfi  cfa_offset, 4
    1064                    .dwcfi  save_reg_to_mem, 16, -4
    1065                    .dwpsn  file "../MSP430F5xx_6xx/pmm.c",line 194,column 5,is_stmt,isa 0
    1066 000000 40F2          MOV.B     #165,&0x121           ; [] |194| 
         000002 00A5 
         000004 0121 
    1067                    .dwpsn  file "../MSP430F5xx_6xx/pmm.c",line 195,column 5,is_stmt,isa 0
    1068 000006 4382          MOV.W     #0,&0x12c             ; [] |195| 
         000008 012C 
    1069                    .dwpsn  file "../MSP430F5xx_6xx/pmm.c",line 196,column 5,is_stmt,isa 0
    1070 00000a 43C2          MOV.B     #0,&0x121             ; [] |196| 
         00000c 0121 
    1071                    .dwpsn  file "../MSP430F5xx_6xx/pmm.c",line 197,column 1,is_stmt,isa 0
    1072            $C$DW$42        .dwtag  DW_TAG_TI_branch
    1073                    .dwattr $C$DW$42, DW_AT_low_pc(0x00)
    1074                    .dwattr $C$DW$42, DW_AT_TI_return
    1075            
    1076 00000e 0110          RETA      ; [] 
    1077                    ; [] 
    1078                    .dwattr $C$DW$41, DW_AT_TI_end_file("../MSP430F5xx_6xx/pmm.c")
    1079                    .dwattr $C$DW$41, DW_AT_TI_end_line(0xc5)
    1080                    .dwattr $C$DW$41, DW_AT_TI_end_column(0x01)
    1081                    .dwendentry
    1082                    .dwendtag $C$DW$41
    1083            
    1084 000000               .sect   ".text:PMM_enableSvsLInLPMFastWake"
    1085                    .clink
    1086                    .global PMM_enableSvsLInLPMFastWake
    1087            
    1088            $C$DW$43        .dwtag  DW_TAG_subprogram
    1089                    .dwattr $C$DW$43, DW_AT_name("PMM_enableSvsLInLPMFastWake")
    1090                    .dwattr $C$DW$43, DW_AT_low_pc(PMM_enableSvsLInLPMFastWake)
    1091                    .dwattr $C$DW$43, DW_AT_high_pc(0x00)
    1092                    .dwattr $C$DW$43, DW_AT_TI_symbol_name("PMM_enableSvsLInLPMFastWake")
    1093                    .dwattr $C$DW$43, DW_AT_external
    1094                    .dwattr $C$DW$43, DW_AT_TI_begin_file("../MSP430F5xx_6xx/pmm.c")
    1095                    .dwattr $C$DW$43, DW_AT_TI_begin_line(0xc7)
    1096                    .dwattr $C$DW$43, DW_AT_TI_begin_column(0x06)
    1097                    .dwattr $C$DW$43, DW_AT_decl_file("../MSP430F5xx_6xx/pmm.c")
    1098                    .dwattr $C$DW$43, DW_AT_decl_line(0xc7)
    1099                    .dwattr $C$DW$43, DW_AT_decl_column(0x06)
    1100                    .dwattr $C$DW$43, DW_AT_TI_max_frame_size(0x04)
    1101                    .dwpsn  file "../MSP430F5xx_6xx/pmm.c",line 200,column 1,is_stmt,address PMM_enableSvsLInLPMFa
    1102            
    1103                    .dwfde $C$DW$CIE, PMM_enableSvsLInLPMFastWake
    1104            
    1105            ;*****************************************************************************
    1106            ;* FUNCTION NAME: PMM_enableSvsLInLPMFastWake                                *
    1107            ;*                                                                           *
    1108            ;*   Regs Modified     : SP,SR                                               *
MSP430 Assembler PC v15.12.3 Mon Oct 17 14:33:07 2016

Tools Copyright (c) 2003-2015 Texas Instruments Incorporated
C:\Users\madis\AppData\Local\Temp\027322                             PAGE   23

    1109            ;*   Regs Used         : SP,SR                                               *
    1110            ;*   Local Frame Size  : 0 Args + 0 Auto + 0 Save = 0 byte                   *
    1111            ;*****************************************************************************
    1112 000000       PMM_enableSvsLInLPMFastWake:
    1113            ;* --------------------------------------------------------------------------*
    1114                    .dwcfi  cfa_offset, 4
    1115                    .dwcfi  save_reg_to_mem, 16, -4
    1116                    .dwpsn  file "../MSP430F5xx_6xx/pmm.c",line 202,column 5,is_stmt,isa 0
    1117 000000 40F2          MOV.B     #165,&0x121           ; [] |202| 
         000002 00A5 
         000004 0121 
    1118                    .dwpsn  file "../MSP430F5xx_6xx/pmm.c",line 203,column 5,is_stmt,isa 0
    1119 000006 D0B2          OR.W      #2064,&0x126          ; [] |203| 
         000008 0810 
         00000a 0126 
    1120                    .dwpsn  file "../MSP430F5xx_6xx/pmm.c",line 204,column 5,is_stmt,isa 0
    1121 00000c F0B2          AND.W     #65407,&0x126         ; [] |204| 
         00000e FF7F 
         000010 0126 
    1122                    .dwpsn  file "../MSP430F5xx_6xx/pmm.c",line 205,column 5,is_stmt,isa 0
    1123 000012 43C2          MOV.B     #0,&0x121             ; [] |205| 
         000014 0121 
    1124                    .dwpsn  file "../MSP430F5xx_6xx/pmm.c",line 206,column 1,is_stmt,isa 0
    1125            $C$DW$44        .dwtag  DW_TAG_TI_branch
    1126                    .dwattr $C$DW$44, DW_AT_low_pc(0x00)
    1127                    .dwattr $C$DW$44, DW_AT_TI_return
    1128            
    1129 000016 0110          RETA      ; [] 
    1130                    ; [] 
    1131                    .dwattr $C$DW$43, DW_AT_TI_end_file("../MSP430F5xx_6xx/pmm.c")
    1132                    .dwattr $C$DW$43, DW_AT_TI_end_line(0xce)
    1133                    .dwattr $C$DW$43, DW_AT_TI_end_column(0x01)
    1134                    .dwendentry
    1135                    .dwendtag $C$DW$43
    1136            
    1137 000000               .sect   ".text:PMM_enableSvsLInLPMSlowWake"
    1138                    .clink
    1139                    .global PMM_enableSvsLInLPMSlowWake
    1140            
    1141            $C$DW$45        .dwtag  DW_TAG_subprogram
    1142                    .dwattr $C$DW$45, DW_AT_name("PMM_enableSvsLInLPMSlowWake")
    1143                    .dwattr $C$DW$45, DW_AT_low_pc(PMM_enableSvsLInLPMSlowWake)
    1144                    .dwattr $C$DW$45, DW_AT_high_pc(0x00)
    1145                    .dwattr $C$DW$45, DW_AT_TI_symbol_name("PMM_enableSvsLInLPMSlowWake")
    1146                    .dwattr $C$DW$45, DW_AT_external
    1147                    .dwattr $C$DW$45, DW_AT_TI_begin_file("../MSP430F5xx_6xx/pmm.c")
    1148                    .dwattr $C$DW$45, DW_AT_TI_begin_line(0xd0)
    1149                    .dwattr $C$DW$45, DW_AT_TI_begin_column(0x06)
    1150                    .dwattr $C$DW$45, DW_AT_decl_file("../MSP430F5xx_6xx/pmm.c")
    1151                    .dwattr $C$DW$45, DW_AT_decl_line(0xd0)
    1152                    .dwattr $C$DW$45, DW_AT_decl_column(0x06)
    1153                    .dwattr $C$DW$45, DW_AT_TI_max_frame_size(0x04)
    1154                    .dwpsn  file "../MSP430F5xx_6xx/pmm.c",line 209,column 1,is_stmt,address PMM_enableSvsLInLPMSl
    1155            
    1156                    .dwfde $C$DW$CIE, PMM_enableSvsLInLPMSlowWake
MSP430 Assembler PC v15.12.3 Mon Oct 17 14:33:07 2016

Tools Copyright (c) 2003-2015 Texas Instruments Incorporated
C:\Users\madis\AppData\Local\Temp\027322                             PAGE   24

    1157            
    1158            ;*****************************************************************************
    1159            ;* FUNCTION NAME: PMM_enableSvsLInLPMSlowWake                                *
    1160            ;*                                                                           *
    1161            ;*   Regs Modified     : SP,SR                                               *
    1162            ;*   Regs Used         : SP,SR                                               *
    1163            ;*   Local Frame Size  : 0 Args + 0 Auto + 0 Save = 0 byte                   *
    1164            ;*****************************************************************************
    1165 000000       PMM_enableSvsLInLPMSlowWake:
    1166            ;* --------------------------------------------------------------------------*
    1167                    .dwcfi  cfa_offset, 4
    1168                    .dwcfi  save_reg_to_mem, 16, -4
    1169                    .dwpsn  file "../MSP430F5xx_6xx/pmm.c",line 210,column 5,is_stmt,isa 0
    1170 000000 40F2          MOV.B     #165,&0x121           ; [] |210| 
         000002 00A5 
         000004 0121 
    1171                    .dwpsn  file "../MSP430F5xx_6xx/pmm.c",line 211,column 5,is_stmt,isa 0
    1172 000006 D0B2          OR.W      #16,&0x126            ; [] |211| 
         000008 0010 
         00000a 0126 
    1173                    .dwpsn  file "../MSP430F5xx_6xx/pmm.c",line 212,column 5,is_stmt,isa 0
    1174 00000c F0B2          AND.W     #63359,&0x126         ; [] |212| 
         00000e F77F 
         000010 0126 
    1175                    .dwpsn  file "../MSP430F5xx_6xx/pmm.c",line 213,column 5,is_stmt,isa 0
    1176 000012 43C2          MOV.B     #0,&0x121             ; [] |213| 
         000014 0121 
    1177                    .dwpsn  file "../MSP430F5xx_6xx/pmm.c",line 214,column 1,is_stmt,isa 0
    1178            $C$DW$46        .dwtag  DW_TAG_TI_branch
    1179                    .dwattr $C$DW$46, DW_AT_low_pc(0x00)
    1180                    .dwattr $C$DW$46, DW_AT_TI_return
    1181            
    1182 000016 0110          RETA      ; [] 
    1183                    ; [] 
    1184                    .dwattr $C$DW$45, DW_AT_TI_end_file("../MSP430F5xx_6xx/pmm.c")
    1185                    .dwattr $C$DW$45, DW_AT_TI_end_line(0xd6)
    1186                    .dwattr $C$DW$45, DW_AT_TI_end_column(0x01)
    1187                    .dwendentry
    1188                    .dwendtag $C$DW$45
    1189            
    1190 000000               .sect   ".text:PMM_disableSvsLInLPMFastWake"
    1191                    .clink
    1192                    .global PMM_disableSvsLInLPMFastWake
    1193            
    1194            $C$DW$47        .dwtag  DW_TAG_subprogram
    1195                    .dwattr $C$DW$47, DW_AT_name("PMM_disableSvsLInLPMFastWake")
    1196                    .dwattr $C$DW$47, DW_AT_low_pc(PMM_disableSvsLInLPMFastWake)
    1197                    .dwattr $C$DW$47, DW_AT_high_pc(0x00)
    1198                    .dwattr $C$DW$47, DW_AT_TI_symbol_name("PMM_disableSvsLInLPMFastWake")
    1199                    .dwattr $C$DW$47, DW_AT_external
    1200                    .dwattr $C$DW$47, DW_AT_TI_begin_file("../MSP430F5xx_6xx/pmm.c")
    1201                    .dwattr $C$DW$47, DW_AT_TI_begin_line(0xd8)
    1202                    .dwattr $C$DW$47, DW_AT_TI_begin_column(0x06)
    1203                    .dwattr $C$DW$47, DW_AT_decl_file("../MSP430F5xx_6xx/pmm.c")
    1204                    .dwattr $C$DW$47, DW_AT_decl_line(0xd8)
MSP430 Assembler PC v15.12.3 Mon Oct 17 14:33:07 2016

Tools Copyright (c) 2003-2015 Texas Instruments Incorporated
C:\Users\madis\AppData\Local\Temp\027322                             PAGE   25

    1205                    .dwattr $C$DW$47, DW_AT_decl_column(0x06)
    1206                    .dwattr $C$DW$47, DW_AT_TI_max_frame_size(0x04)
    1207                    .dwpsn  file "../MSP430F5xx_6xx/pmm.c",line 217,column 1,is_stmt,address PMM_disableSvsLInLPMF
    1208            
    1209                    .dwfde $C$DW$CIE, PMM_disableSvsLInLPMFastWake
    1210            
    1211            ;*****************************************************************************
    1212            ;* FUNCTION NAME: PMM_disableSvsLInLPMFastWake                               *
    1213            ;*                                                                           *
    1214            ;*   Regs Modified     : SP,SR                                               *
    1215            ;*   Regs Used         : SP,SR                                               *
    1216            ;*   Local Frame Size  : 0 Args + 0 Auto + 0 Save = 0 byte                   *
    1217            ;*****************************************************************************
    1218 000000       PMM_disableSvsLInLPMFastWake:
    1219            ;* --------------------------------------------------------------------------*
    1220                    .dwcfi  cfa_offset, 4
    1221                    .dwcfi  save_reg_to_mem, 16, -4
    1222                    .dwpsn  file "../MSP430F5xx_6xx/pmm.c",line 218,column 5,is_stmt,isa 0
    1223 000000 40F2          MOV.B     #165,&0x121           ; [] |218| 
         000002 00A5 
         000004 0121 
    1224                    .dwpsn  file "../MSP430F5xx_6xx/pmm.c",line 219,column 5,is_stmt,isa 0
    1225 000006 D0B2          OR.W      #2048,&0x126          ; [] |219| 
         000008 0800 
         00000a 0126 
    1226                    .dwpsn  file "../MSP430F5xx_6xx/pmm.c",line 220,column 5,is_stmt,isa 0
    1227 00000c F0B2          AND.W     #65391,&0x126         ; [] |220| 
         00000e FF6F 
         000010 0126 
    1228                    .dwpsn  file "../MSP430F5xx_6xx/pmm.c",line 221,column 5,is_stmt,isa 0
    1229 000012 43C2          MOV.B     #0,&0x121             ; [] |221| 
         000014 0121 
    1230                    .dwpsn  file "../MSP430F5xx_6xx/pmm.c",line 222,column 1,is_stmt,isa 0
    1231            $C$DW$48        .dwtag  DW_TAG_TI_branch
    1232                    .dwattr $C$DW$48, DW_AT_low_pc(0x00)
    1233                    .dwattr $C$DW$48, DW_AT_TI_return
    1234            
    1235 000016 0110          RETA      ; [] 
    1236                    ; [] 
    1237                    .dwattr $C$DW$47, DW_AT_TI_end_file("../MSP430F5xx_6xx/pmm.c")
    1238                    .dwattr $C$DW$47, DW_AT_TI_end_line(0xde)
    1239                    .dwattr $C$DW$47, DW_AT_TI_end_column(0x01)
    1240                    .dwendentry
    1241                    .dwendtag $C$DW$47
    1242            
    1243 000000               .sect   ".text:PMM_disableSvsLInLPMSlowWake"
    1244                    .clink
    1245                    .global PMM_disableSvsLInLPMSlowWake
    1246            
    1247            $C$DW$49        .dwtag  DW_TAG_subprogram
    1248                    .dwattr $C$DW$49, DW_AT_name("PMM_disableSvsLInLPMSlowWake")
    1249                    .dwattr $C$DW$49, DW_AT_low_pc(PMM_disableSvsLInLPMSlowWake)
    1250                    .dwattr $C$DW$49, DW_AT_high_pc(0x00)
    1251                    .dwattr $C$DW$49, DW_AT_TI_symbol_name("PMM_disableSvsLInLPMSlowWake")
    1252                    .dwattr $C$DW$49, DW_AT_external
MSP430 Assembler PC v15.12.3 Mon Oct 17 14:33:07 2016

Tools Copyright (c) 2003-2015 Texas Instruments Incorporated
C:\Users\madis\AppData\Local\Temp\027322                             PAGE   26

    1253                    .dwattr $C$DW$49, DW_AT_TI_begin_file("../MSP430F5xx_6xx/pmm.c")
    1254                    .dwattr $C$DW$49, DW_AT_TI_begin_line(0xe0)
    1255                    .dwattr $C$DW$49, DW_AT_TI_begin_column(0x06)
    1256                    .dwattr $C$DW$49, DW_AT_decl_file("../MSP430F5xx_6xx/pmm.c")
    1257                    .dwattr $C$DW$49, DW_AT_decl_line(0xe0)
    1258                    .dwattr $C$DW$49, DW_AT_decl_column(0x06)
    1259                    .dwattr $C$DW$49, DW_AT_TI_max_frame_size(0x04)
    1260                    .dwpsn  file "../MSP430F5xx_6xx/pmm.c",line 225,column 1,is_stmt,address PMM_disableSvsLInLPMS
    1261            
    1262                    .dwfde $C$DW$CIE, PMM_disableSvsLInLPMSlowWake
    1263            
    1264            ;*****************************************************************************
    1265            ;* FUNCTION NAME: PMM_disableSvsLInLPMSlowWake                               *
    1266            ;*                                                                           *
    1267            ;*   Regs Modified     : SP,SR                                               *
    1268            ;*   Regs Used         : SP,SR                                               *
    1269            ;*   Local Frame Size  : 0 Args + 0 Auto + 0 Save = 0 byte                   *
    1270            ;*****************************************************************************
    1271 000000       PMM_disableSvsLInLPMSlowWake:
    1272            ;* --------------------------------------------------------------------------*
    1273                    .dwcfi  cfa_offset, 4
    1274                    .dwcfi  save_reg_to_mem, 16, -4
    1275                    .dwpsn  file "../MSP430F5xx_6xx/pmm.c",line 226,column 5,is_stmt,isa 0
    1276 000000 40F2          MOV.B     #165,&0x121           ; [] |226| 
         000002 00A5 
         000004 0121 
    1277                    .dwpsn  file "../MSP430F5xx_6xx/pmm.c",line 227,column 5,is_stmt,isa 0
    1278 000006 F0B2          AND.W     #63343,&0x126         ; [] |227| 
         000008 F76F 
         00000a 0126 
    1279                    .dwpsn  file "../MSP430F5xx_6xx/pmm.c",line 228,column 5,is_stmt,isa 0
    1280 00000c 43C2          MOV.B     #0,&0x121             ; [] |228| 
         00000e 0121 
    1281                    .dwpsn  file "../MSP430F5xx_6xx/pmm.c",line 229,column 1,is_stmt,isa 0
    1282            $C$DW$50        .dwtag  DW_TAG_TI_branch
    1283                    .dwattr $C$DW$50, DW_AT_low_pc(0x00)
    1284                    .dwattr $C$DW$50, DW_AT_TI_return
    1285            
    1286 000010 0110          RETA      ; [] 
    1287                    ; [] 
    1288                    .dwattr $C$DW$49, DW_AT_TI_end_file("../MSP430F5xx_6xx/pmm.c")
    1289                    .dwattr $C$DW$49, DW_AT_TI_end_line(0xe5)
    1290                    .dwattr $C$DW$49, DW_AT_TI_end_column(0x01)
    1291                    .dwendentry
    1292                    .dwendtag $C$DW$49
    1293            
    1294 000000               .sect   ".text:PMM_enableSvsHInLPMNormPerf"
    1295                    .clink
    1296                    .global PMM_enableSvsHInLPMNormPerf
    1297            
    1298            $C$DW$51        .dwtag  DW_TAG_subprogram
    1299                    .dwattr $C$DW$51, DW_AT_name("PMM_enableSvsHInLPMNormPerf")
    1300                    .dwattr $C$DW$51, DW_AT_low_pc(PMM_enableSvsHInLPMNormPerf)
    1301                    .dwattr $C$DW$51, DW_AT_high_pc(0x00)
    1302                    .dwattr $C$DW$51, DW_AT_TI_symbol_name("PMM_enableSvsHInLPMNormPerf")
MSP430 Assembler PC v15.12.3 Mon Oct 17 14:33:07 2016

Tools Copyright (c) 2003-2015 Texas Instruments Incorporated
C:\Users\madis\AppData\Local\Temp\027322                             PAGE   27

    1303                    .dwattr $C$DW$51, DW_AT_external
    1304                    .dwattr $C$DW$51, DW_AT_TI_begin_file("../MSP430F5xx_6xx/pmm.c")
    1305                    .dwattr $C$DW$51, DW_AT_TI_begin_line(0xe7)
    1306                    .dwattr $C$DW$51, DW_AT_TI_begin_column(0x06)
    1307                    .dwattr $C$DW$51, DW_AT_decl_file("../MSP430F5xx_6xx/pmm.c")
    1308                    .dwattr $C$DW$51, DW_AT_decl_line(0xe7)
    1309                    .dwattr $C$DW$51, DW_AT_decl_column(0x06)
    1310                    .dwattr $C$DW$51, DW_AT_TI_max_frame_size(0x04)
    1311                    .dwpsn  file "../MSP430F5xx_6xx/pmm.c",line 232,column 1,is_stmt,address PMM_enableSvsHInLPMNo
    1312            
    1313                    .dwfde $C$DW$CIE, PMM_enableSvsHInLPMNormPerf
    1314            
    1315            ;*****************************************************************************
    1316            ;* FUNCTION NAME: PMM_enableSvsHInLPMNormPerf                                *
    1317            ;*                                                                           *
    1318            ;*   Regs Modified     : SP,SR                                               *
    1319            ;*   Regs Used         : SP,SR                                               *
    1320            ;*   Local Frame Size  : 0 Args + 0 Auto + 0 Save = 0 byte                   *
    1321            ;*****************************************************************************
    1322 000000       PMM_enableSvsHInLPMNormPerf:
    1323            ;* --------------------------------------------------------------------------*
    1324                    .dwcfi  cfa_offset, 4
    1325                    .dwcfi  save_reg_to_mem, 16, -4
    1326                    .dwpsn  file "../MSP430F5xx_6xx/pmm.c",line 233,column 5,is_stmt,isa 0
    1327 000000 40F2          MOV.B     #165,&0x121           ; [] |233| 
         000002 00A5 
         000004 0121 
    1328                    .dwpsn  file "../MSP430F5xx_6xx/pmm.c",line 234,column 5,is_stmt,isa 0
    1329 000006 D0B2          OR.W      #16,&0x124            ; [] |234| 
         000008 0010 
         00000a 0124 
    1330                    .dwpsn  file "../MSP430F5xx_6xx/pmm.c",line 235,column 5,is_stmt,isa 0
    1331 00000c F0B2          AND.W     #63359,&0x124         ; [] |235| 
         00000e F77F 
         000010 0124 
    1332                    .dwpsn  file "../MSP430F5xx_6xx/pmm.c",line 236,column 5,is_stmt,isa 0
    1333 000012 43C2          MOV.B     #0,&0x121             ; [] |236| 
         000014 0121 
    1334                    .dwpsn  file "../MSP430F5xx_6xx/pmm.c",line 237,column 1,is_stmt,isa 0
    1335            $C$DW$52        .dwtag  DW_TAG_TI_branch
    1336                    .dwattr $C$DW$52, DW_AT_low_pc(0x00)
    1337                    .dwattr $C$DW$52, DW_AT_TI_return
    1338            
    1339 000016 0110          RETA      ; [] 
    1340                    ; [] 
    1341                    .dwattr $C$DW$51, DW_AT_TI_end_file("../MSP430F5xx_6xx/pmm.c")
    1342                    .dwattr $C$DW$51, DW_AT_TI_end_line(0xed)
    1343                    .dwattr $C$DW$51, DW_AT_TI_end_column(0x01)
    1344                    .dwendentry
    1345                    .dwendtag $C$DW$51
    1346            
    1347 000000               .sect   ".text:PMM_enableSvsHInLPMFullPerf"
    1348                    .clink
    1349                    .global PMM_enableSvsHInLPMFullPerf
    1350            
MSP430 Assembler PC v15.12.3 Mon Oct 17 14:33:07 2016

Tools Copyright (c) 2003-2015 Texas Instruments Incorporated
C:\Users\madis\AppData\Local\Temp\027322                             PAGE   28

    1351            $C$DW$53        .dwtag  DW_TAG_subprogram
    1352                    .dwattr $C$DW$53, DW_AT_name("PMM_enableSvsHInLPMFullPerf")
    1353                    .dwattr $C$DW$53, DW_AT_low_pc(PMM_enableSvsHInLPMFullPerf)
    1354                    .dwattr $C$DW$53, DW_AT_high_pc(0x00)
    1355                    .dwattr $C$DW$53, DW_AT_TI_symbol_name("PMM_enableSvsHInLPMFullPerf")
    1356                    .dwattr $C$DW$53, DW_AT_external
    1357                    .dwattr $C$DW$53, DW_AT_TI_begin_file("../MSP430F5xx_6xx/pmm.c")
    1358                    .dwattr $C$DW$53, DW_AT_TI_begin_line(0xef)
    1359                    .dwattr $C$DW$53, DW_AT_TI_begin_column(0x06)
    1360                    .dwattr $C$DW$53, DW_AT_decl_file("../MSP430F5xx_6xx/pmm.c")
    1361                    .dwattr $C$DW$53, DW_AT_decl_line(0xef)
    1362                    .dwattr $C$DW$53, DW_AT_decl_column(0x06)
    1363                    .dwattr $C$DW$53, DW_AT_TI_max_frame_size(0x04)
    1364                    .dwpsn  file "../MSP430F5xx_6xx/pmm.c",line 240,column 1,is_stmt,address PMM_enableSvsHInLPMFu
    1365            
    1366                    .dwfde $C$DW$CIE, PMM_enableSvsHInLPMFullPerf
    1367            
    1368            ;*****************************************************************************
    1369            ;* FUNCTION NAME: PMM_enableSvsHInLPMFullPerf                                *
    1370            ;*                                                                           *
    1371            ;*   Regs Modified     : SP,SR                                               *
    1372            ;*   Regs Used         : SP,SR                                               *
    1373            ;*   Local Frame Size  : 0 Args + 0 Auto + 0 Save = 0 byte                   *
    1374            ;*****************************************************************************
    1375 000000       PMM_enableSvsHInLPMFullPerf:
    1376            ;* --------------------------------------------------------------------------*
    1377                    .dwcfi  cfa_offset, 4
    1378                    .dwcfi  save_reg_to_mem, 16, -4
    1379                    .dwpsn  file "../MSP430F5xx_6xx/pmm.c",line 241,column 5,is_stmt,isa 0
    1380 000000 40F2          MOV.B     #165,&0x121           ; [] |241| 
         000002 00A5 
         000004 0121 
    1381                    .dwpsn  file "../MSP430F5xx_6xx/pmm.c",line 242,column 5,is_stmt,isa 0
    1382 000006 D0B2          OR.W      #2064,&0x124          ; [] |242| 
         000008 0810 
         00000a 0124 
    1383                    .dwpsn  file "../MSP430F5xx_6xx/pmm.c",line 243,column 5,is_stmt,isa 0
    1384 00000c F0B2          AND.W     #65407,&0x124         ; [] |243| 
         00000e FF7F 
         000010 0124 
    1385                    .dwpsn  file "../MSP430F5xx_6xx/pmm.c",line 244,column 5,is_stmt,isa 0
    1386 000012 43C2          MOV.B     #0,&0x121             ; [] |244| 
         000014 0121 
    1387                    .dwpsn  file "../MSP430F5xx_6xx/pmm.c",line 245,column 1,is_stmt,isa 0
    1388            $C$DW$54        .dwtag  DW_TAG_TI_branch
    1389                    .dwattr $C$DW$54, DW_AT_low_pc(0x00)
    1390                    .dwattr $C$DW$54, DW_AT_TI_return
    1391            
    1392 000016 0110          RETA      ; [] 
    1393                    ; [] 
    1394                    .dwattr $C$DW$53, DW_AT_TI_end_file("../MSP430F5xx_6xx/pmm.c")
    1395                    .dwattr $C$DW$53, DW_AT_TI_end_line(0xf5)
    1396                    .dwattr $C$DW$53, DW_AT_TI_end_column(0x01)
    1397                    .dwendentry
    1398                    .dwendtag $C$DW$53
MSP430 Assembler PC v15.12.3 Mon Oct 17 14:33:07 2016

Tools Copyright (c) 2003-2015 Texas Instruments Incorporated
C:\Users\madis\AppData\Local\Temp\027322                             PAGE   29

    1399            
    1400 000000               .sect   ".text:PMM_disableSvsHInLPMNormPerf"
    1401                    .clink
    1402                    .global PMM_disableSvsHInLPMNormPerf
    1403            
    1404            $C$DW$55        .dwtag  DW_TAG_subprogram
    1405                    .dwattr $C$DW$55, DW_AT_name("PMM_disableSvsHInLPMNormPerf")
    1406                    .dwattr $C$DW$55, DW_AT_low_pc(PMM_disableSvsHInLPMNormPerf)
    1407                    .dwattr $C$DW$55, DW_AT_high_pc(0x00)
    1408                    .dwattr $C$DW$55, DW_AT_TI_symbol_name("PMM_disableSvsHInLPMNormPerf")
    1409                    .dwattr $C$DW$55, DW_AT_external
    1410                    .dwattr $C$DW$55, DW_AT_TI_begin_file("../MSP430F5xx_6xx/pmm.c")
    1411                    .dwattr $C$DW$55, DW_AT_TI_begin_line(0xf7)
    1412                    .dwattr $C$DW$55, DW_AT_TI_begin_column(0x06)
    1413                    .dwattr $C$DW$55, DW_AT_decl_file("../MSP430F5xx_6xx/pmm.c")
    1414                    .dwattr $C$DW$55, DW_AT_decl_line(0xf7)
    1415                    .dwattr $C$DW$55, DW_AT_decl_column(0x06)
    1416                    .dwattr $C$DW$55, DW_AT_TI_max_frame_size(0x04)
    1417                    .dwpsn  file "../MSP430F5xx_6xx/pmm.c",line 248,column 1,is_stmt,address PMM_disableSvsHInLPMN
    1418            
    1419                    .dwfde $C$DW$CIE, PMM_disableSvsHInLPMNormPerf
    1420            
    1421            ;*****************************************************************************
    1422            ;* FUNCTION NAME: PMM_disableSvsHInLPMNormPerf                               *
    1423            ;*                                                                           *
    1424            ;*   Regs Modified     : SP,SR                                               *
    1425            ;*   Regs Used         : SP,SR                                               *
    1426            ;*   Local Frame Size  : 0 Args + 0 Auto + 0 Save = 0 byte                   *
    1427            ;*****************************************************************************
    1428 000000       PMM_disableSvsHInLPMNormPerf:
    1429            ;* --------------------------------------------------------------------------*
    1430                    .dwcfi  cfa_offset, 4
    1431                    .dwcfi  save_reg_to_mem, 16, -4
    1432                    .dwpsn  file "../MSP430F5xx_6xx/pmm.c",line 249,column 5,is_stmt,isa 0
    1433 000000 40F2          MOV.B     #165,&0x121           ; [] |249| 
         000002 00A5 
         000004 0121 
    1434                    .dwpsn  file "../MSP430F5xx_6xx/pmm.c",line 250,column 5,is_stmt,isa 0
    1435 000006 F0B2          AND.W     #63343,&0x124         ; [] |250| 
         000008 F76F 
         00000a 0124 
    1436                    .dwpsn  file "../MSP430F5xx_6xx/pmm.c",line 251,column 5,is_stmt,isa 0
    1437 00000c 43C2          MOV.B     #0,&0x121             ; [] |251| 
         00000e 0121 
    1438                    .dwpsn  file "../MSP430F5xx_6xx/pmm.c",line 252,column 1,is_stmt,isa 0
    1439            $C$DW$56        .dwtag  DW_TAG_TI_branch
    1440                    .dwattr $C$DW$56, DW_AT_low_pc(0x00)
    1441                    .dwattr $C$DW$56, DW_AT_TI_return
    1442            
    1443 000010 0110          RETA      ; [] 
    1444                    ; [] 
    1445                    .dwattr $C$DW$55, DW_AT_TI_end_file("../MSP430F5xx_6xx/pmm.c")
    1446                    .dwattr $C$DW$55, DW_AT_TI_end_line(0xfc)
    1447                    .dwattr $C$DW$55, DW_AT_TI_end_column(0x01)
    1448                    .dwendentry
MSP430 Assembler PC v15.12.3 Mon Oct 17 14:33:07 2016

Tools Copyright (c) 2003-2015 Texas Instruments Incorporated
C:\Users\madis\AppData\Local\Temp\027322                             PAGE   30

    1449                    .dwendtag $C$DW$55
    1450            
    1451 000000               .sect   ".text:PMM_disableSvsHInLPMFullPerf"
    1452                    .clink
    1453                    .global PMM_disableSvsHInLPMFullPerf
    1454            
    1455            $C$DW$57        .dwtag  DW_TAG_subprogram
    1456                    .dwattr $C$DW$57, DW_AT_name("PMM_disableSvsHInLPMFullPerf")
    1457                    .dwattr $C$DW$57, DW_AT_low_pc(PMM_disableSvsHInLPMFullPerf)
    1458                    .dwattr $C$DW$57, DW_AT_high_pc(0x00)
    1459                    .dwattr $C$DW$57, DW_AT_TI_symbol_name("PMM_disableSvsHInLPMFullPerf")
    1460                    .dwattr $C$DW$57, DW_AT_external
    1461                    .dwattr $C$DW$57, DW_AT_TI_begin_file("../MSP430F5xx_6xx/pmm.c")
    1462                    .dwattr $C$DW$57, DW_AT_TI_begin_line(0xfe)
    1463                    .dwattr $C$DW$57, DW_AT_TI_begin_column(0x06)
    1464                    .dwattr $C$DW$57, DW_AT_decl_file("../MSP430F5xx_6xx/pmm.c")
    1465                    .dwattr $C$DW$57, DW_AT_decl_line(0xfe)
    1466                    .dwattr $C$DW$57, DW_AT_decl_column(0x06)
    1467                    .dwattr $C$DW$57, DW_AT_TI_max_frame_size(0x04)
    1468                    .dwpsn  file "../MSP430F5xx_6xx/pmm.c",line 255,column 1,is_stmt,address PMM_disableSvsHInLPMF
    1469            
    1470                    .dwfde $C$DW$CIE, PMM_disableSvsHInLPMFullPerf
    1471            
    1472            ;*****************************************************************************
    1473            ;* FUNCTION NAME: PMM_disableSvsHInLPMFullPerf                               *
    1474            ;*                                                                           *
    1475            ;*   Regs Modified     : SP,SR                                               *
    1476            ;*   Regs Used         : SP,SR                                               *
    1477            ;*   Local Frame Size  : 0 Args + 0 Auto + 0 Save = 0 byte                   *
    1478            ;*****************************************************************************
    1479 000000       PMM_disableSvsHInLPMFullPerf:
    1480            ;* --------------------------------------------------------------------------*
    1481                    .dwcfi  cfa_offset, 4
    1482                    .dwcfi  save_reg_to_mem, 16, -4
    1483                    .dwpsn  file "../MSP430F5xx_6xx/pmm.c",line 256,column 5,is_stmt,isa 0
    1484 000000 40F2          MOV.B     #165,&0x121           ; [] |256| 
         000002 00A5 
         000004 0121 
    1485                    .dwpsn  file "../MSP430F5xx_6xx/pmm.c",line 257,column 5,is_stmt,isa 0
    1486 000006 D0B2          OR.W      #2048,&0x124          ; [] |257| 
         000008 0800 
         00000a 0124 
    1487                    .dwpsn  file "../MSP430F5xx_6xx/pmm.c",line 258,column 5,is_stmt,isa 0
    1488 00000c F0B2          AND.W     #65391,&0x124         ; [] |258| 
         00000e FF6F 
         000010 0124 
    1489                    .dwpsn  file "../MSP430F5xx_6xx/pmm.c",line 259,column 5,is_stmt,isa 0
    1490 000012 43C2          MOV.B     #0,&0x121             ; [] |259| 
         000014 0121 
    1491                    .dwpsn  file "../MSP430F5xx_6xx/pmm.c",line 260,column 1,is_stmt,isa 0
    1492            $C$DW$58        .dwtag  DW_TAG_TI_branch
    1493                    .dwattr $C$DW$58, DW_AT_low_pc(0x00)
    1494                    .dwattr $C$DW$58, DW_AT_TI_return
    1495            
    1496 000016 0110          RETA      ; [] 
MSP430 Assembler PC v15.12.3 Mon Oct 17 14:33:07 2016

Tools Copyright (c) 2003-2015 Texas Instruments Incorporated
C:\Users\madis\AppData\Local\Temp\027322                             PAGE   31

    1497                    ; [] 
    1498                    .dwattr $C$DW$57, DW_AT_TI_end_file("../MSP430F5xx_6xx/pmm.c")
    1499                    .dwattr $C$DW$57, DW_AT_TI_end_line(0x104)
    1500                    .dwattr $C$DW$57, DW_AT_TI_end_column(0x01)
    1501                    .dwendentry
    1502                    .dwendtag $C$DW$57
    1503            
    1504 000000               .sect   ".text:PMM_optimizeSvsLInLPMFastWake"
    1505                    .clink
    1506                    .global PMM_optimizeSvsLInLPMFastWake
    1507            
    1508            $C$DW$59        .dwtag  DW_TAG_subprogram
    1509                    .dwattr $C$DW$59, DW_AT_name("PMM_optimizeSvsLInLPMFastWake")
    1510                    .dwattr $C$DW$59, DW_AT_low_pc(PMM_optimizeSvsLInLPMFastWake)
    1511                    .dwattr $C$DW$59, DW_AT_high_pc(0x00)
    1512                    .dwattr $C$DW$59, DW_AT_TI_symbol_name("PMM_optimizeSvsLInLPMFastWake")
    1513                    .dwattr $C$DW$59, DW_AT_external
    1514                    .dwattr $C$DW$59, DW_AT_TI_begin_file("../MSP430F5xx_6xx/pmm.c")
    1515                    .dwattr $C$DW$59, DW_AT_TI_begin_line(0x106)
    1516                    .dwattr $C$DW$59, DW_AT_TI_begin_column(0x06)
    1517                    .dwattr $C$DW$59, DW_AT_decl_file("../MSP430F5xx_6xx/pmm.c")
    1518                    .dwattr $C$DW$59, DW_AT_decl_line(0x106)
    1519                    .dwattr $C$DW$59, DW_AT_decl_column(0x06)
    1520                    .dwattr $C$DW$59, DW_AT_TI_max_frame_size(0x04)
    1521                    .dwpsn  file "../MSP430F5xx_6xx/pmm.c",line 263,column 1,is_stmt,address PMM_optimizeSvsLInLPM
    1522            
    1523                    .dwfde $C$DW$CIE, PMM_optimizeSvsLInLPMFastWake
    1524            
    1525            ;*****************************************************************************
    1526            ;* FUNCTION NAME: PMM_optimizeSvsLInLPMFastWake                              *
    1527            ;*                                                                           *
    1528            ;*   Regs Modified     : SP                                                  *
    1529            ;*   Regs Used         : SP                                                  *
    1530            ;*   Local Frame Size  : 0 Args + 0 Auto + 0 Save = 0 byte                   *
    1531            ;*****************************************************************************
    1532 000000       PMM_optimizeSvsLInLPMFastWake:
    1533            ;* --------------------------------------------------------------------------*
    1534                    .dwcfi  cfa_offset, 4
    1535                    .dwcfi  save_reg_to_mem, 16, -4
    1536                    .dwpsn  file "../MSP430F5xx_6xx/pmm.c",line 265,column 5,is_stmt,isa 0
    1537 000000 40F2          MOV.B     #165,&0x121           ; [] |265| 
         000002 00A5 
         000004 0121 
    1538                    .dwpsn  file "../MSP430F5xx_6xx/pmm.c",line 266,column 5,is_stmt,isa 0
    1539 000006 D0B2          OR.W      #2192,&0x126          ; [] |266| 
         000008 0890 
         00000a 0126 
    1540                    .dwpsn  file "../MSP430F5xx_6xx/pmm.c",line 267,column 5,is_stmt,isa 0
    1541 00000c 43C2          MOV.B     #0,&0x121             ; [] |267| 
         00000e 0121 
    1542                    .dwpsn  file "../MSP430F5xx_6xx/pmm.c",line 268,column 1,is_stmt,isa 0
    1543            $C$DW$60        .dwtag  DW_TAG_TI_branch
    1544                    .dwattr $C$DW$60, DW_AT_low_pc(0x00)
    1545                    .dwattr $C$DW$60, DW_AT_TI_return
    1546            
MSP430 Assembler PC v15.12.3 Mon Oct 17 14:33:07 2016

Tools Copyright (c) 2003-2015 Texas Instruments Incorporated
C:\Users\madis\AppData\Local\Temp\027322                             PAGE   32

    1547 000010 0110          RETA      ; [] 
    1548                    ; [] 
    1549                    .dwattr $C$DW$59, DW_AT_TI_end_file("../MSP430F5xx_6xx/pmm.c")
    1550                    .dwattr $C$DW$59, DW_AT_TI_end_line(0x10c)
    1551                    .dwattr $C$DW$59, DW_AT_TI_end_column(0x01)
    1552                    .dwendentry
    1553                    .dwendtag $C$DW$59
    1554            
    1555 000000               .sect   ".text:PMM_optimizeSvsHInLPMFullPerf"
    1556                    .clink
    1557                    .global PMM_optimizeSvsHInLPMFullPerf
    1558            
    1559            $C$DW$61        .dwtag  DW_TAG_subprogram
    1560                    .dwattr $C$DW$61, DW_AT_name("PMM_optimizeSvsHInLPMFullPerf")
    1561                    .dwattr $C$DW$61, DW_AT_low_pc(PMM_optimizeSvsHInLPMFullPerf)
    1562                    .dwattr $C$DW$61, DW_AT_high_pc(0x00)
    1563                    .dwattr $C$DW$61, DW_AT_TI_symbol_name("PMM_optimizeSvsHInLPMFullPerf")
    1564                    .dwattr $C$DW$61, DW_AT_external
    1565                    .dwattr $C$DW$61, DW_AT_TI_begin_file("../MSP430F5xx_6xx/pmm.c")
    1566                    .dwattr $C$DW$61, DW_AT_TI_begin_line(0x10e)
    1567                    .dwattr $C$DW$61, DW_AT_TI_begin_column(0x06)
    1568                    .dwattr $C$DW$61, DW_AT_decl_file("../MSP430F5xx_6xx/pmm.c")
    1569                    .dwattr $C$DW$61, DW_AT_decl_line(0x10e)
    1570                    .dwattr $C$DW$61, DW_AT_decl_column(0x06)
    1571                    .dwattr $C$DW$61, DW_AT_TI_max_frame_size(0x04)
    1572                    .dwpsn  file "../MSP430F5xx_6xx/pmm.c",line 271,column 1,is_stmt,address PMM_optimizeSvsHInLPM
    1573            
    1574                    .dwfde $C$DW$CIE, PMM_optimizeSvsHInLPMFullPerf
    1575            
    1576            ;*****************************************************************************
    1577            ;* FUNCTION NAME: PMM_optimizeSvsHInLPMFullPerf                              *
    1578            ;*                                                                           *
    1579            ;*   Regs Modified     : SP                                                  *
    1580            ;*   Regs Used         : SP                                                  *
    1581            ;*   Local Frame Size  : 0 Args + 0 Auto + 0 Save = 0 byte                   *
    1582            ;*****************************************************************************
    1583 000000       PMM_optimizeSvsHInLPMFullPerf:
    1584            ;* --------------------------------------------------------------------------*
    1585                    .dwcfi  cfa_offset, 4
    1586                    .dwcfi  save_reg_to_mem, 16, -4
    1587                    .dwpsn  file "../MSP430F5xx_6xx/pmm.c",line 272,column 5,is_stmt,isa 0
    1588 000000 40F2          MOV.B     #165,&0x121           ; [] |272| 
         000002 00A5 
         000004 0121 
    1589                    .dwpsn  file "../MSP430F5xx_6xx/pmm.c",line 273,column 5,is_stmt,isa 0
    1590 000006 D0B2          OR.W      #2192,&0x124          ; [] |273| 
         000008 0890 
         00000a 0124 
    1591                    .dwpsn  file "../MSP430F5xx_6xx/pmm.c",line 274,column 5,is_stmt,isa 0
    1592 00000c 43C2          MOV.B     #0,&0x121             ; [] |274| 
         00000e 0121 
    1593                    .dwpsn  file "../MSP430F5xx_6xx/pmm.c",line 275,column 1,is_stmt,isa 0
    1594            $C$DW$62        .dwtag  DW_TAG_TI_branch
    1595                    .dwattr $C$DW$62, DW_AT_low_pc(0x00)
    1596                    .dwattr $C$DW$62, DW_AT_TI_return
MSP430 Assembler PC v15.12.3 Mon Oct 17 14:33:07 2016

Tools Copyright (c) 2003-2015 Texas Instruments Incorporated
C:\Users\madis\AppData\Local\Temp\027322                             PAGE   33

    1597            
    1598 000010 0110          RETA      ; [] 
    1599                    ; [] 
    1600                    .dwattr $C$DW$61, DW_AT_TI_end_file("../MSP430F5xx_6xx/pmm.c")
    1601                    .dwattr $C$DW$61, DW_AT_TI_end_line(0x113)
    1602                    .dwattr $C$DW$61, DW_AT_TI_end_column(0x01)
    1603                    .dwendentry
    1604                    .dwendtag $C$DW$61
    1605            
    1606 000000               .sect   ".text:PMM_setVCoreUp"
    1607                    .clink
    1608                    .global PMM_setVCoreUp
    1609            
    1610            $C$DW$63        .dwtag  DW_TAG_subprogram
    1611                    .dwattr $C$DW$63, DW_AT_name("PMM_setVCoreUp")
    1612                    .dwattr $C$DW$63, DW_AT_low_pc(PMM_setVCoreUp)
    1613                    .dwattr $C$DW$63, DW_AT_high_pc(0x00)
    1614                    .dwattr $C$DW$63, DW_AT_TI_symbol_name("PMM_setVCoreUp")
    1615                    .dwattr $C$DW$63, DW_AT_external
    1616                    .dwattr $C$DW$63, DW_AT_type(*$C$DW$T$36)
    1617                    .dwattr $C$DW$63, DW_AT_TI_begin_file("../MSP430F5xx_6xx/pmm.c")
    1618                    .dwattr $C$DW$63, DW_AT_TI_begin_line(0x115)
    1619                    .dwattr $C$DW$63, DW_AT_TI_begin_column(0x0a)
    1620                    .dwattr $C$DW$63, DW_AT_decl_file("../MSP430F5xx_6xx/pmm.c")
    1621                    .dwattr $C$DW$63, DW_AT_decl_line(0x115)
    1622                    .dwattr $C$DW$63, DW_AT_decl_column(0x0a)
    1623                    .dwattr $C$DW$63, DW_AT_TI_max_frame_size(0x0c)
    1624                    .dwpsn  file "../MSP430F5xx_6xx/pmm.c",line 277,column 39,is_stmt,address PMM_setVCoreUp,isa 0
    1625            
    1626                    .dwfde $C$DW$CIE, PMM_setVCoreUp
    1627            $C$DW$64        .dwtag  DW_TAG_formal_parameter
    1628                    .dwattr $C$DW$64, DW_AT_name("level")
    1629                    .dwattr $C$DW$64, DW_AT_TI_symbol_name("level")
    1630                    .dwattr $C$DW$64, DW_AT_type(*$C$DW$T$25)
    1631                    .dwattr $C$DW$64, DW_AT_location[DW_OP_reg12]
    1632            
    1633            
    1634            ;*****************************************************************************
    1635            ;* FUNCTION NAME: PMM_setVCoreUp                                             *
    1636            ;*                                                                           *
    1637            ;*   Regs Modified     : SP,SR,r9,r10,r11,r12,r13,r14,r15                    *
    1638            ;*   Regs Used         : SP,SR,r9,r10,r11,r12,r13,r14,r15                    *
    1639            ;*   Local Frame Size  : 0 Args + 0 Auto + 8 Save = 8 byte                   *
    1640            ;*****************************************************************************
    1641 000000       PMM_setVCoreUp:
    1642            ;* --------------------------------------------------------------------------*
    1643                    .dwcfi  cfa_offset, 4
    1644                    .dwcfi  save_reg_to_mem, 16, -4
    1645 000000 141A          PUSHM.A   #2,r10                ; [] 
    1646                    .dwcfi  save_reg_to_mem, 10, -8
    1647                    .dwcfi  save_reg_to_mem, 9, -12
    1648                    .dwcfi  cfa_offset, 12
    1649            ;* r12   assigned to level
    1650            $C$DW$65        .dwtag  DW_TAG_variable
    1651                    .dwattr $C$DW$65, DW_AT_name("level")
MSP430 Assembler PC v15.12.3 Mon Oct 17 14:33:07 2016

Tools Copyright (c) 2003-2015 Texas Instruments Incorporated
C:\Users\madis\AppData\Local\Temp\027322                             PAGE   34

    1652                    .dwattr $C$DW$65, DW_AT_TI_symbol_name("level")
    1653                    .dwattr $C$DW$65, DW_AT_type(*$C$DW$T$25)
    1654                    .dwattr $C$DW$65, DW_AT_location[DW_OP_reg12]
    1655            
    1656            ;* r11   assigned to PMMRIE_backup
    1657            $C$DW$66        .dwtag  DW_TAG_variable
    1658                    .dwattr $C$DW$66, DW_AT_name("PMMRIE_backup")
    1659                    .dwattr $C$DW$66, DW_AT_TI_symbol_name("PMMRIE_backup")
    1660                    .dwattr $C$DW$66, DW_AT_type(*$C$DW$T$11)
    1661                    .dwattr $C$DW$66, DW_AT_location[DW_OP_reg11]
    1662            
    1663            ;* r15   assigned to SVSMHCTL_backup
    1664            $C$DW$67        .dwtag  DW_TAG_variable
    1665                    .dwattr $C$DW$67, DW_AT_name("SVSMHCTL_backup")
    1666                    .dwattr $C$DW$67, DW_AT_TI_symbol_name("SVSMHCTL_backup")
    1667                    .dwattr $C$DW$67, DW_AT_type(*$C$DW$T$49)
    1668                    .dwattr $C$DW$67, DW_AT_location[DW_OP_reg15 DW_OP_piece 2 DW_OP_reg10 DW_OP_piece 2]
    1669            
    1670            ;* r13   assigned to SVSMLCTL_backup
    1671            $C$DW$68        .dwtag  DW_TAG_variable
    1672                    .dwattr $C$DW$68, DW_AT_name("SVSMLCTL_backup")
    1673                    .dwattr $C$DW$68, DW_AT_TI_symbol_name("SVSMLCTL_backup")
    1674                    .dwattr $C$DW$68, DW_AT_type(*$C$DW$T$49)
    1675                    .dwattr $C$DW$68, DW_AT_location[DW_OP_reg13 DW_OP_piece 2 DW_OP_reg9 DW_OP_piece 2]
    1676            
    1677                    .dwpsn  file "../MSP430F5xx_6xx/pmm.c",line 286,column 5,is_stmt,isa 0
    1678 000002 40F2          MOV.B     #165,&0x121           ; [] |286| 
         000004 00A5 
         000006 0121 
    1679                    .dwpsn  file "../MSP430F5xx_6xx/pmm.c",line 290,column 5,is_stmt,isa 0
    1680 000008 421B          MOV.W     &0x12e,r11            ; [] |290| 
         00000a 012E 
    1681                    .dwpsn  file "../MSP430F5xx_6xx/pmm.c",line 291,column 5,is_stmt,isa 0
    1682 00000c F0B2          AND.W     #52360,&0x12e         ; [] |291| 
         00000e CC88 
         000010 012E 
    1683                    .dwpsn  file "../MSP430F5xx_6xx/pmm.c",line 296,column 5,is_stmt,isa 0
    1684 000012 421F          MOV.W     &0x124,r15            ; [] |296| 
         000014 0124 
    1685 000016 430A          MOV.W     #0,r10                ; [] |296| 
    1686                    .dwpsn  file "../MSP430F5xx_6xx/pmm.c",line 297,column 5,is_stmt,isa 0
    1687 000018 421D          MOV.W     &0x126,r13            ; [] |297| 
         00001a 0126 
    1688 00001c 4309          MOV.W     #0,r9                 ; [] |297| 
    1689                    .dwpsn  file "../MSP430F5xx_6xx/pmm.c",line 300,column 5,is_stmt,isa 0
    1690 00001e 4382          MOV.W     #0,&0x12c             ; [] |300| 
         000020 012C 
    1691                    .dwpsn  file "../MSP430F5xx_6xx/pmm.c",line 303,column 5,is_stmt,isa 0
    1692 000022 4C4E          MOV.B     r12,r14               ; [] |303| 
    1693 000024 D03E          OR.W      #17408,r14            ; [] |303| 
         000026 4400 
    1694 000028 4E82          MOV.W     r14,&0x124            ; [] |303| 
         00002a 0124 
    1695            ;* --------------------------------------------------------------------------*
    1696            ;*   BEGIN LOOP $C$L1
MSP430 Assembler PC v15.12.3 Mon Oct 17 14:33:07 2016

Tools Copyright (c) 2003-2015 Texas Instruments Incorporated
C:\Users\madis\AppData\Local\Temp\027322                             PAGE   35

    1697            ;*
    1698            ;*   Loop source line                : 306
    1699            ;*   Loop closing brace source line  : 309
    1700            ;*   Known Minimum Trip Count        : 1
    1701            ;*   Known Maximum Trip Count        : 4294967295
    1702            ;*   Known Max Trip Count Factor     : 1
    1703            ;* --------------------------------------------------------------------------*
    1704 00002c       $C$L1:    
    1705                    .dwpsn  file "../MSP430F5xx_6xx/pmm.c",line 306,column 11,is_stmt,isa 0
    1706 00002c B0B2          BIT.W     #16,&0x12c            ; [] |306| 
         00002e 0010 
         000030 012C 
    1707 000032 27FC          JEQ       $C$L1                 ; [] |306| 
    1708                                                      ; [] |306| 
    1709            ;* --------------------------------------------------------------------------*
    1710                    .dwpsn  file "../MSP430F5xx_6xx/pmm.c",line 312,column 5,is_stmt,isa 0
    1711 000034 F0B2          AND.W     #65519,&0x12c         ; [] |312| 
         000036 FFEF 
         000038 012C 
    1712                    .dwpsn  file "../MSP430F5xx_6xx/pmm.c",line 315,column 5,is_stmt,isa 0
    1713 00003a B0B2          BIT.W     #32,&0x12c            ; [] |315| 
         00003c 0020 
         00003e 012C 
    1714 000040 203C          JNE       $C$L6                 ; [] |315| 
    1715                                                      ; [] |315| 
    1716            ;* --------------------------------------------------------------------------*
    1717                    .dwpsn  file "../MSP430F5xx_6xx/pmm.c",line 345,column 5,is_stmt,isa 0
    1718 000042 4C4E          MOV.B     r12,r14               ; [] |345| 
    1719 000044 1847          RPT #8 || RLAX.W r14 ; [] |345| 
         000046 5E0E 
    1720 000048 DE82          OR.W      r14,&0x124            ; [] |345| 
         00004a 0124 
    1721            ;* --------------------------------------------------------------------------*
    1722            ;*   BEGIN LOOP $C$L2
    1723            ;*
    1724            ;*   Loop source line                : 348
    1725            ;*   Loop closing brace source line  : 351
    1726            ;*   Known Minimum Trip Count        : 1
    1727            ;*   Known Maximum Trip Count        : 4294967295
    1728            ;*   Known Max Trip Count Factor     : 1
    1729            ;* --------------------------------------------------------------------------*
    1730 00004c       $C$L2:    
    1731                    .dwpsn  file "../MSP430F5xx_6xx/pmm.c",line 348,column 11,is_stmt,isa 0
    1732 00004c B0B2          BIT.W     #16,&0x12c            ; [] |348| 
         00004e 0010 
         000050 012C 
    1733 000052 27FC          JEQ       $C$L2                 ; [] |348| 
    1734                                                      ; [] |348| 
    1735            ;* --------------------------------------------------------------------------*
    1736                    .dwpsn  file "../MSP430F5xx_6xx/pmm.c",line 354,column 5,is_stmt,isa 0
    1737 000054 F0B2          AND.W     #65519,&0x12c         ; [] |354| 
         000056 FFEF 
         000058 012C 
    1738                    .dwpsn  file "../MSP430F5xx_6xx/pmm.c",line 357,column 5,is_stmt,isa 0
    1739 00005a 4CC2          MOV.B     r12,&0x120            ; [] |357| 
MSP430 Assembler PC v15.12.3 Mon Oct 17 14:33:07 2016

Tools Copyright (c) 2003-2015 Texas Instruments Incorporated
C:\Users\madis\AppData\Local\Temp\027322                             PAGE   36

         00005c 0120 
    1740                    .dwpsn  file "../MSP430F5xx_6xx/pmm.c",line 360,column 5,is_stmt,isa 0
    1741 00005e 4C4E          MOV.B     r12,r14               ; [] |360| 
    1742 000060 1847          RPT #8 || RLAX.W r14 ; [] |360| 
         000062 5E0E 
    1743 000064 4C4C          MOV.B     r12,r12               ; [] |360| 
    1744 000066 DE0C          OR.W      r14,r12               ; [] |360| 
    1745 000068 D03C          OR.W      #17408,r12            ; [] |360| 
         00006a 4400 
    1746 00006c 4C82          MOV.W     r12,&0x126            ; [] |360| 
         00006e 0126 
    1747            ;* --------------------------------------------------------------------------*
    1748            ;*   BEGIN LOOP $C$L3
    1749            ;*
    1750            ;*   Loop source line                : 364
    1751            ;*   Loop closing brace source line  : 367
    1752            ;*   Known Minimum Trip Count        : 1
    1753            ;*   Known Maximum Trip Count        : 4294967295
    1754            ;*   Known Max Trip Count Factor     : 1
    1755            ;* --------------------------------------------------------------------------*
    1756 000070       $C$L3:    
    1757                    .dwpsn  file "../MSP430F5xx_6xx/pmm.c",line 364,column 11,is_stmt,isa 0
    1758 000070 B392          BIT.W     #1,&0x12c             ; [] |364| 
         000072 012C 
    1759 000074 27FD          JEQ       $C$L3                 ; [] |364| 
    1760                                                      ; [] |364| 
    1761            ;* --------------------------------------------------------------------------*
    1762                    .dwpsn  file "../MSP430F5xx_6xx/pmm.c",line 370,column 5,is_stmt,isa 0
    1763 000076 C392          BIC.W     #1,&0x12c             ; [] |370| 
         000078 012C 
    1764                    .dwpsn  file "../MSP430F5xx_6xx/pmm.c",line 375,column 5,is_stmt,isa 0
    1765 00007a F0B2          AND.W     #775,&0x126           ; [] |375| 
         00007c 0307 
         00007e 0126 
    1766                    .dwpsn  file "../MSP430F5xx_6xx/pmm.c",line 384,column 5,is_stmt,isa 0
    1767 000080 F03D          AND.W     #64760,r13            ; [] |384| 
         000082 FCF8 
    1768 000084 F339          AND.W     #65535,r9             ; [] |384| 
    1769 000086 DD82          OR.W      r13,&0x126            ; [] |384| 
         000088 0126 
    1770                    .dwpsn  file "../MSP430F5xx_6xx/pmm.c",line 388,column 5,is_stmt,isa 0
    1771 00008a F0B2          AND.W     #775,&0x124           ; [] |388| 
         00008c 0307 
         00008e 0124 
    1772                    .dwpsn  file "../MSP430F5xx_6xx/pmm.c",line 398,column 5,is_stmt,isa 0
    1773 000090 F03F          AND.W     #64760,r15            ; [] |398| 
         000092 FCF8 
    1774 000094 F33A          AND.W     #65535,r10            ; [] |398| 
    1775 000096 DF82          OR.W      r15,&0x124            ; [] |398| 
         000098 0124 
    1776            ;* --------------------------------------------------------------------------*
    1777            ;*   BEGIN LOOP $C$L4
    1778            ;*
    1779            ;*   Loop source line                : 401
    1780            ;*   Loop closing brace source line  : 405
MSP430 Assembler PC v15.12.3 Mon Oct 17 14:33:07 2016

Tools Copyright (c) 2003-2015 Texas Instruments Incorporated
C:\Users\madis\AppData\Local\Temp\027322                             PAGE   37

    1781            ;*   Known Minimum Trip Count        : 1
    1782            ;*   Known Maximum Trip Count        : 4294967295
    1783            ;*   Known Max Trip Count Factor     : 1
    1784            ;* --------------------------------------------------------------------------*
    1785 00009a       $C$L4:    
    1786                    .dwpsn  file "../MSP430F5xx_6xx/pmm.c",line 401,column 11,is_stmt,isa 0
    1787 00009a B392          BIT.W     #1,&0x12c             ; [] |401| 
         00009c 012C 
    1788 00009e 2004          JNE       $C$L5                 ; [] |401| 
    1789                                                      ; [] |401| 
    1790            ;* --------------------------------------------------------------------------*
    1791 0000a0 B0B2          BIT.W     #16,&0x12c            ; [] |401| 
         0000a2 0010 
         0000a4 012C 
    1792 0000a6 27F9          JEQ       $C$L4                 ; [] |401| 
    1793                                                      ; [] |401| 
    1794            ;* --------------------------------------------------------------------------*
    1795 0000a8       $C$L5:    
    1796                    .dwpsn  file "../MSP430F5xx_6xx/pmm.c",line 408,column 5,is_stmt,isa 0
    1797 0000a8 F0B2          AND.W     #65416,&0x12c         ; [] |408| 
         0000aa FF88 
         0000ac 012C 
    1798                    .dwpsn  file "../MSP430F5xx_6xx/pmm.c",line 413,column 5,is_stmt,isa 0
    1799 0000ae 4B82          MOV.W     r11,&0x12e            ; [] |413| 
         0000b0 012E 
    1800                    .dwpsn  file "../MSP430F5xx_6xx/pmm.c",line 416,column 5,is_stmt,isa 0
    1801 0000b2 43C2          MOV.B     #0,&0x121             ; [] |416| 
         0000b4 0121 
    1802                    .dwpsn  file "../MSP430F5xx_6xx/pmm.c",line 418,column 5,is_stmt,isa 0
    1803 0000b6 431C          MOV.W     #1,r12                ; [] |418| 
    1804 0000b8 3C11          JMP       $C$L8                 ; [] |418| 
    1805                                                      ; [] |418| 
    1806            ;* --------------------------------------------------------------------------*
    1807 0000ba       $C$L6:    
    1808                    .dwpsn  file "../MSP430F5xx_6xx/pmm.c",line 319,column 9,is_stmt,isa 0
    1809 0000ba F0B2          AND.W     #65519,&0x12c         ; [] |319| 
         0000bc FFEF 
         0000be 012C 
    1810                    .dwpsn  file "../MSP430F5xx_6xx/pmm.c",line 320,column 9,is_stmt,isa 0
    1811 0000c0 4F82          MOV.W     r15,&0x124            ; [] |320| 
         0000c2 0124 
    1812            ;* --------------------------------------------------------------------------*
    1813            ;*   BEGIN LOOP $C$L7
    1814            ;*
    1815            ;*   Loop source line                : 323
    1816            ;*   Loop closing brace source line  : 326
    1817            ;*   Known Minimum Trip Count        : 1
    1818            ;*   Known Maximum Trip Count        : 4294967295
    1819            ;*   Known Max Trip Count Factor     : 1
    1820            ;* --------------------------------------------------------------------------*
    1821 0000c4       $C$L7:    
    1822                    .dwpsn  file "../MSP430F5xx_6xx/pmm.c",line 323,column 15,is_stmt,isa 0
    1823 0000c4 B0B2          BIT.W     #16,&0x12c            ; [] |323| 
         0000c6 0010 
         0000c8 012C 
MSP430 Assembler PC v15.12.3 Mon Oct 17 14:33:07 2016

Tools Copyright (c) 2003-2015 Texas Instruments Incorporated
C:\Users\madis\AppData\Local\Temp\027322                             PAGE   38

    1824 0000ca 27FC          JEQ       $C$L7                 ; [] |323| 
    1825                                                      ; [] |323| 
    1826            ;* --------------------------------------------------------------------------*
    1827                    .dwpsn  file "../MSP430F5xx_6xx/pmm.c",line 329,column 9,is_stmt,isa 0
    1828 0000cc F0B2          AND.W     #65416,&0x12c         ; [] |329| 
         0000ce FF88 
         0000d0 012C 
    1829                    .dwpsn  file "../MSP430F5xx_6xx/pmm.c",line 336,column 9,is_stmt,isa 0
    1830 0000d2 4B82          MOV.W     r11,&0x12e            ; [] |336| 
         0000d4 012E 
    1831                    .dwpsn  file "../MSP430F5xx_6xx/pmm.c",line 338,column 9,is_stmt,isa 0
    1832 0000d6 43C2          MOV.B     #0,&0x121             ; [] |338| 
         0000d8 0121 
    1833                    .dwpsn  file "../MSP430F5xx_6xx/pmm.c",line 340,column 9,is_stmt,isa 0
    1834 0000da 430C          MOV.W     #0,r12                ; [] |340| 
    1835            ;* --------------------------------------------------------------------------*
    1836 0000dc       $C$L8:    
    1837                    .dwpsn  file "../MSP430F5xx_6xx/pmm.c",line 419,column 1,is_stmt,isa 0
    1838 0000dc 1619          POPM.A    #2,r10                ; [] 
    1839                    .dwcfi  restore_reg, 9
    1840                    .dwcfi  restore_reg, 10
    1841                    .dwcfi  cfa_offset, 4
    1842            $C$DW$69        .dwtag  DW_TAG_TI_branch
    1843                    .dwattr $C$DW$69, DW_AT_low_pc(0x00)
    1844                    .dwattr $C$DW$69, DW_AT_TI_return
    1845            
    1846 0000de 0110          RETA      ; [] 
    1847                    ; [] 
    1848                    .dwattr $C$DW$63, DW_AT_TI_end_file("../MSP430F5xx_6xx/pmm.c")
    1849                    .dwattr $C$DW$63, DW_AT_TI_end_line(0x1a3)
    1850                    .dwattr $C$DW$63, DW_AT_TI_end_column(0x01)
    1851                    .dwendentry
    1852                    .dwendtag $C$DW$63
    1853            
    1854 000000               .sect   ".text:PMM_setVCoreDown"
    1855                    .clink
    1856                    .global PMM_setVCoreDown
    1857            
    1858            $C$DW$70        .dwtag  DW_TAG_subprogram
    1859                    .dwattr $C$DW$70, DW_AT_name("PMM_setVCoreDown")
    1860                    .dwattr $C$DW$70, DW_AT_low_pc(PMM_setVCoreDown)
    1861                    .dwattr $C$DW$70, DW_AT_high_pc(0x00)
    1862                    .dwattr $C$DW$70, DW_AT_TI_symbol_name("PMM_setVCoreDown")
    1863                    .dwattr $C$DW$70, DW_AT_external
    1864                    .dwattr $C$DW$70, DW_AT_type(*$C$DW$T$36)
    1865                    .dwattr $C$DW$70, DW_AT_TI_begin_file("../MSP430F5xx_6xx/pmm.c")
    1866                    .dwattr $C$DW$70, DW_AT_TI_begin_line(0x1a5)
    1867                    .dwattr $C$DW$70, DW_AT_TI_begin_column(0x0a)
    1868                    .dwattr $C$DW$70, DW_AT_decl_file("../MSP430F5xx_6xx/pmm.c")
    1869                    .dwattr $C$DW$70, DW_AT_decl_line(0x1a5)
    1870                    .dwattr $C$DW$70, DW_AT_decl_column(0x0a)
    1871                    .dwattr $C$DW$70, DW_AT_TI_max_frame_size(0x10)
    1872                    .dwpsn  file "../MSP430F5xx_6xx/pmm.c",line 421,column 41,is_stmt,address PMM_setVCoreDown,isa
    1873            
    1874                    .dwfde $C$DW$CIE, PMM_setVCoreDown
MSP430 Assembler PC v15.12.3 Mon Oct 17 14:33:07 2016

Tools Copyright (c) 2003-2015 Texas Instruments Incorporated
C:\Users\madis\AppData\Local\Temp\027322                             PAGE   39

    1875            $C$DW$71        .dwtag  DW_TAG_formal_parameter
    1876                    .dwattr $C$DW$71, DW_AT_name("level")
    1877                    .dwattr $C$DW$71, DW_AT_TI_symbol_name("level")
    1878                    .dwattr $C$DW$71, DW_AT_type(*$C$DW$T$25)
    1879                    .dwattr $C$DW$71, DW_AT_location[DW_OP_reg12]
    1880            
    1881            
    1882            ;*****************************************************************************
    1883            ;* FUNCTION NAME: PMM_setVCoreDown                                           *
    1884            ;*                                                                           *
    1885            ;*   Regs Modified     : SP,SR,r8,r9,r10,r11,r12,r13,r14,r15                 *
    1886            ;*   Regs Used         : SP,SR,r8,r9,r10,r11,r12,r13,r14,r15                 *
    1887            ;*   Local Frame Size  : 0 Args + 0 Auto + 12 Save = 12 byte                 *
    1888            ;*****************************************************************************
    1889 000000       PMM_setVCoreDown:
    1890            ;* --------------------------------------------------------------------------*
    1891                    .dwcfi  cfa_offset, 4
    1892                    .dwcfi  save_reg_to_mem, 16, -4
    1893 000000 142A          PUSHM.A   #3,r10                ; [] 
    1894                    .dwcfi  save_reg_to_mem, 10, -8
    1895                    .dwcfi  save_reg_to_mem, 9, -12
    1896                    .dwcfi  save_reg_to_mem, 8, -16
    1897                    .dwcfi  cfa_offset, 16
    1898            ;* r12   assigned to level
    1899            $C$DW$72        .dwtag  DW_TAG_variable
    1900                    .dwattr $C$DW$72, DW_AT_name("level")
    1901                    .dwattr $C$DW$72, DW_AT_TI_symbol_name("level")
    1902                    .dwattr $C$DW$72, DW_AT_type(*$C$DW$T$25)
    1903                    .dwattr $C$DW$72, DW_AT_location[DW_OP_reg12]
    1904            
    1905            ;* r10   assigned to PMMRIE_backup
    1906            $C$DW$73        .dwtag  DW_TAG_variable
    1907                    .dwattr $C$DW$73, DW_AT_name("PMMRIE_backup")
    1908                    .dwattr $C$DW$73, DW_AT_TI_symbol_name("PMMRIE_backup")
    1909                    .dwattr $C$DW$73, DW_AT_type(*$C$DW$T$11)
    1910                    .dwattr $C$DW$73, DW_AT_location[DW_OP_reg10]
    1911            
    1912            ;* r13   assigned to SVSMHCTL_backup
    1913            $C$DW$74        .dwtag  DW_TAG_variable
    1914                    .dwattr $C$DW$74, DW_AT_name("SVSMHCTL_backup")
    1915                    .dwattr $C$DW$74, DW_AT_TI_symbol_name("SVSMHCTL_backup")
    1916                    .dwattr $C$DW$74, DW_AT_type(*$C$DW$T$49)
    1917                    .dwattr $C$DW$74, DW_AT_location[DW_OP_reg13 DW_OP_piece 2 DW_OP_reg9 DW_OP_piece 2]
    1918            
    1919            ;* r14   assigned to SVSMLCTL_backup
    1920            $C$DW$75        .dwtag  DW_TAG_variable
    1921                    .dwattr $C$DW$75, DW_AT_name("SVSMLCTL_backup")
    1922                    .dwattr $C$DW$75, DW_AT_TI_symbol_name("SVSMLCTL_backup")
    1923                    .dwattr $C$DW$75, DW_AT_type(*$C$DW$T$49)
    1924                    .dwattr $C$DW$75, DW_AT_location[DW_OP_reg14 DW_OP_piece 2 DW_OP_reg8 DW_OP_piece 2]
    1925            
    1926                    .dwpsn  file "../MSP430F5xx_6xx/pmm.c",line 430,column 5,is_stmt,isa 0
    1927 000002 40F2          MOV.B     #165,&0x121           ; [] |430| 
         000004 00A5 
         000006 0121 
MSP430 Assembler PC v15.12.3 Mon Oct 17 14:33:07 2016

Tools Copyright (c) 2003-2015 Texas Instruments Incorporated
C:\Users\madis\AppData\Local\Temp\027322                             PAGE   40

    1928                    .dwpsn  file "../MSP430F5xx_6xx/pmm.c",line 434,column 5,is_stmt,isa 0
    1929 000008 421A          MOV.W     &0x12e,r10            ; [] |434| 
         00000a 012E 
    1930                    .dwpsn  file "../MSP430F5xx_6xx/pmm.c",line 435,column 5,is_stmt,isa 0
    1931 00000c F0B2          AND.W     #52360,&0x12e         ; [] |435| 
         00000e CC88 
         000010 012E 
    1932                    .dwpsn  file "../MSP430F5xx_6xx/pmm.c",line 440,column 5,is_stmt,isa 0
    1933 000012 421D          MOV.W     &0x124,r13            ; [] |440| 
         000014 0124 
    1934 000016 4309          MOV.W     #0,r9                 ; [] |440| 
    1935                    .dwpsn  file "../MSP430F5xx_6xx/pmm.c",line 441,column 5,is_stmt,isa 0
    1936 000018 421E          MOV.W     &0x126,r14            ; [] |441| 
         00001a 0126 
    1937 00001c 4308          MOV.W     #0,r8                 ; [] |441| 
    1938                    .dwpsn  file "../MSP430F5xx_6xx/pmm.c",line 444,column 5,is_stmt,isa 0
    1939 00001e F0B2          AND.W     #65484,&0x12c         ; [] |444| 
         000020 FFCC 
         000022 012C 
    1940                    .dwpsn  file "../MSP430F5xx_6xx/pmm.c",line 449,column 5,is_stmt,isa 0
    1941 000024 4C4F          MOV.B     r12,r15               ; [] |449| 
    1942 000026 1847          RPT #8 || RLAX.W r15 ; [] |449| 
         000028 5F0F 
    1943 00002a 4C4B          MOV.B     r12,r11               ; [] |449| 
    1944 00002c DF0B          OR.W      r15,r11               ; [] |449| 
    1945 00002e D03B          OR.W      #17408,r11            ; [] |449| 
         000030 4400 
    1946 000032 4B82          MOV.W     r11,&0x124            ; [] |449| 
         000034 0124 
    1947                    .dwpsn  file "../MSP430F5xx_6xx/pmm.c",line 451,column 5,is_stmt,isa 0
    1948 000036 4C4F          MOV.B     r12,r15               ; [] |451| 
    1949 000038 1847          RPT #8 || RLAX.W r15 ; [] |451| 
         00003a 5F0F 
    1950 00003c 4C4B          MOV.B     r12,r11               ; [] |451| 
    1951 00003e DF0B          OR.W      r15,r11               ; [] |451| 
    1952 000040 D03B          OR.W      #17408,r11            ; [] |451| 
         000042 4400 
    1953 000044 4B82          MOV.W     r11,&0x126            ; [] |451| 
         000046 0126 
    1954            ;* --------------------------------------------------------------------------*
    1955            ;*   BEGIN LOOP $C$L9
    1956            ;*
    1957            ;*   Loop source line                : 455
    1958            ;*   Loop closing brace source line  : 459
    1959            ;*   Known Minimum Trip Count        : 1
    1960            ;*   Known Maximum Trip Count        : 4294967295
    1961            ;*   Known Max Trip Count Factor     : 1
    1962            ;* --------------------------------------------------------------------------*
    1963 000048       $C$L9:    
    1964                    .dwpsn  file "../MSP430F5xx_6xx/pmm.c",line 455,column 11,is_stmt,isa 0
    1965 000048 B0B2          BIT.W     #16,&0x12c            ; [] |455| 
         00004a 0010 
         00004c 012C 
    1966 00004e 2003          JNE       $C$L10                ; [] |455| 
    1967                                                      ; [] |455| 
MSP430 Assembler PC v15.12.3 Mon Oct 17 14:33:07 2016

Tools Copyright (c) 2003-2015 Texas Instruments Incorporated
C:\Users\madis\AppData\Local\Temp\027322                             PAGE   41

    1968            ;* --------------------------------------------------------------------------*
    1969 000050 B392          BIT.W     #1,&0x12c             ; [] |455| 
         000052 012C 
    1970 000054 27F9          JEQ       $C$L9                 ; [] |455| 
    1971                                                      ; [] |455| 
    1972            ;* --------------------------------------------------------------------------*
    1973 000056       $C$L10:    
    1974                    .dwpsn  file "../MSP430F5xx_6xx/pmm.c",line 462,column 5,is_stmt,isa 0
    1975 000056 F0B2          AND.W     #65518,&0x12c         ; [] |462| 
         000058 FFEE 
         00005a 012C 
    1976                    .dwpsn  file "../MSP430F5xx_6xx/pmm.c",line 466,column 5,is_stmt,isa 0
    1977 00005c 4CC2          MOV.B     r12,&0x120            ; [] |466| 
         00005e 0120 
    1978                    .dwpsn  file "../MSP430F5xx_6xx/pmm.c",line 470,column 5,is_stmt,isa 0
    1979 000060 F0B2          AND.W     #775,&0x126           ; [] |470| 
         000062 0307 
         000064 0126 
    1980                    .dwpsn  file "../MSP430F5xx_6xx/pmm.c",line 479,column 5,is_stmt,isa 0
    1981 000066 F03E          AND.W     #64760,r14            ; [] |479| 
         000068 FCF8 
    1982 00006a F338          AND.W     #65535,r8             ; [] |479| 
    1983 00006c DE82          OR.W      r14,&0x126            ; [] |479| 
         00006e 0126 
    1984                    .dwpsn  file "../MSP430F5xx_6xx/pmm.c",line 483,column 5,is_stmt,isa 0
    1985 000070 F0B2          AND.W     #775,&0x124           ; [] |483| 
         000072 0307 
         000074 0124 
    1986                    .dwpsn  file "../MSP430F5xx_6xx/pmm.c",line 492,column 5,is_stmt,isa 0
    1987 000076 F03D          AND.W     #64760,r13            ; [] |492| 
         000078 FCF8 
    1988 00007a F339          AND.W     #65535,r9             ; [] |492| 
    1989 00007c DD82          OR.W      r13,&0x124            ; [] |492| 
         00007e 0124 
    1990            ;* --------------------------------------------------------------------------*
    1991            ;*   BEGIN LOOP $C$L11
    1992            ;*
    1993            ;*   Loop source line                : 495
    1994            ;*   Loop closing brace source line  : 499
    1995            ;*   Known Minimum Trip Count        : 1
    1996            ;*   Known Maximum Trip Count        : 4294967295
    1997            ;*   Known Max Trip Count Factor     : 1
    1998            ;* --------------------------------------------------------------------------*
    1999 000080       $C$L11:    
    2000                    .dwpsn  file "../MSP430F5xx_6xx/pmm.c",line 495,column 11,is_stmt,isa 0
    2001 000080 B392          BIT.W     #1,&0x12c             ; [] |495| 
         000082 012C 
    2002 000084 2004          JNE       $C$L12                ; [] |495| 
    2003                                                      ; [] |495| 
    2004            ;* --------------------------------------------------------------------------*
    2005 000086 B0B2          BIT.W     #16,&0x12c            ; [] |495| 
         000088 0010 
         00008a 012C 
    2006 00008c 27F9          JEQ       $C$L11                ; [] |495| 
    2007                                                      ; [] |495| 
MSP430 Assembler PC v15.12.3 Mon Oct 17 14:33:07 2016

Tools Copyright (c) 2003-2015 Texas Instruments Incorporated
C:\Users\madis\AppData\Local\Temp\027322                             PAGE   42

    2008            ;* --------------------------------------------------------------------------*
    2009 00008e       $C$L12:    
    2010                    .dwpsn  file "../MSP430F5xx_6xx/pmm.c",line 502,column 5,is_stmt,isa 0
    2011 00008e F0B2          AND.W     #65416,&0x12c         ; [] |502| 
         000090 FF88 
         000092 012C 
    2012                    .dwpsn  file "../MSP430F5xx_6xx/pmm.c",line 507,column 5,is_stmt,isa 0
    2013 000094 4A82          MOV.W     r10,&0x12e            ; [] |507| 
         000096 012E 
    2014                    .dwpsn  file "../MSP430F5xx_6xx/pmm.c",line 509,column 5,is_stmt,isa 0
    2015 000098 43C2          MOV.B     #0,&0x121             ; [] |509| 
         00009a 0121 
    2016                    .dwpsn  file "../MSP430F5xx_6xx/pmm.c",line 511,column 5,is_stmt,isa 0
    2017 00009c 431C          MOV.W     #1,r12                ; [] |511| 
    2018                    .dwpsn  file "../MSP430F5xx_6xx/pmm.c",line 512,column 1,is_stmt,isa 0
    2019 00009e 1628          POPM.A    #3,r10                ; [] 
    2020                    .dwcfi  restore_reg, 8
    2021                    .dwcfi  restore_reg, 9
    2022                    .dwcfi  restore_reg, 10
    2023                    .dwcfi  cfa_offset, 4
    2024            $C$DW$76        .dwtag  DW_TAG_TI_branch
    2025                    .dwattr $C$DW$76, DW_AT_low_pc(0x00)
    2026                    .dwattr $C$DW$76, DW_AT_TI_return
    2027            
    2028 0000a0 0110          RETA      ; [] 
    2029                    ; [] 
    2030                    .dwattr $C$DW$70, DW_AT_TI_end_file("../MSP430F5xx_6xx/pmm.c")
    2031                    .dwattr $C$DW$70, DW_AT_TI_end_line(0x200)
    2032                    .dwattr $C$DW$70, DW_AT_TI_end_column(0x01)
    2033                    .dwendentry
    2034                    .dwendtag $C$DW$70
    2035            
    2036 000000               .sect   ".text:PMM_setVCore"
    2037                    .clink
    2038                    .global PMM_setVCore
    2039            
    2040            $C$DW$77        .dwtag  DW_TAG_subprogram
    2041                    .dwattr $C$DW$77, DW_AT_name("PMM_setVCore")
    2042                    .dwattr $C$DW$77, DW_AT_low_pc(PMM_setVCore)
    2043                    .dwattr $C$DW$77, DW_AT_high_pc(0x00)
    2044                    .dwattr $C$DW$77, DW_AT_TI_symbol_name("PMM_setVCore")
    2045                    .dwattr $C$DW$77, DW_AT_external
    2046                    .dwattr $C$DW$77, DW_AT_type(*$C$DW$T$61)
    2047                    .dwattr $C$DW$77, DW_AT_TI_begin_file("../MSP430F5xx_6xx/pmm.c")
    2048                    .dwattr $C$DW$77, DW_AT_TI_begin_line(0x202)
    2049                    .dwattr $C$DW$77, DW_AT_TI_begin_column(0x06)
    2050                    .dwattr $C$DW$77, DW_AT_decl_file("../MSP430F5xx_6xx/pmm.c")
    2051                    .dwattr $C$DW$77, DW_AT_decl_line(0x202)
    2052                    .dwattr $C$DW$77, DW_AT_decl_column(0x06)
    2053                    .dwattr $C$DW$77, DW_AT_TI_max_frame_size(0x10)
    2054                    .dwpsn  file "../MSP430F5xx_6xx/pmm.c",line 514,column 33,is_stmt,address PMM_setVCore,isa 0
    2055            
    2056                    .dwfde $C$DW$CIE, PMM_setVCore
    2057            $C$DW$78        .dwtag  DW_TAG_formal_parameter
    2058                    .dwattr $C$DW$78, DW_AT_name("level")
MSP430 Assembler PC v15.12.3 Mon Oct 17 14:33:07 2016

Tools Copyright (c) 2003-2015 Texas Instruments Incorporated
C:\Users\madis\AppData\Local\Temp\027322                             PAGE   43

    2059                    .dwattr $C$DW$78, DW_AT_TI_symbol_name("level")
    2060                    .dwattr $C$DW$78, DW_AT_type(*$C$DW$T$25)
    2061                    .dwattr $C$DW$78, DW_AT_location[DW_OP_reg12]
    2062            
    2063            
    2064            ;*****************************************************************************
    2065            ;* FUNCTION NAME: PMM_setVCore                                               *
    2066            ;*                                                                           *
    2067            ;*   Regs Modified     : SP,SR,r8,r9,r10,r11,r12,r13,r14,r15                 *
    2068            ;*   Regs Used         : SP,SR,r8,r9,r10,r11,r12,r13,r14,r15                 *
    2069            ;*   Local Frame Size  : 0 Args + 0 Auto + 12 Save = 12 byte                 *
    2070            ;*****************************************************************************
    2071 000000       PMM_setVCore:
    2072            ;* --------------------------------------------------------------------------*
    2073                    .dwcfi  cfa_offset, 4
    2074                    .dwcfi  save_reg_to_mem, 16, -4
    2075 000000 142A          PUSHM.A   #3,r10                ; [] 
    2076                    .dwcfi  save_reg_to_mem, 10, -8
    2077                    .dwcfi  save_reg_to_mem, 9, -12
    2078                    .dwcfi  save_reg_to_mem, 8, -16
    2079                    .dwcfi  cfa_offset, 16
    2080            ;* r9    assigned to level
    2081            $C$DW$79        .dwtag  DW_TAG_variable
    2082                    .dwattr $C$DW$79, DW_AT_name("level")
    2083                    .dwattr $C$DW$79, DW_AT_TI_symbol_name("level")
    2084                    .dwattr $C$DW$79, DW_AT_type(*$C$DW$T$25)
    2085                    .dwattr $C$DW$79, DW_AT_location[DW_OP_reg9]
    2086            
    2087            ;* r10   assigned to actlevel
    2088            $C$DW$80        .dwtag  DW_TAG_variable
    2089                    .dwattr $C$DW$80, DW_AT_name("actlevel")
    2090                    .dwattr $C$DW$80, DW_AT_TI_symbol_name("actlevel")
    2091                    .dwattr $C$DW$80, DW_AT_type(*$C$DW$T$25)
    2092                    .dwattr $C$DW$80, DW_AT_location[DW_OP_reg10]
    2093            
    2094            ;* r12   assigned to status
    2095            $C$DW$81        .dwtag  DW_TAG_variable
    2096                    .dwattr $C$DW$81, DW_AT_name("status")
    2097                    .dwattr $C$DW$81, DW_AT_TI_symbol_name("status")
    2098                    .dwattr $C$DW$81, DW_AT_type(*$C$DW$T$61)
    2099                    .dwattr $C$DW$81, DW_AT_location[DW_OP_reg12]
    2100            
    2101 000002 0CC9          MOVA      r12,r9                ; [] |514| 
    2102                    .dwpsn  file "../MSP430F5xx_6xx/pmm.c",line 516,column 17,is_stmt,isa 0
    2103 000004 435C          MOV.B     #1,r12                ; [] |516| 
    2104                    .dwpsn  file "../MSP430F5xx_6xx/pmm.c",line 519,column 5,is_stmt,isa 0
    2105 000006 F079          AND.B     #3,r9                 ; [] |519| 
         000008 0003 
    2106                    .dwpsn  file "../MSP430F5xx_6xx/pmm.c",line 522,column 5,is_stmt,isa 0
    2107 00000a 421A          MOV.W     &0x120,r10            ; [] |522| 
         00000c 0120 
    2108 00000e F07A          AND.B     #3,r10                ; [] |522| 
         000010 0003 
    2109                    .dwpsn  file "../MSP430F5xx_6xx/pmm.c",line 525,column 5,is_stmt,isa 0
    2110 000012 3C10          JMP       $C$L17                ; [] |525| 
MSP430 Assembler PC v15.12.3 Mon Oct 17 14:33:07 2016

Tools Copyright (c) 2003-2015 Texas Instruments Incorporated
C:\Users\madis\AppData\Local\Temp\027322                             PAGE   44

    2111                                                      ; [] |525| 
    2112            ;* --------------------------------------------------------------------------*
    2113 000014       $C$L13:    
    2114                    .dwpsn  file "../MSP430F5xx_6xx/pmm.c",line 529,column 13,is_stmt,isa 0
    2115 000014 4348          MOV.B     #0,r8                 ; [] |529| 
    2116 000016 994A          CMP.B     r9,r10                ; [] |529| 
    2117 000018 2C05          JHS       $C$L14                ; [] |529| 
    2118                                                      ; [] |529| 
    2119            ;* --------------------------------------------------------------------------*
    2120 00001a 535A          ADD.B     #1,r10                ; [] |529| 
    2121 00001c 0ACC          MOVA      r10,r12               ; [] |529| 
    2122            $C$DW$82        .dwtag  DW_TAG_TI_branch
    2123                    .dwattr $C$DW$82, DW_AT_low_pc(0x00)
    2124                    .dwattr $C$DW$82, DW_AT_name("PMM_setVCoreUp")
    2125                    .dwattr $C$DW$82, DW_AT_TI_call
    2126            
    2127 00001e 13B0!         CALLA     #PMM_setVCoreUp       ; [] |529| 
         000020 0000 
    2128                                                      ; [] |529| 
    2129 000022 3C04          JMP       $C$L15                ; [] |529| 
    2130                                                      ; [] |529| 
    2131            ;* --------------------------------------------------------------------------*
    2132 000024       $C$L14:    
    2133 000024 835A          SUB.B     #1,r10                ; [] |529| 
    2134 000026 0ACC          MOVA      r10,r12               ; [] |529| 
    2135            $C$DW$83        .dwtag  DW_TAG_TI_branch
    2136                    .dwattr $C$DW$83, DW_AT_low_pc(0x00)
    2137                    .dwattr $C$DW$83, DW_AT_name("PMM_setVCoreDown")
    2138                    .dwattr $C$DW$83, DW_AT_TI_call
    2139            
    2140 000028 13B0!         CALLA     #PMM_setVCoreDown     ; [] |529| 
         00002a 0000 
    2141                                                      ; [] |529| 
    2142            ;* --------------------------------------------------------------------------*
    2143 00002c       $C$L15:    
    2144 00002c 930C          TST.W     r12                   ; [] |529| 
    2145 00002e 2401          JEQ       $C$L16                ; [] |529| 
    2146                                                      ; [] |529| 
    2147            ;* --------------------------------------------------------------------------*
    2148 000030 4358          MOV.B     #1,r8                 ; [] |529| 
    2149            ;* --------------------------------------------------------------------------*
    2150 000032       $C$L16:    
    2151 000032 08CC          MOVA      r8,r12                ; [] |529| 
    2152            ;* --------------------------------------------------------------------------*
    2153            ;*   BEGIN LOOP $C$L17
    2154            ;* --------------------------------------------------------------------------*
    2155 000034       $C$L17:    
    2156                    .dwpsn  file "../MSP430F5xx_6xx/pmm.c",line 525,column 11,is_stmt,isa 0
    2157 000034 9A49          CMP.B     r10,r9                ; [] |525| 
    2158 000036 2402          JEQ       $C$L18                ; [] |525| 
    2159                                                      ; [] |525| 
    2160            ;* --------------------------------------------------------------------------*
    2161 000038 935C          CMP.B     #1,r12                ; [] |525| 
    2162 00003a 27EC          JEQ       $C$L13                ; [] |525| 
    2163                                                      ; [] |525| 
MSP430 Assembler PC v15.12.3 Mon Oct 17 14:33:07 2016

Tools Copyright (c) 2003-2015 Texas Instruments Incorporated
C:\Users\madis\AppData\Local\Temp\027322                             PAGE   45

    2164            ;* --------------------------------------------------------------------------*
    2165 00003c       $C$L18:    
    2166                    .dwpsn  file "../MSP430F5xx_6xx/pmm.c",line 537,column 5,is_stmt,isa 0
    2167                    .dwpsn  file "../MSP430F5xx_6xx/pmm.c",line 538,column 1,is_stmt,isa 0
    2168 00003c 1628          POPM.A    #3,r10                ; [] 
    2169                    .dwcfi  restore_reg, 8
    2170                    .dwcfi  restore_reg, 9
    2171                    .dwcfi  restore_reg, 10
    2172                    .dwcfi  cfa_offset, 4
    2173            $C$DW$84        .dwtag  DW_TAG_TI_branch
    2174                    .dwattr $C$DW$84, DW_AT_low_pc(0x00)
    2175                    .dwattr $C$DW$84, DW_AT_TI_return
    2176            
    2177 00003e 0110          RETA      ; [] 
    2178                    ; [] 
    2179                    .dwattr $C$DW$77, DW_AT_TI_end_file("../MSP430F5xx_6xx/pmm.c")
    2180                    .dwattr $C$DW$77, DW_AT_TI_end_line(0x21a)
    2181                    .dwattr $C$DW$77, DW_AT_TI_end_column(0x01)
    2182                    .dwendentry
    2183                    .dwendtag $C$DW$77
    2184            
    2185 000000               .sect   ".text:PMM_getInterruptStatus"
    2186                    .clink
    2187                    .global PMM_getInterruptStatus
    2188            
    2189            $C$DW$85        .dwtag  DW_TAG_subprogram
    2190                    .dwattr $C$DW$85, DW_AT_name("PMM_getInterruptStatus")
    2191                    .dwattr $C$DW$85, DW_AT_low_pc(PMM_getInterruptStatus)
    2192                    .dwattr $C$DW$85, DW_AT_high_pc(0x00)
    2193                    .dwattr $C$DW$85, DW_AT_TI_symbol_name("PMM_getInterruptStatus")
    2194                    .dwattr $C$DW$85, DW_AT_external
    2195                    .dwattr $C$DW$85, DW_AT_type(*$C$DW$T$36)
    2196                    .dwattr $C$DW$85, DW_AT_TI_begin_file("../MSP430F5xx_6xx/pmm.c")
    2197                    .dwattr $C$DW$85, DW_AT_TI_begin_line(0x21c)
    2198                    .dwattr $C$DW$85, DW_AT_TI_begin_column(0x0a)
    2199                    .dwattr $C$DW$85, DW_AT_decl_file("../MSP430F5xx_6xx/pmm.c")
    2200                    .dwattr $C$DW$85, DW_AT_decl_line(0x21c)
    2201                    .dwattr $C$DW$85, DW_AT_decl_column(0x0a)
    2202                    .dwattr $C$DW$85, DW_AT_TI_max_frame_size(0x04)
    2203                    .dwpsn  file "../MSP430F5xx_6xx/pmm.c",line 541,column 1,is_stmt,address PMM_getInterruptStatu
    2204            
    2205                    .dwfde $C$DW$CIE, PMM_getInterruptStatus
    2206            $C$DW$86        .dwtag  DW_TAG_formal_parameter
    2207                    .dwattr $C$DW$86, DW_AT_name("mask")
    2208                    .dwattr $C$DW$86, DW_AT_TI_symbol_name("mask")
    2209                    .dwattr $C$DW$86, DW_AT_type(*$C$DW$T$36)
    2210                    .dwattr $C$DW$86, DW_AT_location[DW_OP_reg12]
    2211            
    2212            
    2213            ;*****************************************************************************
    2214            ;* FUNCTION NAME: PMM_getInterruptStatus                                     *
    2215            ;*                                                                           *
    2216            ;*   Regs Modified     : SP,SR,r12                                           *
    2217            ;*   Regs Used         : SP,SR,r12                                           *
    2218            ;*   Local Frame Size  : 0 Args + 0 Auto + 0 Save = 0 byte                   *
MSP430 Assembler PC v15.12.3 Mon Oct 17 14:33:07 2016

Tools Copyright (c) 2003-2015 Texas Instruments Incorporated
C:\Users\madis\AppData\Local\Temp\027322                             PAGE   46

    2219            ;*****************************************************************************
    2220 000000       PMM_getInterruptStatus:
    2221            ;* --------------------------------------------------------------------------*
    2222                    .dwcfi  cfa_offset, 4
    2223                    .dwcfi  save_reg_to_mem, 16, -4
    2224                    .dwpsn  file "../MSP430F5xx_6xx/pmm.c",line 542,column 5,is_stmt,isa 0
    2225 000000 F21C          AND.W     &0x12c,r12            ; [] |542| 
         000002 012C 
    2226                    .dwpsn  file "../MSP430F5xx_6xx/pmm.c",line 543,column 1,is_stmt,isa 0
    2227            $C$DW$87        .dwtag  DW_TAG_TI_branch
    2228                    .dwattr $C$DW$87, DW_AT_low_pc(0x00)
    2229                    .dwattr $C$DW$87, DW_AT_TI_return
    2230            
    2231 000004 0110          RETA      ; [] 
    2232                    ; [] 
    2233                    .dwattr $C$DW$85, DW_AT_TI_end_file("../MSP430F5xx_6xx/pmm.c")
    2234                    .dwattr $C$DW$85, DW_AT_TI_end_line(0x21f)
    2235                    .dwattr $C$DW$85, DW_AT_TI_end_column(0x01)
    2236                    .dwendentry
    2237                    .dwendtag $C$DW$85
    2238            
    2239            
    2240            ;******************************************************************************
    2241            ;* BUILD ATTRIBUTES                                                           *
    2242            ;******************************************************************************
    2243                    .battr "TI", Tag_File, 1, Tag_LPM_INFO(1)
    2244                    .battr "TI", Tag_File, 1, Tag_PORTS_INIT_INFO("012345678901ABCDEFGHIJ0000000000001111000000000
    2245                    .battr "TI", Tag_File, 1, Tag_HW_MPY32_INFO(2)
    2246                    .battr "TI", Tag_File, 1, Tag_HW_MPY_ISR_INFO(1)
    2247                    .battr "TI", Tag_File, 1, Tag_HW_MPY_INLINE_INFO(1)
    2248                    .battr "mspabi", Tag_File, 1, Tag_enum_size(3)
    2249            
    2250            ;******************************************************************************
    2251            ;* TYPE INFORMATION                                                           *
    2252            ;******************************************************************************
    2253            $C$DW$T$2       .dwtag  DW_TAG_unspecified_type
    2254                    .dwattr $C$DW$T$2, DW_AT_name("void")
    2255            
    2256            
    2257            $C$DW$T$20      .dwtag  DW_TAG_subroutine_type
    2258                    .dwattr $C$DW$T$20, DW_AT_language(DW_LANG_C)
    2259                    .dwendtag $C$DW$T$20
    2260            
    2261            $C$DW$T$21      .dwtag  DW_TAG_pointer_type
    2262                    .dwattr $C$DW$T$21, DW_AT_type(*$C$DW$T$20)
    2263                    .dwattr $C$DW$T$21, DW_AT_address_class(0x14)
    2264            
    2265            $C$DW$T$22      .dwtag  DW_TAG_typedef
    2266                    .dwattr $C$DW$T$22, DW_AT_name("__SFR_FARPTR")
    2267                    .dwattr $C$DW$T$22, DW_AT_type(*$C$DW$T$21)
    2268                    .dwattr $C$DW$T$22, DW_AT_language(DW_LANG_C)
    2269                    .dwattr $C$DW$T$22, DW_AT_decl_file("D:\ti\ccsv6\ccs_base\msp430\include\msp430f5529.h")
    2270                    .dwattr $C$DW$T$22, DW_AT_decl_line(0x47)
    2271                    .dwattr $C$DW$T$22, DW_AT_decl_column(0x11)
    2272            
MSP430 Assembler PC v15.12.3 Mon Oct 17 14:33:07 2016

Tools Copyright (c) 2003-2015 Texas Instruments Incorporated
C:\Users\madis\AppData\Local\Temp\027322                             PAGE   47

    2273            $C$DW$T$4       .dwtag  DW_TAG_base_type
    2274                    .dwattr $C$DW$T$4, DW_AT_encoding(DW_ATE_boolean)
    2275                    .dwattr $C$DW$T$4, DW_AT_name("bool")
    2276                    .dwattr $C$DW$T$4, DW_AT_byte_size(0x01)
    2277            
    2278            $C$DW$T$5       .dwtag  DW_TAG_base_type
    2279                    .dwattr $C$DW$T$5, DW_AT_encoding(DW_ATE_signed_char)
    2280                    .dwattr $C$DW$T$5, DW_AT_name("signed char")
    2281                    .dwattr $C$DW$T$5, DW_AT_byte_size(0x01)
    2282            
    2283            $C$DW$T$23      .dwtag  DW_TAG_typedef
    2284                    .dwattr $C$DW$T$23, DW_AT_name("int8_t")
    2285                    .dwattr $C$DW$T$23, DW_AT_type(*$C$DW$T$5)
    2286                    .dwattr $C$DW$T$23, DW_AT_language(DW_LANG_C)
    2287                    .dwattr $C$DW$T$23, DW_AT_decl_file("D:/ti/ccsv6/tools/compiler/msp430_15.12.3.LTS/include/std
    2288                    .dwattr $C$DW$T$23, DW_AT_decl_line(0x2a)
    2289                    .dwattr $C$DW$T$23, DW_AT_decl_column(0x1e)
    2290            
    2291            $C$DW$T$24      .dwtag  DW_TAG_typedef
    2292                    .dwattr $C$DW$T$24, DW_AT_name("int_least8_t")
    2293                    .dwattr $C$DW$T$24, DW_AT_type(*$C$DW$T$23)
    2294                    .dwattr $C$DW$T$24, DW_AT_language(DW_LANG_C)
    2295                    .dwattr $C$DW$T$24, DW_AT_decl_file("D:/ti/ccsv6/tools/compiler/msp430_15.12.3.LTS/include/std
    2296                    .dwattr $C$DW$T$24, DW_AT_decl_line(0x37)
    2297                    .dwattr $C$DW$T$24, DW_AT_decl_column(0x17)
    2298            
    2299            $C$DW$T$6       .dwtag  DW_TAG_base_type
    2300                    .dwattr $C$DW$T$6, DW_AT_encoding(DW_ATE_unsigned_char)
    2301                    .dwattr $C$DW$T$6, DW_AT_name("unsigned char")
    2302                    .dwattr $C$DW$T$6, DW_AT_byte_size(0x01)
    2303            
    2304            $C$DW$T$25      .dwtag  DW_TAG_typedef
    2305                    .dwattr $C$DW$T$25, DW_AT_name("uint8_t")
    2306                    .dwattr $C$DW$T$25, DW_AT_type(*$C$DW$T$6)
    2307                    .dwattr $C$DW$T$25, DW_AT_language(DW_LANG_C)
    2308                    .dwattr $C$DW$T$25, DW_AT_decl_file("D:/ti/ccsv6/tools/compiler/msp430_15.12.3.LTS/include/std
    2309                    .dwattr $C$DW$T$25, DW_AT_decl_line(0x2b)
    2310                    .dwattr $C$DW$T$25, DW_AT_decl_column(0x1d)
    2311            
    2312            $C$DW$T$29      .dwtag  DW_TAG_typedef
    2313                    .dwattr $C$DW$T$29, DW_AT_name("uint_least8_t")
    2314                    .dwattr $C$DW$T$29, DW_AT_type(*$C$DW$T$25)
    2315                    .dwattr $C$DW$T$29, DW_AT_language(DW_LANG_C)
    2316                    .dwattr $C$DW$T$29, DW_AT_decl_file("D:/ti/ccsv6/tools/compiler/msp430_15.12.3.LTS/include/std
    2317                    .dwattr $C$DW$T$29, DW_AT_decl_line(0x38)
    2318                    .dwattr $C$DW$T$29, DW_AT_decl_column(0x16)
    2319            
    2320            $C$DW$T$7       .dwtag  DW_TAG_base_type
    2321                    .dwattr $C$DW$T$7, DW_AT_encoding(DW_ATE_signed_char)
    2322                    .dwattr $C$DW$T$7, DW_AT_name("wchar_t")
    2323                    .dwattr $C$DW$T$7, DW_AT_byte_size(0x02)
    2324            
    2325            $C$DW$T$8       .dwtag  DW_TAG_base_type
    2326                    .dwattr $C$DW$T$8, DW_AT_encoding(DW_ATE_signed)
    2327                    .dwattr $C$DW$T$8, DW_AT_name("short")
MSP430 Assembler PC v15.12.3 Mon Oct 17 14:33:07 2016

Tools Copyright (c) 2003-2015 Texas Instruments Incorporated
C:\Users\madis\AppData\Local\Temp\027322                             PAGE   48

    2328                    .dwattr $C$DW$T$8, DW_AT_byte_size(0x02)
    2329            
    2330            $C$DW$T$9       .dwtag  DW_TAG_base_type
    2331                    .dwattr $C$DW$T$9, DW_AT_encoding(DW_ATE_unsigned)
    2332                    .dwattr $C$DW$T$9, DW_AT_name("unsigned short")
    2333                    .dwattr $C$DW$T$9, DW_AT_byte_size(0x02)
    2334            
    2335            $C$DW$T$10      .dwtag  DW_TAG_base_type
    2336                    .dwattr $C$DW$T$10, DW_AT_encoding(DW_ATE_signed)
    2337                    .dwattr $C$DW$T$10, DW_AT_name("int")
    2338                    .dwattr $C$DW$T$10, DW_AT_byte_size(0x02)
    2339            
    2340            $C$DW$T$30      .dwtag  DW_TAG_typedef
    2341                    .dwattr $C$DW$T$30, DW_AT_name("int16_t")
    2342                    .dwattr $C$DW$T$30, DW_AT_type(*$C$DW$T$10)
    2343                    .dwattr $C$DW$T$30, DW_AT_language(DW_LANG_C)
    2344                    .dwattr $C$DW$T$30, DW_AT_decl_file("D:/ti/ccsv6/tools/compiler/msp430_15.12.3.LTS/include/std
    2345                    .dwattr $C$DW$T$30, DW_AT_decl_line(0x2c)
    2346                    .dwattr $C$DW$T$30, DW_AT_decl_column(0x1d)
    2347            
    2348            $C$DW$T$31      .dwtag  DW_TAG_typedef
    2349                    .dwattr $C$DW$T$31, DW_AT_name("int_fast16_t")
    2350                    .dwattr $C$DW$T$31, DW_AT_type(*$C$DW$T$30)
    2351                    .dwattr $C$DW$T$31, DW_AT_language(DW_LANG_C)
    2352                    .dwattr $C$DW$T$31, DW_AT_decl_file("D:/ti/ccsv6/tools/compiler/msp430_15.12.3.LTS/include/std
    2353                    .dwattr $C$DW$T$31, DW_AT_decl_line(0x47)
    2354                    .dwattr $C$DW$T$31, DW_AT_decl_column(0x17)
    2355            
    2356            $C$DW$T$32      .dwtag  DW_TAG_typedef
    2357                    .dwattr $C$DW$T$32, DW_AT_name("int_fast8_t")
    2358                    .dwattr $C$DW$T$32, DW_AT_type(*$C$DW$T$30)
    2359                    .dwattr $C$DW$T$32, DW_AT_language(DW_LANG_C)
    2360                    .dwattr $C$DW$T$32, DW_AT_decl_file("D:/ti/ccsv6/tools/compiler/msp430_15.12.3.LTS/include/std
    2361                    .dwattr $C$DW$T$32, DW_AT_decl_line(0x45)
    2362                    .dwattr $C$DW$T$32, DW_AT_decl_column(0x17)
    2363            
    2364            $C$DW$T$33      .dwtag  DW_TAG_typedef
    2365                    .dwattr $C$DW$T$33, DW_AT_name("int_least16_t")
    2366                    .dwattr $C$DW$T$33, DW_AT_type(*$C$DW$T$30)
    2367                    .dwattr $C$DW$T$33, DW_AT_language(DW_LANG_C)
    2368                    .dwattr $C$DW$T$33, DW_AT_decl_file("D:/ti/ccsv6/tools/compiler/msp430_15.12.3.LTS/include/std
    2369                    .dwattr $C$DW$T$33, DW_AT_decl_line(0x3a)
    2370                    .dwattr $C$DW$T$33, DW_AT_decl_column(0x17)
    2371            
    2372            $C$DW$T$11      .dwtag  DW_TAG_base_type
    2373                    .dwattr $C$DW$T$11, DW_AT_encoding(DW_ATE_unsigned)
    2374                    .dwattr $C$DW$T$11, DW_AT_name("unsigned int")
    2375                    .dwattr $C$DW$T$11, DW_AT_byte_size(0x02)
    2376            
    2377            $C$DW$T$36      .dwtag  DW_TAG_typedef
    2378                    .dwattr $C$DW$T$36, DW_AT_name("uint16_t")
    2379                    .dwattr $C$DW$T$36, DW_AT_type(*$C$DW$T$11)
    2380                    .dwattr $C$DW$T$36, DW_AT_language(DW_LANG_C)
    2381                    .dwattr $C$DW$T$36, DW_AT_decl_file("D:/ti/ccsv6/tools/compiler/msp430_15.12.3.LTS/include/std
    2382                    .dwattr $C$DW$T$36, DW_AT_decl_line(0x2d)
MSP430 Assembler PC v15.12.3 Mon Oct 17 14:33:07 2016

Tools Copyright (c) 2003-2015 Texas Instruments Incorporated
C:\Users\madis\AppData\Local\Temp\027322                             PAGE   49

    2383                    .dwattr $C$DW$T$36, DW_AT_decl_column(0x1c)
    2384            
    2385            $C$DW$T$42      .dwtag  DW_TAG_typedef
    2386                    .dwattr $C$DW$T$42, DW_AT_name("uint_fast16_t")
    2387                    .dwattr $C$DW$T$42, DW_AT_type(*$C$DW$T$36)
    2388                    .dwattr $C$DW$T$42, DW_AT_language(DW_LANG_C)
    2389                    .dwattr $C$DW$T$42, DW_AT_decl_file("D:/ti/ccsv6/tools/compiler/msp430_15.12.3.LTS/include/std
    2390                    .dwattr $C$DW$T$42, DW_AT_decl_line(0x48)
    2391                    .dwattr $C$DW$T$42, DW_AT_decl_column(0x16)
    2392            
    2393            $C$DW$T$43      .dwtag  DW_TAG_typedef
    2394                    .dwattr $C$DW$T$43, DW_AT_name("uint_fast8_t")
    2395                    .dwattr $C$DW$T$43, DW_AT_type(*$C$DW$T$36)
    2396                    .dwattr $C$DW$T$43, DW_AT_language(DW_LANG_C)
    2397                    .dwattr $C$DW$T$43, DW_AT_decl_file("D:/ti/ccsv6/tools/compiler/msp430_15.12.3.LTS/include/std
    2398                    .dwattr $C$DW$T$43, DW_AT_decl_line(0x46)
    2399                    .dwattr $C$DW$T$43, DW_AT_decl_column(0x16)
    2400            
    2401            $C$DW$T$44      .dwtag  DW_TAG_typedef
    2402                    .dwattr $C$DW$T$44, DW_AT_name("uint_least16_t")
    2403                    .dwattr $C$DW$T$44, DW_AT_type(*$C$DW$T$36)
    2404                    .dwattr $C$DW$T$44, DW_AT_language(DW_LANG_C)
    2405                    .dwattr $C$DW$T$44, DW_AT_decl_file("D:/ti/ccsv6/tools/compiler/msp430_15.12.3.LTS/include/std
    2406                    .dwattr $C$DW$T$44, DW_AT_decl_line(0x3b)
    2407                    .dwattr $C$DW$T$44, DW_AT_decl_column(0x16)
    2408            
    2409            $C$DW$T$12      .dwtag  DW_TAG_base_type
    2410                    .dwattr $C$DW$T$12, DW_AT_encoding(DW_ATE_signed)
    2411                    .dwattr $C$DW$T$12, DW_AT_name("long")
    2412                    .dwattr $C$DW$T$12, DW_AT_byte_size(0x04)
    2413            
    2414            $C$DW$T$45      .dwtag  DW_TAG_typedef
    2415                    .dwattr $C$DW$T$45, DW_AT_name("int32_t")
    2416                    .dwattr $C$DW$T$45, DW_AT_type(*$C$DW$T$12)
    2417                    .dwattr $C$DW$T$45, DW_AT_language(DW_LANG_C)
    2418                    .dwattr $C$DW$T$45, DW_AT_decl_file("D:/ti/ccsv6/tools/compiler/msp430_15.12.3.LTS/include/std
    2419                    .dwattr $C$DW$T$45, DW_AT_decl_line(0x2e)
    2420                    .dwattr $C$DW$T$45, DW_AT_decl_column(0x1d)
    2421            
    2422            $C$DW$T$46      .dwtag  DW_TAG_typedef
    2423                    .dwattr $C$DW$T$46, DW_AT_name("int_fast32_t")
    2424                    .dwattr $C$DW$T$46, DW_AT_type(*$C$DW$T$45)
    2425                    .dwattr $C$DW$T$46, DW_AT_language(DW_LANG_C)
    2426                    .dwattr $C$DW$T$46, DW_AT_decl_file("D:/ti/ccsv6/tools/compiler/msp430_15.12.3.LTS/include/std
    2427                    .dwattr $C$DW$T$46, DW_AT_decl_line(0x4a)
    2428                    .dwattr $C$DW$T$46, DW_AT_decl_column(0x17)
    2429            
    2430            $C$DW$T$47      .dwtag  DW_TAG_typedef
    2431                    .dwattr $C$DW$T$47, DW_AT_name("int_least32_t")
    2432                    .dwattr $C$DW$T$47, DW_AT_type(*$C$DW$T$45)
    2433                    .dwattr $C$DW$T$47, DW_AT_language(DW_LANG_C)
    2434                    .dwattr $C$DW$T$47, DW_AT_decl_file("D:/ti/ccsv6/tools/compiler/msp430_15.12.3.LTS/include/std
    2435                    .dwattr $C$DW$T$47, DW_AT_decl_line(0x3c)
    2436                    .dwattr $C$DW$T$47, DW_AT_decl_column(0x17)
    2437            
MSP430 Assembler PC v15.12.3 Mon Oct 17 14:33:07 2016

Tools Copyright (c) 2003-2015 Texas Instruments Incorporated
C:\Users\madis\AppData\Local\Temp\027322                             PAGE   50

    2438            $C$DW$T$48      .dwtag  DW_TAG_typedef
    2439                    .dwattr $C$DW$T$48, DW_AT_name("intptr_t")
    2440                    .dwattr $C$DW$T$48, DW_AT_type(*$C$DW$T$12)
    2441                    .dwattr $C$DW$T$48, DW_AT_language(DW_LANG_C)
    2442                    .dwattr $C$DW$T$48, DW_AT_decl_file("D:/ti/ccsv6/tools/compiler/msp430_15.12.3.LTS/include/std
    2443                    .dwattr $C$DW$T$48, DW_AT_decl_line(0x55)
    2444                    .dwattr $C$DW$T$48, DW_AT_decl_column(0x1b)
    2445            
    2446            $C$DW$T$13      .dwtag  DW_TAG_base_type
    2447                    .dwattr $C$DW$T$13, DW_AT_encoding(DW_ATE_unsigned)
    2448                    .dwattr $C$DW$T$13, DW_AT_name("unsigned long")
    2449                    .dwattr $C$DW$T$13, DW_AT_byte_size(0x04)
    2450            
    2451            $C$DW$T$49      .dwtag  DW_TAG_typedef
    2452                    .dwattr $C$DW$T$49, DW_AT_name("uint32_t")
    2453                    .dwattr $C$DW$T$49, DW_AT_type(*$C$DW$T$13)
    2454                    .dwattr $C$DW$T$49, DW_AT_language(DW_LANG_C)
    2455                    .dwattr $C$DW$T$49, DW_AT_decl_file("D:/ti/ccsv6/tools/compiler/msp430_15.12.3.LTS/include/std
    2456                    .dwattr $C$DW$T$49, DW_AT_decl_line(0x2f)
    2457                    .dwattr $C$DW$T$49, DW_AT_decl_column(0x1c)
    2458            
    2459            $C$DW$T$50      .dwtag  DW_TAG_typedef
    2460                    .dwattr $C$DW$T$50, DW_AT_name("uint_fast32_t")
    2461                    .dwattr $C$DW$T$50, DW_AT_type(*$C$DW$T$49)
    2462                    .dwattr $C$DW$T$50, DW_AT_language(DW_LANG_C)
    2463                    .dwattr $C$DW$T$50, DW_AT_decl_file("D:/ti/ccsv6/tools/compiler/msp430_15.12.3.LTS/include/std
    2464                    .dwattr $C$DW$T$50, DW_AT_decl_line(0x4b)
    2465                    .dwattr $C$DW$T$50, DW_AT_decl_column(0x16)
    2466            
    2467            $C$DW$T$51      .dwtag  DW_TAG_typedef
    2468                    .dwattr $C$DW$T$51, DW_AT_name("uint_least32_t")
    2469                    .dwattr $C$DW$T$51, DW_AT_type(*$C$DW$T$49)
    2470                    .dwattr $C$DW$T$51, DW_AT_language(DW_LANG_C)
    2471                    .dwattr $C$DW$T$51, DW_AT_decl_file("D:/ti/ccsv6/tools/compiler/msp430_15.12.3.LTS/include/std
    2472                    .dwattr $C$DW$T$51, DW_AT_decl_line(0x3d)
    2473                    .dwattr $C$DW$T$51, DW_AT_decl_column(0x16)
    2474            
    2475            $C$DW$T$52      .dwtag  DW_TAG_typedef
    2476                    .dwattr $C$DW$T$52, DW_AT_name("uintptr_t")
    2477                    .dwattr $C$DW$T$52, DW_AT_type(*$C$DW$T$13)
    2478                    .dwattr $C$DW$T$52, DW_AT_language(DW_LANG_C)
    2479                    .dwattr $C$DW$T$52, DW_AT_decl_file("D:/ti/ccsv6/tools/compiler/msp430_15.12.3.LTS/include/std
    2480                    .dwattr $C$DW$T$52, DW_AT_decl_line(0x56)
    2481                    .dwattr $C$DW$T$52, DW_AT_decl_column(0x1b)
    2482            
    2483            $C$DW$T$14      .dwtag  DW_TAG_base_type
    2484                    .dwattr $C$DW$T$14, DW_AT_encoding(DW_ATE_signed)
    2485                    .dwattr $C$DW$T$14, DW_AT_name("long long")
    2486                    .dwattr $C$DW$T$14, DW_AT_byte_size(0x08)
    2487            
    2488            $C$DW$T$53      .dwtag  DW_TAG_typedef
    2489                    .dwattr $C$DW$T$53, DW_AT_name("int64_t")
    2490                    .dwattr $C$DW$T$53, DW_AT_type(*$C$DW$T$14)
    2491                    .dwattr $C$DW$T$53, DW_AT_language(DW_LANG_C)
    2492                    .dwattr $C$DW$T$53, DW_AT_decl_file("D:/ti/ccsv6/tools/compiler/msp430_15.12.3.LTS/include/std
MSP430 Assembler PC v15.12.3 Mon Oct 17 14:33:07 2016

Tools Copyright (c) 2003-2015 Texas Instruments Incorporated
C:\Users\madis\AppData\Local\Temp\027322                             PAGE   51

    2493                    .dwattr $C$DW$T$53, DW_AT_decl_line(0x32)
    2494                    .dwattr $C$DW$T$53, DW_AT_decl_column(0x21)
    2495            
    2496            $C$DW$T$54      .dwtag  DW_TAG_typedef
    2497                    .dwattr $C$DW$T$54, DW_AT_name("int_fast64_t")
    2498                    .dwattr $C$DW$T$54, DW_AT_type(*$C$DW$T$53)
    2499                    .dwattr $C$DW$T$54, DW_AT_language(DW_LANG_C)
    2500                    .dwattr $C$DW$T$54, DW_AT_decl_file("D:/ti/ccsv6/tools/compiler/msp430_15.12.3.LTS/include/std
    2501                    .dwattr $C$DW$T$54, DW_AT_decl_line(0x4e)
    2502                    .dwattr $C$DW$T$54, DW_AT_decl_column(0x17)
    2503            
    2504            $C$DW$T$55      .dwtag  DW_TAG_typedef
    2505                    .dwattr $C$DW$T$55, DW_AT_name("int_least64_t")
    2506                    .dwattr $C$DW$T$55, DW_AT_type(*$C$DW$T$53)
    2507                    .dwattr $C$DW$T$55, DW_AT_language(DW_LANG_C)
    2508                    .dwattr $C$DW$T$55, DW_AT_decl_file("D:/ti/ccsv6/tools/compiler/msp430_15.12.3.LTS/include/std
    2509                    .dwattr $C$DW$T$55, DW_AT_decl_line(0x40)
    2510                    .dwattr $C$DW$T$55, DW_AT_decl_column(0x17)
    2511            
    2512            $C$DW$T$56      .dwtag  DW_TAG_typedef
    2513                    .dwattr $C$DW$T$56, DW_AT_name("intmax_t")
    2514                    .dwattr $C$DW$T$56, DW_AT_type(*$C$DW$T$14)
    2515                    .dwattr $C$DW$T$56, DW_AT_language(DW_LANG_C)
    2516                    .dwattr $C$DW$T$56, DW_AT_decl_file("D:/ti/ccsv6/tools/compiler/msp430_15.12.3.LTS/include/std
    2517                    .dwattr $C$DW$T$56, DW_AT_decl_line(0x5d)
    2518                    .dwattr $C$DW$T$56, DW_AT_decl_column(0x20)
    2519            
    2520            $C$DW$T$15      .dwtag  DW_TAG_base_type
    2521                    .dwattr $C$DW$T$15, DW_AT_encoding(DW_ATE_unsigned)
    2522                    .dwattr $C$DW$T$15, DW_AT_name("unsigned long long")
    2523                    .dwattr $C$DW$T$15, DW_AT_byte_size(0x08)
    2524            
    2525            $C$DW$T$57      .dwtag  DW_TAG_typedef
    2526                    .dwattr $C$DW$T$57, DW_AT_name("uint64_t")
    2527                    .dwattr $C$DW$T$57, DW_AT_type(*$C$DW$T$15)
    2528                    .dwattr $C$DW$T$57, DW_AT_language(DW_LANG_C)
    2529                    .dwattr $C$DW$T$57, DW_AT_decl_file("D:/ti/ccsv6/tools/compiler/msp430_15.12.3.LTS/include/std
    2530                    .dwattr $C$DW$T$57, DW_AT_decl_line(0x33)
    2531                    .dwattr $C$DW$T$57, DW_AT_decl_column(0x20)
    2532            
    2533            $C$DW$T$58      .dwtag  DW_TAG_typedef
    2534                    .dwattr $C$DW$T$58, DW_AT_name("uint_fast64_t")
    2535                    .dwattr $C$DW$T$58, DW_AT_type(*$C$DW$T$57)
    2536                    .dwattr $C$DW$T$58, DW_AT_language(DW_LANG_C)
    2537                    .dwattr $C$DW$T$58, DW_AT_decl_file("D:/ti/ccsv6/tools/compiler/msp430_15.12.3.LTS/include/std
    2538                    .dwattr $C$DW$T$58, DW_AT_decl_line(0x4f)
    2539                    .dwattr $C$DW$T$58, DW_AT_decl_column(0x16)
    2540            
    2541            $C$DW$T$59      .dwtag  DW_TAG_typedef
    2542                    .dwattr $C$DW$T$59, DW_AT_name("uint_least64_t")
    2543                    .dwattr $C$DW$T$59, DW_AT_type(*$C$DW$T$57)
    2544                    .dwattr $C$DW$T$59, DW_AT_language(DW_LANG_C)
    2545                    .dwattr $C$DW$T$59, DW_AT_decl_file("D:/ti/ccsv6/tools/compiler/msp430_15.12.3.LTS/include/std
    2546                    .dwattr $C$DW$T$59, DW_AT_decl_line(0x41)
    2547                    .dwattr $C$DW$T$59, DW_AT_decl_column(0x16)
MSP430 Assembler PC v15.12.3 Mon Oct 17 14:33:07 2016

Tools Copyright (c) 2003-2015 Texas Instruments Incorporated
C:\Users\madis\AppData\Local\Temp\027322                             PAGE   52

    2548            
    2549            $C$DW$T$60      .dwtag  DW_TAG_typedef
    2550                    .dwattr $C$DW$T$60, DW_AT_name("uintmax_t")
    2551                    .dwattr $C$DW$T$60, DW_AT_type(*$C$DW$T$15)
    2552                    .dwattr $C$DW$T$60, DW_AT_language(DW_LANG_C)
    2553                    .dwattr $C$DW$T$60, DW_AT_decl_file("D:/ti/ccsv6/tools/compiler/msp430_15.12.3.LTS/include/std
    2554                    .dwattr $C$DW$T$60, DW_AT_decl_line(0x5e)
    2555                    .dwattr $C$DW$T$60, DW_AT_decl_column(0x20)
    2556            
    2557            $C$DW$T$16      .dwtag  DW_TAG_base_type
    2558                    .dwattr $C$DW$T$16, DW_AT_encoding(DW_ATE_float)
    2559                    .dwattr $C$DW$T$16, DW_AT_name("float")
    2560                    .dwattr $C$DW$T$16, DW_AT_byte_size(0x04)
    2561            
    2562            $C$DW$T$17      .dwtag  DW_TAG_base_type
    2563                    .dwattr $C$DW$T$17, DW_AT_encoding(DW_ATE_float)
    2564                    .dwattr $C$DW$T$17, DW_AT_name("double")
    2565                    .dwattr $C$DW$T$17, DW_AT_byte_size(0x08)
    2566            
    2567            $C$DW$T$18      .dwtag  DW_TAG_base_type
    2568                    .dwattr $C$DW$T$18, DW_AT_encoding(DW_ATE_float)
    2569                    .dwattr $C$DW$T$18, DW_AT_name("long double")
    2570                    .dwattr $C$DW$T$18, DW_AT_byte_size(0x08)
    2571            
    2572            $C$DW$T$61      .dwtag  DW_TAG_base_type
    2573                    .dwattr $C$DW$T$61, DW_AT_encoding(DW_ATE_unsigned_char)
    2574                    .dwattr $C$DW$T$61, DW_AT_name("unsigned char")
    2575                    .dwattr $C$DW$T$61, DW_AT_byte_size(0x01)
    2576            
    2577                    .dwattr $C$DW$CU, DW_AT_language(DW_LANG_C)
    2578            
    2579            ;***************************************************************
    2580            ;* DWARF CIE ENTRIES                                           *
    2581            ;***************************************************************
    2582            
    2583            $C$DW$CIE       .dwcie 16
    2584                    .dwcfi  cfa_register, 1
    2585                    .dwcfi  cfa_offset, 0
    2586                    .dwcfi  same_value, 0
    2587                    .dwcfi  same_value, 1
    2588                    .dwcfi  undefined, 2
    2589                    .dwcfi  same_value, 3
    2590                    .dwcfi  same_value, 4
    2591                    .dwcfi  same_value, 5
    2592                    .dwcfi  same_value, 6
    2593                    .dwcfi  same_value, 7
    2594                    .dwcfi  same_value, 8
    2595                    .dwcfi  same_value, 9
    2596                    .dwcfi  same_value, 10
    2597                    .dwcfi  undefined, 11
    2598                    .dwcfi  undefined, 12
    2599                    .dwcfi  undefined, 13
    2600                    .dwcfi  undefined, 14
    2601                    .dwcfi  undefined, 15
    2602                    .dwcfi  undefined, 16
MSP430 Assembler PC v15.12.3 Mon Oct 17 14:33:07 2016

Tools Copyright (c) 2003-2015 Texas Instruments Incorporated
C:\Users\madis\AppData\Local\Temp\027322                             PAGE   53

    2603                    .dwendentry
    2604            
    2605            ;***************************************************************
    2606            ;* DWARF REGISTER MAP                                          *
    2607            ;***************************************************************
    2608            
    2609            $C$DW$88        .dwtag  DW_TAG_TI_assign_register
    2610                    .dwattr $C$DW$88, DW_AT_name("PC")
    2611                    .dwattr $C$DW$88, DW_AT_location[DW_OP_reg0]
    2612            
    2613            $C$DW$89        .dwtag  DW_TAG_TI_assign_register
    2614                    .dwattr $C$DW$89, DW_AT_name("SP")
    2615                    .dwattr $C$DW$89, DW_AT_location[DW_OP_reg1]
    2616            
    2617            $C$DW$90        .dwtag  DW_TAG_TI_assign_register
    2618                    .dwattr $C$DW$90, DW_AT_name("SR")
    2619                    .dwattr $C$DW$90, DW_AT_location[DW_OP_reg2]
    2620            
    2621            $C$DW$91        .dwtag  DW_TAG_TI_assign_register
    2622                    .dwattr $C$DW$91, DW_AT_name("CG")
    2623                    .dwattr $C$DW$91, DW_AT_location[DW_OP_reg3]
    2624            
    2625            $C$DW$92        .dwtag  DW_TAG_TI_assign_register
    2626                    .dwattr $C$DW$92, DW_AT_name("r4")
    2627                    .dwattr $C$DW$92, DW_AT_location[DW_OP_reg4]
    2628            
    2629            $C$DW$93        .dwtag  DW_TAG_TI_assign_register
    2630                    .dwattr $C$DW$93, DW_AT_name("r5")
    2631                    .dwattr $C$DW$93, DW_AT_location[DW_OP_reg5]
    2632            
    2633            $C$DW$94        .dwtag  DW_TAG_TI_assign_register
    2634                    .dwattr $C$DW$94, DW_AT_name("r6")
    2635                    .dwattr $C$DW$94, DW_AT_location[DW_OP_reg6]
    2636            
    2637            $C$DW$95        .dwtag  DW_TAG_TI_assign_register
    2638                    .dwattr $C$DW$95, DW_AT_name("r7")
    2639                    .dwattr $C$DW$95, DW_AT_location[DW_OP_reg7]
    2640            
    2641            $C$DW$96        .dwtag  DW_TAG_TI_assign_register
    2642                    .dwattr $C$DW$96, DW_AT_name("r8")
    2643                    .dwattr $C$DW$96, DW_AT_location[DW_OP_reg8]
    2644            
    2645            $C$DW$97        .dwtag  DW_TAG_TI_assign_register
    2646                    .dwattr $C$DW$97, DW_AT_name("r9")
    2647                    .dwattr $C$DW$97, DW_AT_location[DW_OP_reg9]
    2648            
    2649            $C$DW$98        .dwtag  DW_TAG_TI_assign_register
    2650                    .dwattr $C$DW$98, DW_AT_name("r10")
    2651                    .dwattr $C$DW$98, DW_AT_location[DW_OP_reg10]
    2652            
    2653            $C$DW$99        .dwtag  DW_TAG_TI_assign_register
    2654                    .dwattr $C$DW$99, DW_AT_name("r11")
    2655                    .dwattr $C$DW$99, DW_AT_location[DW_OP_reg11]
    2656            
    2657            $C$DW$100       .dwtag  DW_TAG_TI_assign_register
MSP430 Assembler PC v15.12.3 Mon Oct 17 14:33:07 2016

Tools Copyright (c) 2003-2015 Texas Instruments Incorporated
C:\Users\madis\AppData\Local\Temp\027322                             PAGE   54

    2658                    .dwattr $C$DW$100, DW_AT_name("r12")
    2659                    .dwattr $C$DW$100, DW_AT_location[DW_OP_reg12]
    2660            
    2661            $C$DW$101       .dwtag  DW_TAG_TI_assign_register
    2662                    .dwattr $C$DW$101, DW_AT_name("r13")
    2663                    .dwattr $C$DW$101, DW_AT_location[DW_OP_reg13]
    2664            
    2665            $C$DW$102       .dwtag  DW_TAG_TI_assign_register
    2666                    .dwattr $C$DW$102, DW_AT_name("r14")
    2667                    .dwattr $C$DW$102, DW_AT_location[DW_OP_reg14]
    2668            
    2669            $C$DW$103       .dwtag  DW_TAG_TI_assign_register
    2670                    .dwattr $C$DW$103, DW_AT_name("r15")
    2671                    .dwattr $C$DW$103, DW_AT_location[DW_OP_reg15]
    2672            
    2673            $C$DW$104       .dwtag  DW_TAG_TI_assign_register
    2674                    .dwattr $C$DW$104, DW_AT_name("CIE_RETA")
    2675                    .dwattr $C$DW$104, DW_AT_location[DW_OP_reg16]
    2676            
    2677                    .dwendtag $C$DW$CU
    2678            

No Assembly Errors, No Assembly Warnings
