MSP430 Assembler PC v15.12.3 Wed Oct 12 11:19:42 2016

Tools Copyright (c) 2003-2015 Texas Instruments Incorporated
C:\Users\LokBok\AppData\Local\Temp\121442                            PAGE    1

       1            ;******************************************************************************
       2            ;* MSP430 C/C++ Codegen                                       PC v15.12.3.LTS *
       3            ;* Date/Time created: Wed Oct 12 11:19:42 2016                                *
       4            ;******************************************************************************
       5                    .compiler_opts --abi=eabi --diag_wrap=off --hll_source=on --mem_model:code=large --mem_model:d
       6            
       7            $C$DW$CU        .dwtag  DW_TAG_compile_unit
       8                    .dwattr $C$DW$CU, DW_AT_name("../MSP430F5xx_6xx/ref.c")
       9                    .dwattr $C$DW$CU, DW_AT_producer("TI MSP430 C/C++ Codegen PC v15.12.3.LTS Copyright (c) 2003-2
      10                    .dwattr $C$DW$CU, DW_AT_TI_version(0x01)
      11                    .dwattr $C$DW$CU, DW_AT_comp_dir("D:\Programmeerimine\Code Composer WS\CardReader\src\Debug")
      12            ;       D:\Program Files\TI CCSv6\ccsv6\tools\compiler\msp430_15.12.3.LTS\bin\opt430.exe D:/Programmee
      13 000000               .sect   ".text:Ref_setReferenceVoltage"
      14                    .clink
      15                    .global Ref_setReferenceVoltage
      16            
      17            $C$DW$1 .dwtag  DW_TAG_subprogram
      18                    .dwattr $C$DW$1, DW_AT_name("Ref_setReferenceVoltage")
      19                    .dwattr $C$DW$1, DW_AT_low_pc(Ref_setReferenceVoltage)
      20                    .dwattr $C$DW$1, DW_AT_high_pc(0x00)
      21                    .dwattr $C$DW$1, DW_AT_TI_symbol_name("Ref_setReferenceVoltage")
      22                    .dwattr $C$DW$1, DW_AT_external
      23                    .dwattr $C$DW$1, DW_AT_TI_begin_file("../MSP430F5xx_6xx/ref.c")
      24                    .dwattr $C$DW$1, DW_AT_TI_begin_line(0x34)
      25                    .dwattr $C$DW$1, DW_AT_TI_begin_column(0x06)
      26                    .dwattr $C$DW$1, DW_AT_decl_file("../MSP430F5xx_6xx/ref.c")
      27                    .dwattr $C$DW$1, DW_AT_decl_line(0x34)
      28                    .dwattr $C$DW$1, DW_AT_decl_column(0x06)
      29                    .dwattr $C$DW$1, DW_AT_TI_max_frame_size(0x04)
      30                    .dwpsn  file "../MSP430F5xx_6xx/ref.c",line 54,column 1,is_stmt,address Ref_setReferenceVoltag
      31            
      32                    .dwfde $C$DW$CIE, Ref_setReferenceVoltage
      33            $C$DW$2 .dwtag  DW_TAG_formal_parameter
      34                    .dwattr $C$DW$2, DW_AT_name("baseAddress")
      35                    .dwattr $C$DW$2, DW_AT_TI_symbol_name("baseAddress")
      36                    .dwattr $C$DW$2, DW_AT_type(*$C$DW$T$19)
      37                    .dwattr $C$DW$2, DW_AT_location[DW_OP_reg12]
      38            
      39            $C$DW$3 .dwtag  DW_TAG_formal_parameter
      40                    .dwattr $C$DW$3, DW_AT_name("referenceVoltageSelect")
      41                    .dwattr $C$DW$3, DW_AT_TI_symbol_name("referenceVoltageSelect")
      42                    .dwattr $C$DW$3, DW_AT_type(*$C$DW$T$20)
      43                    .dwattr $C$DW$3, DW_AT_location[DW_OP_reg13]
      44            
      45            
      46            ;*****************************************************************************
      47            ;* FUNCTION NAME: Ref_setReferenceVoltage                                    *
      48            ;*                                                                           *
      49            ;*   Regs Modified     : SP,SR                                               *
      50            ;*   Regs Used         : SP,SR,r12,r13                                       *
      51            ;*   Local Frame Size  : 0 Args + 0 Auto + 0 Save = 0 byte                   *
      52            ;*****************************************************************************
      53 000000       Ref_setReferenceVoltage:
      54            ;* --------------------------------------------------------------------------*
      55                    .dwcfi  cfa_offset, 4
MSP430 Assembler PC v15.12.3 Wed Oct 12 11:19:42 2016

Tools Copyright (c) 2003-2015 Texas Instruments Incorporated
C:\Users\LokBok\AppData\Local\Temp\121442                            PAGE    2

      56                    .dwcfi  save_reg_to_mem, 16, -4
      57            ;* r12   assigned to baseAddress
      58            $C$DW$4 .dwtag  DW_TAG_variable
      59                    .dwattr $C$DW$4, DW_AT_name("baseAddress")
      60                    .dwattr $C$DW$4, DW_AT_TI_symbol_name("baseAddress")
      61                    .dwattr $C$DW$4, DW_AT_type(*$C$DW$T$19)
      62                    .dwattr $C$DW$4, DW_AT_location[DW_OP_reg12]
      63            
      64            ;* r13   assigned to referenceVoltageSelect
      65            $C$DW$5 .dwtag  DW_TAG_variable
      66                    .dwattr $C$DW$5, DW_AT_name("referenceVoltageSelect")
      67                    .dwattr $C$DW$5, DW_AT_TI_symbol_name("referenceVoltageSelect")
      68                    .dwattr $C$DW$5, DW_AT_type(*$C$DW$T$20)
      69                    .dwattr $C$DW$5, DW_AT_location[DW_OP_reg13]
      70            
      71                    .dwpsn  file "../MSP430F5xx_6xx/ref.c",line 55,column 5,is_stmt,isa 0
      72 000000 F0FC          AND.B     #207,0(r12)           ; [] |55| 
         000002 00CF 
         000004 0000 
      73                    .dwpsn  file "../MSP430F5xx_6xx/ref.c",line 56,column 5,is_stmt,isa 0
      74 000006 DDCC          OR.B      r13,0(r12)            ; [] |56| 
         000008 0000 
      75                    .dwpsn  file "../MSP430F5xx_6xx/ref.c",line 57,column 1,is_stmt,isa 0
      76            $C$DW$6 .dwtag  DW_TAG_TI_branch
      77                    .dwattr $C$DW$6, DW_AT_low_pc(0x00)
      78                    .dwattr $C$DW$6, DW_AT_TI_return
      79            
      80 00000a 0110          RETA      ; [] 
      81                    ; [] 
      82                    .dwattr $C$DW$1, DW_AT_TI_end_file("../MSP430F5xx_6xx/ref.c")
      83                    .dwattr $C$DW$1, DW_AT_TI_end_line(0x39)
      84                    .dwattr $C$DW$1, DW_AT_TI_end_column(0x01)
      85                    .dwendentry
      86                    .dwendtag $C$DW$1
      87            
      88 000000               .sect   ".text:Ref_disableTempSensor"
      89                    .clink
      90                    .global Ref_disableTempSensor
      91            
      92            $C$DW$7 .dwtag  DW_TAG_subprogram
      93                    .dwattr $C$DW$7, DW_AT_name("Ref_disableTempSensor")
      94                    .dwattr $C$DW$7, DW_AT_low_pc(Ref_disableTempSensor)
      95                    .dwattr $C$DW$7, DW_AT_high_pc(0x00)
      96                    .dwattr $C$DW$7, DW_AT_TI_symbol_name("Ref_disableTempSensor")
      97                    .dwattr $C$DW$7, DW_AT_external
      98                    .dwattr $C$DW$7, DW_AT_TI_begin_file("../MSP430F5xx_6xx/ref.c")
      99                    .dwattr $C$DW$7, DW_AT_TI_begin_line(0x3b)
     100                    .dwattr $C$DW$7, DW_AT_TI_begin_column(0x06)
     101                    .dwattr $C$DW$7, DW_AT_decl_file("../MSP430F5xx_6xx/ref.c")
     102                    .dwattr $C$DW$7, DW_AT_decl_line(0x3b)
     103                    .dwattr $C$DW$7, DW_AT_decl_column(0x06)
     104                    .dwattr $C$DW$7, DW_AT_TI_max_frame_size(0x04)
     105                    .dwpsn  file "../MSP430F5xx_6xx/ref.c",line 60,column 1,is_stmt,address Ref_disableTempSensor,
     106            
     107                    .dwfde $C$DW$CIE, Ref_disableTempSensor
MSP430 Assembler PC v15.12.3 Wed Oct 12 11:19:42 2016

Tools Copyright (c) 2003-2015 Texas Instruments Incorporated
C:\Users\LokBok\AppData\Local\Temp\121442                            PAGE    3

     108            $C$DW$8 .dwtag  DW_TAG_formal_parameter
     109                    .dwattr $C$DW$8, DW_AT_name("baseAddress")
     110                    .dwattr $C$DW$8, DW_AT_TI_symbol_name("baseAddress")
     111                    .dwattr $C$DW$8, DW_AT_type(*$C$DW$T$19)
     112                    .dwattr $C$DW$8, DW_AT_location[DW_OP_reg12]
     113            
     114            
     115            ;*****************************************************************************
     116            ;* FUNCTION NAME: Ref_disableTempSensor                                      *
     117            ;*                                                                           *
     118            ;*   Regs Modified     : SP                                                  *
     119            ;*   Regs Used         : SP,r12                                              *
     120            ;*   Local Frame Size  : 0 Args + 0 Auto + 0 Save = 0 byte                   *
     121            ;*****************************************************************************
     122 000000       Ref_disableTempSensor:
     123            ;* --------------------------------------------------------------------------*
     124                    .dwcfi  cfa_offset, 4
     125                    .dwcfi  save_reg_to_mem, 16, -4
     126            ;* r12   assigned to baseAddress
     127            $C$DW$9 .dwtag  DW_TAG_variable
     128                    .dwattr $C$DW$9, DW_AT_name("baseAddress")
     129                    .dwattr $C$DW$9, DW_AT_TI_symbol_name("baseAddress")
     130                    .dwattr $C$DW$9, DW_AT_type(*$C$DW$T$19)
     131                    .dwattr $C$DW$9, DW_AT_location[DW_OP_reg12]
     132            
     133                    .dwpsn  file "../MSP430F5xx_6xx/ref.c",line 61,column 5,is_stmt,isa 0
     134 000000 D2FC          OR.B      #8,0(r12)             ; [] |61| 
         000002 0000 
     135                    .dwpsn  file "../MSP430F5xx_6xx/ref.c",line 62,column 1,is_stmt,isa 0
     136            $C$DW$10        .dwtag  DW_TAG_TI_branch
     137                    .dwattr $C$DW$10, DW_AT_low_pc(0x00)
     138                    .dwattr $C$DW$10, DW_AT_TI_return
     139            
     140 000004 0110          RETA      ; [] 
     141                    ; [] 
     142                    .dwattr $C$DW$7, DW_AT_TI_end_file("../MSP430F5xx_6xx/ref.c")
     143                    .dwattr $C$DW$7, DW_AT_TI_end_line(0x3e)
     144                    .dwattr $C$DW$7, DW_AT_TI_end_column(0x01)
     145                    .dwendentry
     146                    .dwendtag $C$DW$7
     147            
     148 000000               .sect   ".text:Ref_enableTempSensor"
     149                    .clink
     150                    .global Ref_enableTempSensor
     151            
     152            $C$DW$11        .dwtag  DW_TAG_subprogram
     153                    .dwattr $C$DW$11, DW_AT_name("Ref_enableTempSensor")
     154                    .dwattr $C$DW$11, DW_AT_low_pc(Ref_enableTempSensor)
     155                    .dwattr $C$DW$11, DW_AT_high_pc(0x00)
     156                    .dwattr $C$DW$11, DW_AT_TI_symbol_name("Ref_enableTempSensor")
     157                    .dwattr $C$DW$11, DW_AT_external
     158                    .dwattr $C$DW$11, DW_AT_TI_begin_file("../MSP430F5xx_6xx/ref.c")
     159                    .dwattr $C$DW$11, DW_AT_TI_begin_line(0x40)
     160                    .dwattr $C$DW$11, DW_AT_TI_begin_column(0x06)
     161                    .dwattr $C$DW$11, DW_AT_decl_file("../MSP430F5xx_6xx/ref.c")
MSP430 Assembler PC v15.12.3 Wed Oct 12 11:19:42 2016

Tools Copyright (c) 2003-2015 Texas Instruments Incorporated
C:\Users\LokBok\AppData\Local\Temp\121442                            PAGE    4

     162                    .dwattr $C$DW$11, DW_AT_decl_line(0x40)
     163                    .dwattr $C$DW$11, DW_AT_decl_column(0x06)
     164                    .dwattr $C$DW$11, DW_AT_TI_max_frame_size(0x04)
     165                    .dwpsn  file "../MSP430F5xx_6xx/ref.c",line 65,column 1,is_stmt,address Ref_enableTempSensor,i
     166            
     167                    .dwfde $C$DW$CIE, Ref_enableTempSensor
     168            $C$DW$12        .dwtag  DW_TAG_formal_parameter
     169                    .dwattr $C$DW$12, DW_AT_name("baseAddress")
     170                    .dwattr $C$DW$12, DW_AT_TI_symbol_name("baseAddress")
     171                    .dwattr $C$DW$12, DW_AT_type(*$C$DW$T$19)
     172                    .dwattr $C$DW$12, DW_AT_location[DW_OP_reg12]
     173            
     174            
     175            ;*****************************************************************************
     176            ;* FUNCTION NAME: Ref_enableTempSensor                                       *
     177            ;*                                                                           *
     178            ;*   Regs Modified     : SP                                                  *
     179            ;*   Regs Used         : SP,r12                                              *
     180            ;*   Local Frame Size  : 0 Args + 0 Auto + 0 Save = 0 byte                   *
     181            ;*****************************************************************************
     182 000000       Ref_enableTempSensor:
     183            ;* --------------------------------------------------------------------------*
     184                    .dwcfi  cfa_offset, 4
     185                    .dwcfi  save_reg_to_mem, 16, -4
     186            ;* r12   assigned to baseAddress
     187            $C$DW$13        .dwtag  DW_TAG_variable
     188                    .dwattr $C$DW$13, DW_AT_name("baseAddress")
     189                    .dwattr $C$DW$13, DW_AT_TI_symbol_name("baseAddress")
     190                    .dwattr $C$DW$13, DW_AT_type(*$C$DW$T$19)
     191                    .dwattr $C$DW$13, DW_AT_location[DW_OP_reg12]
     192            
     193                    .dwpsn  file "../MSP430F5xx_6xx/ref.c",line 66,column 5,is_stmt,isa 0
     194 000000 C2FC          BIC.B     #8,0(r12)             ; [] |66| 
         000002 0000 
     195                    .dwpsn  file "../MSP430F5xx_6xx/ref.c",line 67,column 1,is_stmt,isa 0
     196            $C$DW$14        .dwtag  DW_TAG_TI_branch
     197                    .dwattr $C$DW$14, DW_AT_low_pc(0x00)
     198                    .dwattr $C$DW$14, DW_AT_TI_return
     199            
     200 000004 0110          RETA      ; [] 
     201                    ; [] 
     202                    .dwattr $C$DW$11, DW_AT_TI_end_file("../MSP430F5xx_6xx/ref.c")
     203                    .dwattr $C$DW$11, DW_AT_TI_end_line(0x43)
     204                    .dwattr $C$DW$11, DW_AT_TI_end_column(0x01)
     205                    .dwendentry
     206                    .dwendtag $C$DW$11
     207            
     208 000000               .sect   ".text:Ref_enableReferenceVoltageOutput"
     209                    .clink
     210                    .global Ref_enableReferenceVoltageOutput
     211            
     212            $C$DW$15        .dwtag  DW_TAG_subprogram
     213                    .dwattr $C$DW$15, DW_AT_name("Ref_enableReferenceVoltageOutput")
     214                    .dwattr $C$DW$15, DW_AT_low_pc(Ref_enableReferenceVoltageOutput)
     215                    .dwattr $C$DW$15, DW_AT_high_pc(0x00)
MSP430 Assembler PC v15.12.3 Wed Oct 12 11:19:42 2016

Tools Copyright (c) 2003-2015 Texas Instruments Incorporated
C:\Users\LokBok\AppData\Local\Temp\121442                            PAGE    5

     216                    .dwattr $C$DW$15, DW_AT_TI_symbol_name("Ref_enableReferenceVoltageOutput")
     217                    .dwattr $C$DW$15, DW_AT_external
     218                    .dwattr $C$DW$15, DW_AT_TI_begin_file("../MSP430F5xx_6xx/ref.c")
     219                    .dwattr $C$DW$15, DW_AT_TI_begin_line(0x45)
     220                    .dwattr $C$DW$15, DW_AT_TI_begin_column(0x06)
     221                    .dwattr $C$DW$15, DW_AT_decl_file("../MSP430F5xx_6xx/ref.c")
     222                    .dwattr $C$DW$15, DW_AT_decl_line(0x45)
     223                    .dwattr $C$DW$15, DW_AT_decl_column(0x06)
     224                    .dwattr $C$DW$15, DW_AT_TI_max_frame_size(0x04)
     225                    .dwpsn  file "../MSP430F5xx_6xx/ref.c",line 70,column 1,is_stmt,address Ref_enableReferenceVol
     226            
     227                    .dwfde $C$DW$CIE, Ref_enableReferenceVoltageOutput
     228            $C$DW$16        .dwtag  DW_TAG_formal_parameter
     229                    .dwattr $C$DW$16, DW_AT_name("baseAddress")
     230                    .dwattr $C$DW$16, DW_AT_TI_symbol_name("baseAddress")
     231                    .dwattr $C$DW$16, DW_AT_type(*$C$DW$T$19)
     232                    .dwattr $C$DW$16, DW_AT_location[DW_OP_reg12]
     233            
     234            
     235            ;*****************************************************************************
     236            ;* FUNCTION NAME: Ref_enableReferenceVoltageOutput                           *
     237            ;*                                                                           *
     238            ;*   Regs Modified     : SP                                                  *
     239            ;*   Regs Used         : SP,r12                                              *
     240            ;*   Local Frame Size  : 0 Args + 0 Auto + 0 Save = 0 byte                   *
     241            ;*****************************************************************************
     242 000000       Ref_enableReferenceVoltageOutput:
     243            ;* --------------------------------------------------------------------------*
     244                    .dwcfi  cfa_offset, 4
     245                    .dwcfi  save_reg_to_mem, 16, -4
     246            ;* r12   assigned to baseAddress
     247            $C$DW$17        .dwtag  DW_TAG_variable
     248                    .dwattr $C$DW$17, DW_AT_name("baseAddress")
     249                    .dwattr $C$DW$17, DW_AT_TI_symbol_name("baseAddress")
     250                    .dwattr $C$DW$17, DW_AT_type(*$C$DW$T$19)
     251                    .dwattr $C$DW$17, DW_AT_location[DW_OP_reg12]
     252            
     253                    .dwpsn  file "../MSP430F5xx_6xx/ref.c",line 71,column 5,is_stmt,isa 0
     254 000000 D3EC          OR.B      #2,0(r12)             ; [] |71| 
         000002 0000 
     255                    .dwpsn  file "../MSP430F5xx_6xx/ref.c",line 72,column 1,is_stmt,isa 0
     256            $C$DW$18        .dwtag  DW_TAG_TI_branch
     257                    .dwattr $C$DW$18, DW_AT_low_pc(0x00)
     258                    .dwattr $C$DW$18, DW_AT_TI_return
     259            
     260 000004 0110          RETA      ; [] 
     261                    ; [] 
     262                    .dwattr $C$DW$15, DW_AT_TI_end_file("../MSP430F5xx_6xx/ref.c")
     263                    .dwattr $C$DW$15, DW_AT_TI_end_line(0x48)
     264                    .dwattr $C$DW$15, DW_AT_TI_end_column(0x01)
     265                    .dwendentry
     266                    .dwendtag $C$DW$15
     267            
     268 000000               .sect   ".text:Ref_disableReferenceVoltageOutput"
     269                    .clink
MSP430 Assembler PC v15.12.3 Wed Oct 12 11:19:42 2016

Tools Copyright (c) 2003-2015 Texas Instruments Incorporated
C:\Users\LokBok\AppData\Local\Temp\121442                            PAGE    6

     270                    .global Ref_disableReferenceVoltageOutput
     271            
     272            $C$DW$19        .dwtag  DW_TAG_subprogram
     273                    .dwattr $C$DW$19, DW_AT_name("Ref_disableReferenceVoltageOutput")
     274                    .dwattr $C$DW$19, DW_AT_low_pc(Ref_disableReferenceVoltageOutput)
     275                    .dwattr $C$DW$19, DW_AT_high_pc(0x00)
     276                    .dwattr $C$DW$19, DW_AT_TI_symbol_name("Ref_disableReferenceVoltageOutput")
     277                    .dwattr $C$DW$19, DW_AT_external
     278                    .dwattr $C$DW$19, DW_AT_TI_begin_file("../MSP430F5xx_6xx/ref.c")
     279                    .dwattr $C$DW$19, DW_AT_TI_begin_line(0x4a)
     280                    .dwattr $C$DW$19, DW_AT_TI_begin_column(0x06)
     281                    .dwattr $C$DW$19, DW_AT_decl_file("../MSP430F5xx_6xx/ref.c")
     282                    .dwattr $C$DW$19, DW_AT_decl_line(0x4a)
     283                    .dwattr $C$DW$19, DW_AT_decl_column(0x06)
     284                    .dwattr $C$DW$19, DW_AT_TI_max_frame_size(0x04)
     285                    .dwpsn  file "../MSP430F5xx_6xx/ref.c",line 75,column 1,is_stmt,address Ref_disableReferenceVo
     286            
     287                    .dwfde $C$DW$CIE, Ref_disableReferenceVoltageOutput
     288            $C$DW$20        .dwtag  DW_TAG_formal_parameter
     289                    .dwattr $C$DW$20, DW_AT_name("baseAddress")
     290                    .dwattr $C$DW$20, DW_AT_TI_symbol_name("baseAddress")
     291                    .dwattr $C$DW$20, DW_AT_type(*$C$DW$T$19)
     292                    .dwattr $C$DW$20, DW_AT_location[DW_OP_reg12]
     293            
     294            
     295            ;*****************************************************************************
     296            ;* FUNCTION NAME: Ref_disableReferenceVoltageOutput                          *
     297            ;*                                                                           *
     298            ;*   Regs Modified     : SP                                                  *
     299            ;*   Regs Used         : SP,r12                                              *
     300            ;*   Local Frame Size  : 0 Args + 0 Auto + 0 Save = 0 byte                   *
     301            ;*****************************************************************************
     302 000000       Ref_disableReferenceVoltageOutput:
     303            ;* --------------------------------------------------------------------------*
     304                    .dwcfi  cfa_offset, 4
     305                    .dwcfi  save_reg_to_mem, 16, -4
     306            ;* r12   assigned to baseAddress
     307            $C$DW$21        .dwtag  DW_TAG_variable
     308                    .dwattr $C$DW$21, DW_AT_name("baseAddress")
     309                    .dwattr $C$DW$21, DW_AT_TI_symbol_name("baseAddress")
     310                    .dwattr $C$DW$21, DW_AT_type(*$C$DW$T$19)
     311                    .dwattr $C$DW$21, DW_AT_location[DW_OP_reg12]
     312            
     313                    .dwpsn  file "../MSP430F5xx_6xx/ref.c",line 76,column 5,is_stmt,isa 0
     314 000000 C3EC          BIC.B     #2,0(r12)             ; [] |76| 
         000002 0000 
     315                    .dwpsn  file "../MSP430F5xx_6xx/ref.c",line 77,column 1,is_stmt,isa 0
     316            $C$DW$22        .dwtag  DW_TAG_TI_branch
     317                    .dwattr $C$DW$22, DW_AT_low_pc(0x00)
     318                    .dwattr $C$DW$22, DW_AT_TI_return
     319            
     320 000004 0110          RETA      ; [] 
     321                    ; [] 
     322                    .dwattr $C$DW$19, DW_AT_TI_end_file("../MSP430F5xx_6xx/ref.c")
     323                    .dwattr $C$DW$19, DW_AT_TI_end_line(0x4d)
MSP430 Assembler PC v15.12.3 Wed Oct 12 11:19:42 2016

Tools Copyright (c) 2003-2015 Texas Instruments Incorporated
C:\Users\LokBok\AppData\Local\Temp\121442                            PAGE    7

     324                    .dwattr $C$DW$19, DW_AT_TI_end_column(0x01)
     325                    .dwendentry
     326                    .dwendtag $C$DW$19
     327            
     328 000000               .sect   ".text:Ref_enableReferenceVoltage"
     329                    .clink
     330                    .global Ref_enableReferenceVoltage
     331            
     332            $C$DW$23        .dwtag  DW_TAG_subprogram
     333                    .dwattr $C$DW$23, DW_AT_name("Ref_enableReferenceVoltage")
     334                    .dwattr $C$DW$23, DW_AT_low_pc(Ref_enableReferenceVoltage)
     335                    .dwattr $C$DW$23, DW_AT_high_pc(0x00)
     336                    .dwattr $C$DW$23, DW_AT_TI_symbol_name("Ref_enableReferenceVoltage")
     337                    .dwattr $C$DW$23, DW_AT_external
     338                    .dwattr $C$DW$23, DW_AT_TI_begin_file("../MSP430F5xx_6xx/ref.c")
     339                    .dwattr $C$DW$23, DW_AT_TI_begin_line(0x4f)
     340                    .dwattr $C$DW$23, DW_AT_TI_begin_column(0x06)
     341                    .dwattr $C$DW$23, DW_AT_decl_file("../MSP430F5xx_6xx/ref.c")
     342                    .dwattr $C$DW$23, DW_AT_decl_line(0x4f)
     343                    .dwattr $C$DW$23, DW_AT_decl_column(0x06)
     344                    .dwattr $C$DW$23, DW_AT_TI_max_frame_size(0x04)
     345                    .dwpsn  file "../MSP430F5xx_6xx/ref.c",line 80,column 1,is_stmt,address Ref_enableReferenceVol
     346            
     347                    .dwfde $C$DW$CIE, Ref_enableReferenceVoltage
     348            $C$DW$24        .dwtag  DW_TAG_formal_parameter
     349                    .dwattr $C$DW$24, DW_AT_name("baseAddress")
     350                    .dwattr $C$DW$24, DW_AT_TI_symbol_name("baseAddress")
     351                    .dwattr $C$DW$24, DW_AT_type(*$C$DW$T$19)
     352                    .dwattr $C$DW$24, DW_AT_location[DW_OP_reg12]
     353            
     354            
     355            ;*****************************************************************************
     356            ;* FUNCTION NAME: Ref_enableReferenceVoltage                                 *
     357            ;*                                                                           *
     358            ;*   Regs Modified     : SP                                                  *
     359            ;*   Regs Used         : SP,r12                                              *
     360            ;*   Local Frame Size  : 0 Args + 0 Auto + 0 Save = 0 byte                   *
     361            ;*****************************************************************************
     362 000000       Ref_enableReferenceVoltage:
     363            ;* --------------------------------------------------------------------------*
     364                    .dwcfi  cfa_offset, 4
     365                    .dwcfi  save_reg_to_mem, 16, -4
     366            ;* r12   assigned to baseAddress
     367            $C$DW$25        .dwtag  DW_TAG_variable
     368                    .dwattr $C$DW$25, DW_AT_name("baseAddress")
     369                    .dwattr $C$DW$25, DW_AT_TI_symbol_name("baseAddress")
     370                    .dwattr $C$DW$25, DW_AT_type(*$C$DW$T$19)
     371                    .dwattr $C$DW$25, DW_AT_location[DW_OP_reg12]
     372            
     373                    .dwpsn  file "../MSP430F5xx_6xx/ref.c",line 81,column 5,is_stmt,isa 0
     374 000000 D3DC          OR.B      #1,0(r12)             ; [] |81| 
         000002 0000 
     375                    .dwpsn  file "../MSP430F5xx_6xx/ref.c",line 82,column 1,is_stmt,isa 0
     376            $C$DW$26        .dwtag  DW_TAG_TI_branch
     377                    .dwattr $C$DW$26, DW_AT_low_pc(0x00)
MSP430 Assembler PC v15.12.3 Wed Oct 12 11:19:42 2016

Tools Copyright (c) 2003-2015 Texas Instruments Incorporated
C:\Users\LokBok\AppData\Local\Temp\121442                            PAGE    8

     378                    .dwattr $C$DW$26, DW_AT_TI_return
     379            
     380 000004 0110          RETA      ; [] 
     381                    ; [] 
     382                    .dwattr $C$DW$23, DW_AT_TI_end_file("../MSP430F5xx_6xx/ref.c")
     383                    .dwattr $C$DW$23, DW_AT_TI_end_line(0x52)
     384                    .dwattr $C$DW$23, DW_AT_TI_end_column(0x01)
     385                    .dwendentry
     386                    .dwendtag $C$DW$23
     387            
     388 000000               .sect   ".text:Ref_disableReferenceVoltage"
     389                    .clink
     390                    .global Ref_disableReferenceVoltage
     391            
     392            $C$DW$27        .dwtag  DW_TAG_subprogram
     393                    .dwattr $C$DW$27, DW_AT_name("Ref_disableReferenceVoltage")
     394                    .dwattr $C$DW$27, DW_AT_low_pc(Ref_disableReferenceVoltage)
     395                    .dwattr $C$DW$27, DW_AT_high_pc(0x00)
     396                    .dwattr $C$DW$27, DW_AT_TI_symbol_name("Ref_disableReferenceVoltage")
     397                    .dwattr $C$DW$27, DW_AT_external
     398                    .dwattr $C$DW$27, DW_AT_TI_begin_file("../MSP430F5xx_6xx/ref.c")
     399                    .dwattr $C$DW$27, DW_AT_TI_begin_line(0x54)
     400                    .dwattr $C$DW$27, DW_AT_TI_begin_column(0x06)
     401                    .dwattr $C$DW$27, DW_AT_decl_file("../MSP430F5xx_6xx/ref.c")
     402                    .dwattr $C$DW$27, DW_AT_decl_line(0x54)
     403                    .dwattr $C$DW$27, DW_AT_decl_column(0x06)
     404                    .dwattr $C$DW$27, DW_AT_TI_max_frame_size(0x04)
     405                    .dwpsn  file "../MSP430F5xx_6xx/ref.c",line 85,column 1,is_stmt,address Ref_disableReferenceVo
     406            
     407                    .dwfde $C$DW$CIE, Ref_disableReferenceVoltage
     408            $C$DW$28        .dwtag  DW_TAG_formal_parameter
     409                    .dwattr $C$DW$28, DW_AT_name("baseAddress")
     410                    .dwattr $C$DW$28, DW_AT_TI_symbol_name("baseAddress")
     411                    .dwattr $C$DW$28, DW_AT_type(*$C$DW$T$19)
     412                    .dwattr $C$DW$28, DW_AT_location[DW_OP_reg12]
     413            
     414            
     415            ;*****************************************************************************
     416            ;* FUNCTION NAME: Ref_disableReferenceVoltage                                *
     417            ;*                                                                           *
     418            ;*   Regs Modified     : SP                                                  *
     419            ;*   Regs Used         : SP,r12                                              *
     420            ;*   Local Frame Size  : 0 Args + 0 Auto + 0 Save = 0 byte                   *
     421            ;*****************************************************************************
     422 000000       Ref_disableReferenceVoltage:
     423            ;* --------------------------------------------------------------------------*
     424                    .dwcfi  cfa_offset, 4
     425                    .dwcfi  save_reg_to_mem, 16, -4
     426            ;* r12   assigned to baseAddress
     427            $C$DW$29        .dwtag  DW_TAG_variable
     428                    .dwattr $C$DW$29, DW_AT_name("baseAddress")
     429                    .dwattr $C$DW$29, DW_AT_TI_symbol_name("baseAddress")
     430                    .dwattr $C$DW$29, DW_AT_type(*$C$DW$T$19)
     431                    .dwattr $C$DW$29, DW_AT_location[DW_OP_reg12]
     432            
MSP430 Assembler PC v15.12.3 Wed Oct 12 11:19:42 2016

Tools Copyright (c) 2003-2015 Texas Instruments Incorporated
C:\Users\LokBok\AppData\Local\Temp\121442                            PAGE    9

     433                    .dwpsn  file "../MSP430F5xx_6xx/ref.c",line 86,column 5,is_stmt,isa 0
     434 000000 C3DC          BIC.B     #1,0(r12)             ; [] |86| 
         000002 0000 
     435                    .dwpsn  file "../MSP430F5xx_6xx/ref.c",line 87,column 1,is_stmt,isa 0
     436            $C$DW$30        .dwtag  DW_TAG_TI_branch
     437                    .dwattr $C$DW$30, DW_AT_low_pc(0x00)
     438                    .dwattr $C$DW$30, DW_AT_TI_return
     439            
     440 000004 0110          RETA      ; [] 
     441                    ; [] 
     442                    .dwattr $C$DW$27, DW_AT_TI_end_file("../MSP430F5xx_6xx/ref.c")
     443                    .dwattr $C$DW$27, DW_AT_TI_end_line(0x57)
     444                    .dwattr $C$DW$27, DW_AT_TI_end_column(0x01)
     445                    .dwendentry
     446                    .dwendtag $C$DW$27
     447            
     448 000000               .sect   ".text:Ref_getBandgapMode"
     449                    .clink
     450                    .global Ref_getBandgapMode
     451            
     452            $C$DW$31        .dwtag  DW_TAG_subprogram
     453                    .dwattr $C$DW$31, DW_AT_name("Ref_getBandgapMode")
     454                    .dwattr $C$DW$31, DW_AT_low_pc(Ref_getBandgapMode)
     455                    .dwattr $C$DW$31, DW_AT_high_pc(0x00)
     456                    .dwattr $C$DW$31, DW_AT_TI_symbol_name("Ref_getBandgapMode")
     457                    .dwattr $C$DW$31, DW_AT_external
     458                    .dwattr $C$DW$31, DW_AT_type(*$C$DW$T$19)
     459                    .dwattr $C$DW$31, DW_AT_TI_begin_file("../MSP430F5xx_6xx/ref.c")
     460                    .dwattr $C$DW$31, DW_AT_TI_begin_line(0x59)
     461                    .dwattr $C$DW$31, DW_AT_TI_begin_column(0x0a)
     462                    .dwattr $C$DW$31, DW_AT_decl_file("../MSP430F5xx_6xx/ref.c")
     463                    .dwattr $C$DW$31, DW_AT_decl_line(0x59)
     464                    .dwattr $C$DW$31, DW_AT_decl_column(0x0a)
     465                    .dwattr $C$DW$31, DW_AT_TI_max_frame_size(0x04)
     466                    .dwpsn  file "../MSP430F5xx_6xx/ref.c",line 90,column 1,is_stmt,address Ref_getBandgapMode,isa
     467            
     468                    .dwfde $C$DW$CIE, Ref_getBandgapMode
     469            $C$DW$32        .dwtag  DW_TAG_formal_parameter
     470                    .dwattr $C$DW$32, DW_AT_name("baseAddress")
     471                    .dwattr $C$DW$32, DW_AT_TI_symbol_name("baseAddress")
     472                    .dwattr $C$DW$32, DW_AT_type(*$C$DW$T$19)
     473                    .dwattr $C$DW$32, DW_AT_location[DW_OP_reg12]
     474            
     475            
     476            ;*****************************************************************************
     477            ;* FUNCTION NAME: Ref_getBandgapMode                                         *
     478            ;*                                                                           *
     479            ;*   Regs Modified     : SP,SR,r12,r15                                       *
     480            ;*   Regs Used         : SP,SR,r12,r15                                       *
     481            ;*   Local Frame Size  : 0 Args + 0 Auto + 0 Save = 0 byte                   *
     482            ;*****************************************************************************
     483 000000       Ref_getBandgapMode:
     484            ;* --------------------------------------------------------------------------*
     485                    .dwcfi  cfa_offset, 4
     486                    .dwcfi  save_reg_to_mem, 16, -4
MSP430 Assembler PC v15.12.3 Wed Oct 12 11:19:42 2016

Tools Copyright (c) 2003-2015 Texas Instruments Incorporated
C:\Users\LokBok\AppData\Local\Temp\121442                            PAGE   10

     487            ;* r12   assigned to baseAddress
     488            $C$DW$33        .dwtag  DW_TAG_variable
     489                    .dwattr $C$DW$33, DW_AT_name("baseAddress")
     490                    .dwattr $C$DW$33, DW_AT_TI_symbol_name("baseAddress")
     491                    .dwattr $C$DW$33, DW_AT_type(*$C$DW$T$19)
     492                    .dwattr $C$DW$33, DW_AT_location[DW_OP_reg12]
     493            
     494                    .dwpsn  file "../MSP430F5xx_6xx/ref.c",line 91,column 5,is_stmt,isa 0
     495 000000 403F          MOV.W     #2048,r15             ; [] |91| 
         000002 0800 
     496 000004 FC2F          AND.W     @r12,r15              ; [] |91| 
     497 000006 0FCC          MOVA      r15,r12               ; [] |91| 
     498                    .dwpsn  file "../MSP430F5xx_6xx/ref.c",line 92,column 1,is_stmt,isa 0
     499            $C$DW$34        .dwtag  DW_TAG_TI_branch
     500                    .dwattr $C$DW$34, DW_AT_low_pc(0x00)
     501                    .dwattr $C$DW$34, DW_AT_TI_return
     502            
     503 000008 0110          RETA      ; [] 
     504                    ; [] 
     505                    .dwattr $C$DW$31, DW_AT_TI_end_file("../MSP430F5xx_6xx/ref.c")
     506                    .dwattr $C$DW$31, DW_AT_TI_end_line(0x5c)
     507                    .dwattr $C$DW$31, DW_AT_TI_end_column(0x01)
     508                    .dwendentry
     509                    .dwendtag $C$DW$31
     510            
     511 000000               .sect   ".text:Ref_isBandgapActive"
     512                    .clink
     513                    .global Ref_isBandgapActive
     514            
     515            $C$DW$35        .dwtag  DW_TAG_subprogram
     516                    .dwattr $C$DW$35, DW_AT_name("Ref_isBandgapActive")
     517                    .dwattr $C$DW$35, DW_AT_low_pc(Ref_isBandgapActive)
     518                    .dwattr $C$DW$35, DW_AT_high_pc(0x00)
     519                    .dwattr $C$DW$35, DW_AT_TI_symbol_name("Ref_isBandgapActive")
     520                    .dwattr $C$DW$35, DW_AT_external
     521                    .dwattr $C$DW$35, DW_AT_type(*$C$DW$T$59)
     522                    .dwattr $C$DW$35, DW_AT_TI_begin_file("../MSP430F5xx_6xx/ref.c")
     523                    .dwattr $C$DW$35, DW_AT_TI_begin_line(0x5e)
     524                    .dwattr $C$DW$35, DW_AT_TI_begin_column(0x06)
     525                    .dwattr $C$DW$35, DW_AT_decl_file("../MSP430F5xx_6xx/ref.c")
     526                    .dwattr $C$DW$35, DW_AT_decl_line(0x5e)
     527                    .dwattr $C$DW$35, DW_AT_decl_column(0x06)
     528                    .dwattr $C$DW$35, DW_AT_TI_max_frame_size(0x04)
     529                    .dwpsn  file "../MSP430F5xx_6xx/ref.c",line 95,column 1,is_stmt,address Ref_isBandgapActive,is
     530            
     531                    .dwfde $C$DW$CIE, Ref_isBandgapActive
     532            $C$DW$36        .dwtag  DW_TAG_formal_parameter
     533                    .dwattr $C$DW$36, DW_AT_name("baseAddress")
     534                    .dwattr $C$DW$36, DW_AT_TI_symbol_name("baseAddress")
     535                    .dwattr $C$DW$36, DW_AT_type(*$C$DW$T$19)
     536                    .dwattr $C$DW$36, DW_AT_location[DW_OP_reg12]
     537            
     538            
     539            ;*****************************************************************************
     540            ;* FUNCTION NAME: Ref_isBandgapActive                                        *
MSP430 Assembler PC v15.12.3 Wed Oct 12 11:19:42 2016

Tools Copyright (c) 2003-2015 Texas Instruments Incorporated
C:\Users\LokBok\AppData\Local\Temp\121442                            PAGE   11

     541            ;*                                                                           *
     542            ;*   Regs Modified     : SP,SR,r12,r14,r15                                   *
     543            ;*   Regs Used         : SP,SR,r12,r14,r15                                   *
     544            ;*   Local Frame Size  : 0 Args + 0 Auto + 0 Save = 0 byte                   *
     545            ;*****************************************************************************
     546 000000       Ref_isBandgapActive:
     547            ;* --------------------------------------------------------------------------*
     548                    .dwcfi  cfa_offset, 4
     549                    .dwcfi  save_reg_to_mem, 16, -4
     550            ;* r12   assigned to baseAddress
     551            $C$DW$37        .dwtag  DW_TAG_variable
     552                    .dwattr $C$DW$37, DW_AT_name("baseAddress")
     553                    .dwattr $C$DW$37, DW_AT_TI_symbol_name("baseAddress")
     554                    .dwattr $C$DW$37, DW_AT_type(*$C$DW$T$19)
     555                    .dwattr $C$DW$37, DW_AT_location[DW_OP_reg12]
     556            
     557                    .dwpsn  file "../MSP430F5xx_6xx/ref.c",line 98,column 9,is_stmt,isa 0
     558 000000 434F          MOV.B     #0,r15                ; [] |98| 
     559 000002 403E          MOV.W     #512,r14              ; [] |98| 
         000004 0200 
     560 000006 BC2E          BIT.W     @r12,r14              ; [] |98| 
     561 000008 2401          JEQ       $C$L1                 ; [] |98| 
     562                                                      ; [] |98| 
     563            ;* --------------------------------------------------------------------------*
     564 00000a 435F          MOV.B     #1,r15                ; [] |98| 
     565            ;* --------------------------------------------------------------------------*
     566 00000c       $C$L1:    
     567 00000c 0FCC          MOVA      r15,r12               ; [] |98| 
     568                    .dwpsn  file "../MSP430F5xx_6xx/ref.c",line 104,column 1,is_stmt,isa 0
     569            $C$DW$38        .dwtag  DW_TAG_TI_branch
     570                    .dwattr $C$DW$38, DW_AT_low_pc(0x00)
     571                    .dwattr $C$DW$38, DW_AT_TI_return
     572            
     573 00000e 0110          RETA      ; [] 
     574                    ; [] 
     575                    .dwattr $C$DW$35, DW_AT_TI_end_file("../MSP430F5xx_6xx/ref.c")
     576                    .dwattr $C$DW$35, DW_AT_TI_end_line(0x68)
     577                    .dwattr $C$DW$35, DW_AT_TI_end_column(0x01)
     578                    .dwendentry
     579                    .dwendtag $C$DW$35
     580            
     581 000000               .sect   ".text:Ref_isRefGenBusy"
     582                    .clink
     583                    .global Ref_isRefGenBusy
     584            
     585            $C$DW$39        .dwtag  DW_TAG_subprogram
     586                    .dwattr $C$DW$39, DW_AT_name("Ref_isRefGenBusy")
     587                    .dwattr $C$DW$39, DW_AT_low_pc(Ref_isRefGenBusy)
     588                    .dwattr $C$DW$39, DW_AT_high_pc(0x00)
     589                    .dwattr $C$DW$39, DW_AT_TI_symbol_name("Ref_isRefGenBusy")
     590                    .dwattr $C$DW$39, DW_AT_external
     591                    .dwattr $C$DW$39, DW_AT_type(*$C$DW$T$19)
     592                    .dwattr $C$DW$39, DW_AT_TI_begin_file("../MSP430F5xx_6xx/ref.c")
     593                    .dwattr $C$DW$39, DW_AT_TI_begin_line(0x6a)
     594                    .dwattr $C$DW$39, DW_AT_TI_begin_column(0x0a)
MSP430 Assembler PC v15.12.3 Wed Oct 12 11:19:42 2016

Tools Copyright (c) 2003-2015 Texas Instruments Incorporated
C:\Users\LokBok\AppData\Local\Temp\121442                            PAGE   12

     595                    .dwattr $C$DW$39, DW_AT_decl_file("../MSP430F5xx_6xx/ref.c")
     596                    .dwattr $C$DW$39, DW_AT_decl_line(0x6a)
     597                    .dwattr $C$DW$39, DW_AT_decl_column(0x0a)
     598                    .dwattr $C$DW$39, DW_AT_TI_max_frame_size(0x04)
     599                    .dwpsn  file "../MSP430F5xx_6xx/ref.c",line 107,column 1,is_stmt,address Ref_isRefGenBusy,isa 
     600            
     601                    .dwfde $C$DW$CIE, Ref_isRefGenBusy
     602            $C$DW$40        .dwtag  DW_TAG_formal_parameter
     603                    .dwattr $C$DW$40, DW_AT_name("baseAddress")
     604                    .dwattr $C$DW$40, DW_AT_TI_symbol_name("baseAddress")
     605                    .dwattr $C$DW$40, DW_AT_type(*$C$DW$T$19)
     606                    .dwattr $C$DW$40, DW_AT_location[DW_OP_reg12]
     607            
     608            
     609            ;*****************************************************************************
     610            ;* FUNCTION NAME: Ref_isRefGenBusy                                           *
     611            ;*                                                                           *
     612            ;*   Regs Modified     : SP,SR,r12,r15                                       *
     613            ;*   Regs Used         : SP,SR,r12,r15                                       *
     614            ;*   Local Frame Size  : 0 Args + 0 Auto + 0 Save = 0 byte                   *
     615            ;*****************************************************************************
     616 000000       Ref_isRefGenBusy:
     617            ;* --------------------------------------------------------------------------*
     618                    .dwcfi  cfa_offset, 4
     619                    .dwcfi  save_reg_to_mem, 16, -4
     620            ;* r12   assigned to baseAddress
     621            $C$DW$41        .dwtag  DW_TAG_variable
     622                    .dwattr $C$DW$41, DW_AT_name("baseAddress")
     623                    .dwattr $C$DW$41, DW_AT_TI_symbol_name("baseAddress")
     624                    .dwattr $C$DW$41, DW_AT_type(*$C$DW$T$19)
     625                    .dwattr $C$DW$41, DW_AT_location[DW_OP_reg12]
     626            
     627                    .dwpsn  file "../MSP430F5xx_6xx/ref.c",line 108,column 5,is_stmt,isa 0
     628 000000 403F          MOV.W     #1024,r15             ; [] |108| 
         000002 0400 
     629 000004 FC2F          AND.W     @r12,r15              ; [] |108| 
     630 000006 0FCC          MOVA      r15,r12               ; [] |108| 
     631                    .dwpsn  file "../MSP430F5xx_6xx/ref.c",line 109,column 1,is_stmt,isa 0
     632            $C$DW$42        .dwtag  DW_TAG_TI_branch
     633                    .dwattr $C$DW$42, DW_AT_low_pc(0x00)
     634                    .dwattr $C$DW$42, DW_AT_TI_return
     635            
     636 000008 0110          RETA      ; [] 
     637                    ; [] 
     638                    .dwattr $C$DW$39, DW_AT_TI_end_file("../MSP430F5xx_6xx/ref.c")
     639                    .dwattr $C$DW$39, DW_AT_TI_end_line(0x6d)
     640                    .dwattr $C$DW$39, DW_AT_TI_end_column(0x01)
     641                    .dwendentry
     642                    .dwendtag $C$DW$39
     643            
     644 000000               .sect   ".text:Ref_isRefGenActive"
     645                    .clink
     646                    .global Ref_isRefGenActive
     647            
     648            $C$DW$43        .dwtag  DW_TAG_subprogram
MSP430 Assembler PC v15.12.3 Wed Oct 12 11:19:42 2016

Tools Copyright (c) 2003-2015 Texas Instruments Incorporated
C:\Users\LokBok\AppData\Local\Temp\121442                            PAGE   13

     649                    .dwattr $C$DW$43, DW_AT_name("Ref_isRefGenActive")
     650                    .dwattr $C$DW$43, DW_AT_low_pc(Ref_isRefGenActive)
     651                    .dwattr $C$DW$43, DW_AT_high_pc(0x00)
     652                    .dwattr $C$DW$43, DW_AT_TI_symbol_name("Ref_isRefGenActive")
     653                    .dwattr $C$DW$43, DW_AT_external
     654                    .dwattr $C$DW$43, DW_AT_type(*$C$DW$T$59)
     655                    .dwattr $C$DW$43, DW_AT_TI_begin_file("../MSP430F5xx_6xx/ref.c")
     656                    .dwattr $C$DW$43, DW_AT_TI_begin_line(0x6f)
     657                    .dwattr $C$DW$43, DW_AT_TI_begin_column(0x06)
     658                    .dwattr $C$DW$43, DW_AT_decl_file("../MSP430F5xx_6xx/ref.c")
     659                    .dwattr $C$DW$43, DW_AT_decl_line(0x6f)
     660                    .dwattr $C$DW$43, DW_AT_decl_column(0x06)
     661                    .dwattr $C$DW$43, DW_AT_TI_max_frame_size(0x04)
     662                    .dwpsn  file "../MSP430F5xx_6xx/ref.c",line 112,column 1,is_stmt,address Ref_isRefGenActive,is
     663            
     664                    .dwfde $C$DW$CIE, Ref_isRefGenActive
     665            $C$DW$44        .dwtag  DW_TAG_formal_parameter
     666                    .dwattr $C$DW$44, DW_AT_name("baseAddress")
     667                    .dwattr $C$DW$44, DW_AT_TI_symbol_name("baseAddress")
     668                    .dwattr $C$DW$44, DW_AT_type(*$C$DW$T$19)
     669                    .dwattr $C$DW$44, DW_AT_location[DW_OP_reg12]
     670            
     671            
     672            ;*****************************************************************************
     673            ;* FUNCTION NAME: Ref_isRefGenActive                                         *
     674            ;*                                                                           *
     675            ;*   Regs Modified     : SP,SR,r12,r14,r15                                   *
     676            ;*   Regs Used         : SP,SR,r12,r14,r15                                   *
     677            ;*   Local Frame Size  : 0 Args + 0 Auto + 0 Save = 0 byte                   *
     678            ;*****************************************************************************
     679 000000       Ref_isRefGenActive:
     680            ;* --------------------------------------------------------------------------*
     681                    .dwcfi  cfa_offset, 4
     682                    .dwcfi  save_reg_to_mem, 16, -4
     683            ;* r12   assigned to baseAddress
     684            $C$DW$45        .dwtag  DW_TAG_variable
     685                    .dwattr $C$DW$45, DW_AT_name("baseAddress")
     686                    .dwattr $C$DW$45, DW_AT_TI_symbol_name("baseAddress")
     687                    .dwattr $C$DW$45, DW_AT_type(*$C$DW$T$19)
     688                    .dwattr $C$DW$45, DW_AT_location[DW_OP_reg12]
     689            
     690                    .dwpsn  file "../MSP430F5xx_6xx/ref.c",line 115,column 9,is_stmt,isa 0
     691 000000 434F          MOV.B     #0,r15                ; [] |115| 
     692 000002 403E          MOV.W     #256,r14              ; [] |115| 
         000004 0100 
     693 000006 BC2E          BIT.W     @r12,r14              ; [] |115| 
     694 000008 2401          JEQ       $C$L2                 ; [] |115| 
     695                                                      ; [] |115| 
     696            ;* --------------------------------------------------------------------------*
     697 00000a 435F          MOV.B     #1,r15                ; [] |115| 
     698            ;* --------------------------------------------------------------------------*
     699 00000c       $C$L2:    
     700 00000c 0FCC          MOVA      r15,r12               ; [] |115| 
     701                    .dwpsn  file "../MSP430F5xx_6xx/ref.c",line 121,column 1,is_stmt,isa 0
     702            $C$DW$46        .dwtag  DW_TAG_TI_branch
MSP430 Assembler PC v15.12.3 Wed Oct 12 11:19:42 2016

Tools Copyright (c) 2003-2015 Texas Instruments Incorporated
C:\Users\LokBok\AppData\Local\Temp\121442                            PAGE   14

     703                    .dwattr $C$DW$46, DW_AT_low_pc(0x00)
     704                    .dwattr $C$DW$46, DW_AT_TI_return
     705            
     706 00000e 0110          RETA      ; [] 
     707                    ; [] 
     708                    .dwattr $C$DW$43, DW_AT_TI_end_file("../MSP430F5xx_6xx/ref.c")
     709                    .dwattr $C$DW$43, DW_AT_TI_end_line(0x79)
     710                    .dwattr $C$DW$43, DW_AT_TI_end_column(0x01)
     711                    .dwendentry
     712                    .dwendtag $C$DW$43
     713            
     714            
     715            ;******************************************************************************
     716            ;* BUILD ATTRIBUTES                                                           *
     717            ;******************************************************************************
     718                    .battr "TI", Tag_File, 1, Tag_LPM_INFO(1)
     719                    .battr "TI", Tag_File, 1, Tag_PORTS_INIT_INFO("012345678901ABCDEFGHIJ0000000000001111000000000
     720                    .battr "TI", Tag_File, 1, Tag_HW_MPY32_INFO(2)
     721                    .battr "TI", Tag_File, 1, Tag_HW_MPY_ISR_INFO(1)
     722                    .battr "TI", Tag_File, 1, Tag_HW_MPY_INLINE_INFO(1)
     723                    .battr "mspabi", Tag_File, 1, Tag_enum_size(3)
     724            
     725            ;******************************************************************************
     726            ;* TYPE INFORMATION                                                           *
     727            ;******************************************************************************
     728            $C$DW$T$2       .dwtag  DW_TAG_unspecified_type
     729                    .dwattr $C$DW$T$2, DW_AT_name("void")
     730            
     731            
     732            $C$DW$T$23      .dwtag  DW_TAG_subroutine_type
     733                    .dwattr $C$DW$T$23, DW_AT_language(DW_LANG_C)
     734                    .dwendtag $C$DW$T$23
     735            
     736            $C$DW$T$24      .dwtag  DW_TAG_pointer_type
     737                    .dwattr $C$DW$T$24, DW_AT_type(*$C$DW$T$23)
     738                    .dwattr $C$DW$T$24, DW_AT_address_class(0x14)
     739            
     740            $C$DW$T$25      .dwtag  DW_TAG_typedef
     741                    .dwattr $C$DW$T$25, DW_AT_name("__SFR_FARPTR")
     742                    .dwattr $C$DW$T$25, DW_AT_type(*$C$DW$T$24)
     743                    .dwattr $C$DW$T$25, DW_AT_language(DW_LANG_C)
     744                    .dwattr $C$DW$T$25, DW_AT_decl_file("D:\Program Files\TI CCSv6\ccsv6\ccs_base\msp430\include\m
     745                    .dwattr $C$DW$T$25, DW_AT_decl_line(0x47)
     746                    .dwattr $C$DW$T$25, DW_AT_decl_column(0x11)
     747            
     748            $C$DW$T$4       .dwtag  DW_TAG_base_type
     749                    .dwattr $C$DW$T$4, DW_AT_encoding(DW_ATE_boolean)
     750                    .dwattr $C$DW$T$4, DW_AT_name("bool")
     751                    .dwattr $C$DW$T$4, DW_AT_byte_size(0x01)
     752            
     753            $C$DW$T$5       .dwtag  DW_TAG_base_type
     754                    .dwattr $C$DW$T$5, DW_AT_encoding(DW_ATE_signed_char)
     755                    .dwattr $C$DW$T$5, DW_AT_name("signed char")
     756                    .dwattr $C$DW$T$5, DW_AT_byte_size(0x01)
     757            
MSP430 Assembler PC v15.12.3 Wed Oct 12 11:19:42 2016

Tools Copyright (c) 2003-2015 Texas Instruments Incorporated
C:\Users\LokBok\AppData\Local\Temp\121442                            PAGE   15

     758            $C$DW$T$26      .dwtag  DW_TAG_typedef
     759                    .dwattr $C$DW$T$26, DW_AT_name("int8_t")
     760                    .dwattr $C$DW$T$26, DW_AT_type(*$C$DW$T$5)
     761                    .dwattr $C$DW$T$26, DW_AT_language(DW_LANG_C)
     762                    .dwattr $C$DW$T$26, DW_AT_decl_file("D:/Program Files/TI CCSv6/ccsv6/tools/compiler/msp430_15.
     763                    .dwattr $C$DW$T$26, DW_AT_decl_line(0x2a)
     764                    .dwattr $C$DW$T$26, DW_AT_decl_column(0x1e)
     765            
     766            $C$DW$T$27      .dwtag  DW_TAG_typedef
     767                    .dwattr $C$DW$T$27, DW_AT_name("int_least8_t")
     768                    .dwattr $C$DW$T$27, DW_AT_type(*$C$DW$T$26)
     769                    .dwattr $C$DW$T$27, DW_AT_language(DW_LANG_C)
     770                    .dwattr $C$DW$T$27, DW_AT_decl_file("D:/Program Files/TI CCSv6/ccsv6/tools/compiler/msp430_15.
     771                    .dwattr $C$DW$T$27, DW_AT_decl_line(0x37)
     772                    .dwattr $C$DW$T$27, DW_AT_decl_column(0x17)
     773            
     774            $C$DW$T$6       .dwtag  DW_TAG_base_type
     775                    .dwattr $C$DW$T$6, DW_AT_encoding(DW_ATE_unsigned_char)
     776                    .dwattr $C$DW$T$6, DW_AT_name("unsigned char")
     777                    .dwattr $C$DW$T$6, DW_AT_byte_size(0x01)
     778            
     779            $C$DW$T$20      .dwtag  DW_TAG_typedef
     780                    .dwattr $C$DW$T$20, DW_AT_name("uint8_t")
     781                    .dwattr $C$DW$T$20, DW_AT_type(*$C$DW$T$6)
     782                    .dwattr $C$DW$T$20, DW_AT_language(DW_LANG_C)
     783                    .dwattr $C$DW$T$20, DW_AT_decl_file("D:/Program Files/TI CCSv6/ccsv6/tools/compiler/msp430_15.
     784                    .dwattr $C$DW$T$20, DW_AT_decl_line(0x2b)
     785                    .dwattr $C$DW$T$20, DW_AT_decl_column(0x1d)
     786            
     787            $C$DW$T$31      .dwtag  DW_TAG_typedef
     788                    .dwattr $C$DW$T$31, DW_AT_name("uint_least8_t")
     789                    .dwattr $C$DW$T$31, DW_AT_type(*$C$DW$T$20)
     790                    .dwattr $C$DW$T$31, DW_AT_language(DW_LANG_C)
     791                    .dwattr $C$DW$T$31, DW_AT_decl_file("D:/Program Files/TI CCSv6/ccsv6/tools/compiler/msp430_15.
     792                    .dwattr $C$DW$T$31, DW_AT_decl_line(0x38)
     793                    .dwattr $C$DW$T$31, DW_AT_decl_column(0x16)
     794            
     795            $C$DW$T$7       .dwtag  DW_TAG_base_type
     796                    .dwattr $C$DW$T$7, DW_AT_encoding(DW_ATE_signed_char)
     797                    .dwattr $C$DW$T$7, DW_AT_name("wchar_t")
     798                    .dwattr $C$DW$T$7, DW_AT_byte_size(0x02)
     799            
     800            $C$DW$T$8       .dwtag  DW_TAG_base_type
     801                    .dwattr $C$DW$T$8, DW_AT_encoding(DW_ATE_signed)
     802                    .dwattr $C$DW$T$8, DW_AT_name("short")
     803                    .dwattr $C$DW$T$8, DW_AT_byte_size(0x02)
     804            
     805            $C$DW$T$9       .dwtag  DW_TAG_base_type
     806                    .dwattr $C$DW$T$9, DW_AT_encoding(DW_ATE_unsigned)
     807                    .dwattr $C$DW$T$9, DW_AT_name("unsigned short")
     808                    .dwattr $C$DW$T$9, DW_AT_byte_size(0x02)
     809            
     810            $C$DW$T$10      .dwtag  DW_TAG_base_type
     811                    .dwattr $C$DW$T$10, DW_AT_encoding(DW_ATE_signed)
     812                    .dwattr $C$DW$T$10, DW_AT_name("int")
MSP430 Assembler PC v15.12.3 Wed Oct 12 11:19:42 2016

Tools Copyright (c) 2003-2015 Texas Instruments Incorporated
C:\Users\LokBok\AppData\Local\Temp\121442                            PAGE   16

     813                    .dwattr $C$DW$T$10, DW_AT_byte_size(0x02)
     814            
     815            $C$DW$T$32      .dwtag  DW_TAG_typedef
     816                    .dwattr $C$DW$T$32, DW_AT_name("int16_t")
     817                    .dwattr $C$DW$T$32, DW_AT_type(*$C$DW$T$10)
     818                    .dwattr $C$DW$T$32, DW_AT_language(DW_LANG_C)
     819                    .dwattr $C$DW$T$32, DW_AT_decl_file("D:/Program Files/TI CCSv6/ccsv6/tools/compiler/msp430_15.
     820                    .dwattr $C$DW$T$32, DW_AT_decl_line(0x2c)
     821                    .dwattr $C$DW$T$32, DW_AT_decl_column(0x1d)
     822            
     823            $C$DW$T$33      .dwtag  DW_TAG_typedef
     824                    .dwattr $C$DW$T$33, DW_AT_name("int_fast16_t")
     825                    .dwattr $C$DW$T$33, DW_AT_type(*$C$DW$T$32)
     826                    .dwattr $C$DW$T$33, DW_AT_language(DW_LANG_C)
     827                    .dwattr $C$DW$T$33, DW_AT_decl_file("D:/Program Files/TI CCSv6/ccsv6/tools/compiler/msp430_15.
     828                    .dwattr $C$DW$T$33, DW_AT_decl_line(0x47)
     829                    .dwattr $C$DW$T$33, DW_AT_decl_column(0x17)
     830            
     831            $C$DW$T$34      .dwtag  DW_TAG_typedef
     832                    .dwattr $C$DW$T$34, DW_AT_name("int_fast8_t")
     833                    .dwattr $C$DW$T$34, DW_AT_type(*$C$DW$T$32)
     834                    .dwattr $C$DW$T$34, DW_AT_language(DW_LANG_C)
     835                    .dwattr $C$DW$T$34, DW_AT_decl_file("D:/Program Files/TI CCSv6/ccsv6/tools/compiler/msp430_15.
     836                    .dwattr $C$DW$T$34, DW_AT_decl_line(0x45)
     837                    .dwattr $C$DW$T$34, DW_AT_decl_column(0x17)
     838            
     839            $C$DW$T$35      .dwtag  DW_TAG_typedef
     840                    .dwattr $C$DW$T$35, DW_AT_name("int_least16_t")
     841                    .dwattr $C$DW$T$35, DW_AT_type(*$C$DW$T$32)
     842                    .dwattr $C$DW$T$35, DW_AT_language(DW_LANG_C)
     843                    .dwattr $C$DW$T$35, DW_AT_decl_file("D:/Program Files/TI CCSv6/ccsv6/tools/compiler/msp430_15.
     844                    .dwattr $C$DW$T$35, DW_AT_decl_line(0x3a)
     845                    .dwattr $C$DW$T$35, DW_AT_decl_column(0x17)
     846            
     847            $C$DW$T$11      .dwtag  DW_TAG_base_type
     848                    .dwattr $C$DW$T$11, DW_AT_encoding(DW_ATE_unsigned)
     849                    .dwattr $C$DW$T$11, DW_AT_name("unsigned int")
     850                    .dwattr $C$DW$T$11, DW_AT_byte_size(0x02)
     851            
     852            $C$DW$T$19      .dwtag  DW_TAG_typedef
     853                    .dwattr $C$DW$T$19, DW_AT_name("uint16_t")
     854                    .dwattr $C$DW$T$19, DW_AT_type(*$C$DW$T$11)
     855                    .dwattr $C$DW$T$19, DW_AT_language(DW_LANG_C)
     856                    .dwattr $C$DW$T$19, DW_AT_decl_file("D:/Program Files/TI CCSv6/ccsv6/tools/compiler/msp430_15.
     857                    .dwattr $C$DW$T$19, DW_AT_decl_line(0x2d)
     858                    .dwattr $C$DW$T$19, DW_AT_decl_column(0x1c)
     859            
     860            $C$DW$T$40      .dwtag  DW_TAG_typedef
     861                    .dwattr $C$DW$T$40, DW_AT_name("uint_fast16_t")
     862                    .dwattr $C$DW$T$40, DW_AT_type(*$C$DW$T$19)
     863                    .dwattr $C$DW$T$40, DW_AT_language(DW_LANG_C)
     864                    .dwattr $C$DW$T$40, DW_AT_decl_file("D:/Program Files/TI CCSv6/ccsv6/tools/compiler/msp430_15.
     865                    .dwattr $C$DW$T$40, DW_AT_decl_line(0x48)
     866                    .dwattr $C$DW$T$40, DW_AT_decl_column(0x16)
     867            
MSP430 Assembler PC v15.12.3 Wed Oct 12 11:19:42 2016

Tools Copyright (c) 2003-2015 Texas Instruments Incorporated
C:\Users\LokBok\AppData\Local\Temp\121442                            PAGE   17

     868            $C$DW$T$41      .dwtag  DW_TAG_typedef
     869                    .dwattr $C$DW$T$41, DW_AT_name("uint_fast8_t")
     870                    .dwattr $C$DW$T$41, DW_AT_type(*$C$DW$T$19)
     871                    .dwattr $C$DW$T$41, DW_AT_language(DW_LANG_C)
     872                    .dwattr $C$DW$T$41, DW_AT_decl_file("D:/Program Files/TI CCSv6/ccsv6/tools/compiler/msp430_15.
     873                    .dwattr $C$DW$T$41, DW_AT_decl_line(0x46)
     874                    .dwattr $C$DW$T$41, DW_AT_decl_column(0x16)
     875            
     876            $C$DW$T$42      .dwtag  DW_TAG_typedef
     877                    .dwattr $C$DW$T$42, DW_AT_name("uint_least16_t")
     878                    .dwattr $C$DW$T$42, DW_AT_type(*$C$DW$T$19)
     879                    .dwattr $C$DW$T$42, DW_AT_language(DW_LANG_C)
     880                    .dwattr $C$DW$T$42, DW_AT_decl_file("D:/Program Files/TI CCSv6/ccsv6/tools/compiler/msp430_15.
     881                    .dwattr $C$DW$T$42, DW_AT_decl_line(0x3b)
     882                    .dwattr $C$DW$T$42, DW_AT_decl_column(0x16)
     883            
     884            $C$DW$T$12      .dwtag  DW_TAG_base_type
     885                    .dwattr $C$DW$T$12, DW_AT_encoding(DW_ATE_signed)
     886                    .dwattr $C$DW$T$12, DW_AT_name("long")
     887                    .dwattr $C$DW$T$12, DW_AT_byte_size(0x04)
     888            
     889            $C$DW$T$43      .dwtag  DW_TAG_typedef
     890                    .dwattr $C$DW$T$43, DW_AT_name("int32_t")
     891                    .dwattr $C$DW$T$43, DW_AT_type(*$C$DW$T$12)
     892                    .dwattr $C$DW$T$43, DW_AT_language(DW_LANG_C)
     893                    .dwattr $C$DW$T$43, DW_AT_decl_file("D:/Program Files/TI CCSv6/ccsv6/tools/compiler/msp430_15.
     894                    .dwattr $C$DW$T$43, DW_AT_decl_line(0x2e)
     895                    .dwattr $C$DW$T$43, DW_AT_decl_column(0x1d)
     896            
     897            $C$DW$T$44      .dwtag  DW_TAG_typedef
     898                    .dwattr $C$DW$T$44, DW_AT_name("int_fast32_t")
     899                    .dwattr $C$DW$T$44, DW_AT_type(*$C$DW$T$43)
     900                    .dwattr $C$DW$T$44, DW_AT_language(DW_LANG_C)
     901                    .dwattr $C$DW$T$44, DW_AT_decl_file("D:/Program Files/TI CCSv6/ccsv6/tools/compiler/msp430_15.
     902                    .dwattr $C$DW$T$44, DW_AT_decl_line(0x4a)
     903                    .dwattr $C$DW$T$44, DW_AT_decl_column(0x17)
     904            
     905            $C$DW$T$45      .dwtag  DW_TAG_typedef
     906                    .dwattr $C$DW$T$45, DW_AT_name("int_least32_t")
     907                    .dwattr $C$DW$T$45, DW_AT_type(*$C$DW$T$43)
     908                    .dwattr $C$DW$T$45, DW_AT_language(DW_LANG_C)
     909                    .dwattr $C$DW$T$45, DW_AT_decl_file("D:/Program Files/TI CCSv6/ccsv6/tools/compiler/msp430_15.
     910                    .dwattr $C$DW$T$45, DW_AT_decl_line(0x3c)
     911                    .dwattr $C$DW$T$45, DW_AT_decl_column(0x17)
     912            
     913            $C$DW$T$46      .dwtag  DW_TAG_typedef
     914                    .dwattr $C$DW$T$46, DW_AT_name("intptr_t")
     915                    .dwattr $C$DW$T$46, DW_AT_type(*$C$DW$T$12)
     916                    .dwattr $C$DW$T$46, DW_AT_language(DW_LANG_C)
     917                    .dwattr $C$DW$T$46, DW_AT_decl_file("D:/Program Files/TI CCSv6/ccsv6/tools/compiler/msp430_15.
     918                    .dwattr $C$DW$T$46, DW_AT_decl_line(0x55)
     919                    .dwattr $C$DW$T$46, DW_AT_decl_column(0x1b)
     920            
     921            $C$DW$T$13      .dwtag  DW_TAG_base_type
     922                    .dwattr $C$DW$T$13, DW_AT_encoding(DW_ATE_unsigned)
MSP430 Assembler PC v15.12.3 Wed Oct 12 11:19:42 2016

Tools Copyright (c) 2003-2015 Texas Instruments Incorporated
C:\Users\LokBok\AppData\Local\Temp\121442                            PAGE   18

     923                    .dwattr $C$DW$T$13, DW_AT_name("unsigned long")
     924                    .dwattr $C$DW$T$13, DW_AT_byte_size(0x04)
     925            
     926            $C$DW$T$47      .dwtag  DW_TAG_typedef
     927                    .dwattr $C$DW$T$47, DW_AT_name("uint32_t")
     928                    .dwattr $C$DW$T$47, DW_AT_type(*$C$DW$T$13)
     929                    .dwattr $C$DW$T$47, DW_AT_language(DW_LANG_C)
     930                    .dwattr $C$DW$T$47, DW_AT_decl_file("D:/Program Files/TI CCSv6/ccsv6/tools/compiler/msp430_15.
     931                    .dwattr $C$DW$T$47, DW_AT_decl_line(0x2f)
     932                    .dwattr $C$DW$T$47, DW_AT_decl_column(0x1c)
     933            
     934            $C$DW$T$48      .dwtag  DW_TAG_typedef
     935                    .dwattr $C$DW$T$48, DW_AT_name("uint_fast32_t")
     936                    .dwattr $C$DW$T$48, DW_AT_type(*$C$DW$T$47)
     937                    .dwattr $C$DW$T$48, DW_AT_language(DW_LANG_C)
     938                    .dwattr $C$DW$T$48, DW_AT_decl_file("D:/Program Files/TI CCSv6/ccsv6/tools/compiler/msp430_15.
     939                    .dwattr $C$DW$T$48, DW_AT_decl_line(0x4b)
     940                    .dwattr $C$DW$T$48, DW_AT_decl_column(0x16)
     941            
     942            $C$DW$T$49      .dwtag  DW_TAG_typedef
     943                    .dwattr $C$DW$T$49, DW_AT_name("uint_least32_t")
     944                    .dwattr $C$DW$T$49, DW_AT_type(*$C$DW$T$47)
     945                    .dwattr $C$DW$T$49, DW_AT_language(DW_LANG_C)
     946                    .dwattr $C$DW$T$49, DW_AT_decl_file("D:/Program Files/TI CCSv6/ccsv6/tools/compiler/msp430_15.
     947                    .dwattr $C$DW$T$49, DW_AT_decl_line(0x3d)
     948                    .dwattr $C$DW$T$49, DW_AT_decl_column(0x16)
     949            
     950            $C$DW$T$50      .dwtag  DW_TAG_typedef
     951                    .dwattr $C$DW$T$50, DW_AT_name("uintptr_t")
     952                    .dwattr $C$DW$T$50, DW_AT_type(*$C$DW$T$13)
     953                    .dwattr $C$DW$T$50, DW_AT_language(DW_LANG_C)
     954                    .dwattr $C$DW$T$50, DW_AT_decl_file("D:/Program Files/TI CCSv6/ccsv6/tools/compiler/msp430_15.
     955                    .dwattr $C$DW$T$50, DW_AT_decl_line(0x56)
     956                    .dwattr $C$DW$T$50, DW_AT_decl_column(0x1b)
     957            
     958            $C$DW$T$14      .dwtag  DW_TAG_base_type
     959                    .dwattr $C$DW$T$14, DW_AT_encoding(DW_ATE_signed)
     960                    .dwattr $C$DW$T$14, DW_AT_name("long long")
     961                    .dwattr $C$DW$T$14, DW_AT_byte_size(0x08)
     962            
     963            $C$DW$T$51      .dwtag  DW_TAG_typedef
     964                    .dwattr $C$DW$T$51, DW_AT_name("int64_t")
     965                    .dwattr $C$DW$T$51, DW_AT_type(*$C$DW$T$14)
     966                    .dwattr $C$DW$T$51, DW_AT_language(DW_LANG_C)
     967                    .dwattr $C$DW$T$51, DW_AT_decl_file("D:/Program Files/TI CCSv6/ccsv6/tools/compiler/msp430_15.
     968                    .dwattr $C$DW$T$51, DW_AT_decl_line(0x32)
     969                    .dwattr $C$DW$T$51, DW_AT_decl_column(0x21)
     970            
     971            $C$DW$T$52      .dwtag  DW_TAG_typedef
     972                    .dwattr $C$DW$T$52, DW_AT_name("int_fast64_t")
     973                    .dwattr $C$DW$T$52, DW_AT_type(*$C$DW$T$51)
     974                    .dwattr $C$DW$T$52, DW_AT_language(DW_LANG_C)
     975                    .dwattr $C$DW$T$52, DW_AT_decl_file("D:/Program Files/TI CCSv6/ccsv6/tools/compiler/msp430_15.
     976                    .dwattr $C$DW$T$52, DW_AT_decl_line(0x4e)
     977                    .dwattr $C$DW$T$52, DW_AT_decl_column(0x17)
MSP430 Assembler PC v15.12.3 Wed Oct 12 11:19:42 2016

Tools Copyright (c) 2003-2015 Texas Instruments Incorporated
C:\Users\LokBok\AppData\Local\Temp\121442                            PAGE   19

     978            
     979            $C$DW$T$53      .dwtag  DW_TAG_typedef
     980                    .dwattr $C$DW$T$53, DW_AT_name("int_least64_t")
     981                    .dwattr $C$DW$T$53, DW_AT_type(*$C$DW$T$51)
     982                    .dwattr $C$DW$T$53, DW_AT_language(DW_LANG_C)
     983                    .dwattr $C$DW$T$53, DW_AT_decl_file("D:/Program Files/TI CCSv6/ccsv6/tools/compiler/msp430_15.
     984                    .dwattr $C$DW$T$53, DW_AT_decl_line(0x40)
     985                    .dwattr $C$DW$T$53, DW_AT_decl_column(0x17)
     986            
     987            $C$DW$T$54      .dwtag  DW_TAG_typedef
     988                    .dwattr $C$DW$T$54, DW_AT_name("intmax_t")
     989                    .dwattr $C$DW$T$54, DW_AT_type(*$C$DW$T$14)
     990                    .dwattr $C$DW$T$54, DW_AT_language(DW_LANG_C)
     991                    .dwattr $C$DW$T$54, DW_AT_decl_file("D:/Program Files/TI CCSv6/ccsv6/tools/compiler/msp430_15.
     992                    .dwattr $C$DW$T$54, DW_AT_decl_line(0x5d)
     993                    .dwattr $C$DW$T$54, DW_AT_decl_column(0x20)
     994            
     995            $C$DW$T$15      .dwtag  DW_TAG_base_type
     996                    .dwattr $C$DW$T$15, DW_AT_encoding(DW_ATE_unsigned)
     997                    .dwattr $C$DW$T$15, DW_AT_name("unsigned long long")
     998                    .dwattr $C$DW$T$15, DW_AT_byte_size(0x08)
     999            
    1000            $C$DW$T$55      .dwtag  DW_TAG_typedef
    1001                    .dwattr $C$DW$T$55, DW_AT_name("uint64_t")
    1002                    .dwattr $C$DW$T$55, DW_AT_type(*$C$DW$T$15)
    1003                    .dwattr $C$DW$T$55, DW_AT_language(DW_LANG_C)
    1004                    .dwattr $C$DW$T$55, DW_AT_decl_file("D:/Program Files/TI CCSv6/ccsv6/tools/compiler/msp430_15.
    1005                    .dwattr $C$DW$T$55, DW_AT_decl_line(0x33)
    1006                    .dwattr $C$DW$T$55, DW_AT_decl_column(0x20)
    1007            
    1008            $C$DW$T$56      .dwtag  DW_TAG_typedef
    1009                    .dwattr $C$DW$T$56, DW_AT_name("uint_fast64_t")
    1010                    .dwattr $C$DW$T$56, DW_AT_type(*$C$DW$T$55)
    1011                    .dwattr $C$DW$T$56, DW_AT_language(DW_LANG_C)
    1012                    .dwattr $C$DW$T$56, DW_AT_decl_file("D:/Program Files/TI CCSv6/ccsv6/tools/compiler/msp430_15.
    1013                    .dwattr $C$DW$T$56, DW_AT_decl_line(0x4f)
    1014                    .dwattr $C$DW$T$56, DW_AT_decl_column(0x16)
    1015            
    1016            $C$DW$T$57      .dwtag  DW_TAG_typedef
    1017                    .dwattr $C$DW$T$57, DW_AT_name("uint_least64_t")
    1018                    .dwattr $C$DW$T$57, DW_AT_type(*$C$DW$T$55)
    1019                    .dwattr $C$DW$T$57, DW_AT_language(DW_LANG_C)
    1020                    .dwattr $C$DW$T$57, DW_AT_decl_file("D:/Program Files/TI CCSv6/ccsv6/tools/compiler/msp430_15.
    1021                    .dwattr $C$DW$T$57, DW_AT_decl_line(0x41)
    1022                    .dwattr $C$DW$T$57, DW_AT_decl_column(0x16)
    1023            
    1024            $C$DW$T$58      .dwtag  DW_TAG_typedef
    1025                    .dwattr $C$DW$T$58, DW_AT_name("uintmax_t")
    1026                    .dwattr $C$DW$T$58, DW_AT_type(*$C$DW$T$15)
    1027                    .dwattr $C$DW$T$58, DW_AT_language(DW_LANG_C)
    1028                    .dwattr $C$DW$T$58, DW_AT_decl_file("D:/Program Files/TI CCSv6/ccsv6/tools/compiler/msp430_15.
    1029                    .dwattr $C$DW$T$58, DW_AT_decl_line(0x5e)
    1030                    .dwattr $C$DW$T$58, DW_AT_decl_column(0x20)
    1031            
    1032            $C$DW$T$16      .dwtag  DW_TAG_base_type
MSP430 Assembler PC v15.12.3 Wed Oct 12 11:19:42 2016

Tools Copyright (c) 2003-2015 Texas Instruments Incorporated
C:\Users\LokBok\AppData\Local\Temp\121442                            PAGE   20

    1033                    .dwattr $C$DW$T$16, DW_AT_encoding(DW_ATE_float)
    1034                    .dwattr $C$DW$T$16, DW_AT_name("float")
    1035                    .dwattr $C$DW$T$16, DW_AT_byte_size(0x04)
    1036            
    1037            $C$DW$T$17      .dwtag  DW_TAG_base_type
    1038                    .dwattr $C$DW$T$17, DW_AT_encoding(DW_ATE_float)
    1039                    .dwattr $C$DW$T$17, DW_AT_name("double")
    1040                    .dwattr $C$DW$T$17, DW_AT_byte_size(0x08)
    1041            
    1042            $C$DW$T$18      .dwtag  DW_TAG_base_type
    1043                    .dwattr $C$DW$T$18, DW_AT_encoding(DW_ATE_float)
    1044                    .dwattr $C$DW$T$18, DW_AT_name("long double")
    1045                    .dwattr $C$DW$T$18, DW_AT_byte_size(0x08)
    1046            
    1047            $C$DW$T$59      .dwtag  DW_TAG_base_type
    1048                    .dwattr $C$DW$T$59, DW_AT_encoding(DW_ATE_unsigned_char)
    1049                    .dwattr $C$DW$T$59, DW_AT_name("unsigned char")
    1050                    .dwattr $C$DW$T$59, DW_AT_byte_size(0x01)
    1051            
    1052                    .dwattr $C$DW$CU, DW_AT_language(DW_LANG_C)
    1053            
    1054            ;***************************************************************
    1055            ;* DWARF CIE ENTRIES                                           *
    1056            ;***************************************************************
    1057            
    1058            $C$DW$CIE       .dwcie 16
    1059                    .dwcfi  cfa_register, 1
    1060                    .dwcfi  cfa_offset, 0
    1061                    .dwcfi  same_value, 0
    1062                    .dwcfi  same_value, 1
    1063                    .dwcfi  undefined, 2
    1064                    .dwcfi  same_value, 3
    1065                    .dwcfi  same_value, 4
    1066                    .dwcfi  same_value, 5
    1067                    .dwcfi  same_value, 6
    1068                    .dwcfi  same_value, 7
    1069                    .dwcfi  same_value, 8
    1070                    .dwcfi  same_value, 9
    1071                    .dwcfi  same_value, 10
    1072                    .dwcfi  undefined, 11
    1073                    .dwcfi  undefined, 12
    1074                    .dwcfi  undefined, 13
    1075                    .dwcfi  undefined, 14
    1076                    .dwcfi  undefined, 15
    1077                    .dwcfi  undefined, 16
    1078                    .dwendentry
    1079            
    1080            ;***************************************************************
    1081            ;* DWARF REGISTER MAP                                          *
    1082            ;***************************************************************
    1083            
    1084            $C$DW$47        .dwtag  DW_TAG_TI_assign_register
    1085                    .dwattr $C$DW$47, DW_AT_name("PC")
    1086                    .dwattr $C$DW$47, DW_AT_location[DW_OP_reg0]
    1087            
MSP430 Assembler PC v15.12.3 Wed Oct 12 11:19:42 2016

Tools Copyright (c) 2003-2015 Texas Instruments Incorporated
C:\Users\LokBok\AppData\Local\Temp\121442                            PAGE   21

    1088            $C$DW$48        .dwtag  DW_TAG_TI_assign_register
    1089                    .dwattr $C$DW$48, DW_AT_name("SP")
    1090                    .dwattr $C$DW$48, DW_AT_location[DW_OP_reg1]
    1091            
    1092            $C$DW$49        .dwtag  DW_TAG_TI_assign_register
    1093                    .dwattr $C$DW$49, DW_AT_name("SR")
    1094                    .dwattr $C$DW$49, DW_AT_location[DW_OP_reg2]
    1095            
    1096            $C$DW$50        .dwtag  DW_TAG_TI_assign_register
    1097                    .dwattr $C$DW$50, DW_AT_name("CG")
    1098                    .dwattr $C$DW$50, DW_AT_location[DW_OP_reg3]
    1099            
    1100            $C$DW$51        .dwtag  DW_TAG_TI_assign_register
    1101                    .dwattr $C$DW$51, DW_AT_name("r4")
    1102                    .dwattr $C$DW$51, DW_AT_location[DW_OP_reg4]
    1103            
    1104            $C$DW$52        .dwtag  DW_TAG_TI_assign_register
    1105                    .dwattr $C$DW$52, DW_AT_name("r5")
    1106                    .dwattr $C$DW$52, DW_AT_location[DW_OP_reg5]
    1107            
    1108            $C$DW$53        .dwtag  DW_TAG_TI_assign_register
    1109                    .dwattr $C$DW$53, DW_AT_name("r6")
    1110                    .dwattr $C$DW$53, DW_AT_location[DW_OP_reg6]
    1111            
    1112            $C$DW$54        .dwtag  DW_TAG_TI_assign_register
    1113                    .dwattr $C$DW$54, DW_AT_name("r7")
    1114                    .dwattr $C$DW$54, DW_AT_location[DW_OP_reg7]
    1115            
    1116            $C$DW$55        .dwtag  DW_TAG_TI_assign_register
    1117                    .dwattr $C$DW$55, DW_AT_name("r8")
    1118                    .dwattr $C$DW$55, DW_AT_location[DW_OP_reg8]
    1119            
    1120            $C$DW$56        .dwtag  DW_TAG_TI_assign_register
    1121                    .dwattr $C$DW$56, DW_AT_name("r9")
    1122                    .dwattr $C$DW$56, DW_AT_location[DW_OP_reg9]
    1123            
    1124            $C$DW$57        .dwtag  DW_TAG_TI_assign_register
    1125                    .dwattr $C$DW$57, DW_AT_name("r10")
    1126                    .dwattr $C$DW$57, DW_AT_location[DW_OP_reg10]
    1127            
    1128            $C$DW$58        .dwtag  DW_TAG_TI_assign_register
    1129                    .dwattr $C$DW$58, DW_AT_name("r11")
    1130                    .dwattr $C$DW$58, DW_AT_location[DW_OP_reg11]
    1131            
    1132            $C$DW$59        .dwtag  DW_TAG_TI_assign_register
    1133                    .dwattr $C$DW$59, DW_AT_name("r12")
    1134                    .dwattr $C$DW$59, DW_AT_location[DW_OP_reg12]
    1135            
    1136            $C$DW$60        .dwtag  DW_TAG_TI_assign_register
    1137                    .dwattr $C$DW$60, DW_AT_name("r13")
    1138                    .dwattr $C$DW$60, DW_AT_location[DW_OP_reg13]
    1139            
    1140            $C$DW$61        .dwtag  DW_TAG_TI_assign_register
    1141                    .dwattr $C$DW$61, DW_AT_name("r14")
    1142                    .dwattr $C$DW$61, DW_AT_location[DW_OP_reg14]
MSP430 Assembler PC v15.12.3 Wed Oct 12 11:19:42 2016

Tools Copyright (c) 2003-2015 Texas Instruments Incorporated
C:\Users\LokBok\AppData\Local\Temp\121442                            PAGE   22

    1143            
    1144            $C$DW$62        .dwtag  DW_TAG_TI_assign_register
    1145                    .dwattr $C$DW$62, DW_AT_name("r15")
    1146                    .dwattr $C$DW$62, DW_AT_location[DW_OP_reg15]
    1147            
    1148            $C$DW$63        .dwtag  DW_TAG_TI_assign_register
    1149                    .dwattr $C$DW$63, DW_AT_name("CIE_RETA")
    1150                    .dwattr $C$DW$63, DW_AT_location[DW_OP_reg16]
    1151            
    1152                    .dwendtag $C$DW$CU
    1153            

No Assembly Errors, No Assembly Warnings
