MSP430 Assembler PC v15.12.3 Mon Oct 17 14:33:10 2016

Tools Copyright (c) 2003-2015 Texas Instruments Incorporated
C:\Users\madis\AppData\Local\Temp\042042                             PAGE    1

       1            ;******************************************************************************
       2            ;* MSP430 C/C++ Codegen                                       PC v15.12.3.LTS *
       3            ;* Date/Time created: Mon Oct 17 14:33:10 2016                                *
       4            ;******************************************************************************
       5                    .compiler_opts --abi=eabi --diag_wrap=off --hll_source=on --mem_model:code=large --mem_model:d
       6            
       7            $C$DW$CU        .dwtag  DW_TAG_compile_unit
       8                    .dwattr $C$DW$CU, DW_AT_name("../MSP430F5xx_6xx/sfr.c")
       9                    .dwattr $C$DW$CU, DW_AT_producer("TI MSP430 C/C++ Codegen PC v15.12.3.LTS Copyright (c) 2003-2
      10                    .dwattr $C$DW$CU, DW_AT_TI_version(0x01)
      11                    .dwattr $C$DW$CU, DW_AT_comp_dir("D:\CodeComposerProj\CardReader001\src\Debug")
      12            ;       D:\ti\ccsv6\tools\compiler\msp430_15.12.3.LTS\bin\opt430.exe D:/CodeComposerProj/CardReader001
      13 000000               .sect   ".text:SFR_enableInterrupt"
      14                    .clink
      15                    .global SFR_enableInterrupt
      16            
      17            $C$DW$1 .dwtag  DW_TAG_subprogram
      18                    .dwattr $C$DW$1, DW_AT_name("SFR_enableInterrupt")
      19                    .dwattr $C$DW$1, DW_AT_low_pc(SFR_enableInterrupt)
      20                    .dwattr $C$DW$1, DW_AT_high_pc(0x00)
      21                    .dwattr $C$DW$1, DW_AT_TI_symbol_name("SFR_enableInterrupt")
      22                    .dwattr $C$DW$1, DW_AT_external
      23                    .dwattr $C$DW$1, DW_AT_TI_begin_file("../MSP430F5xx_6xx/sfr.c")
      24                    .dwattr $C$DW$1, DW_AT_TI_begin_line(0x34)
      25                    .dwattr $C$DW$1, DW_AT_TI_begin_column(0x06)
      26                    .dwattr $C$DW$1, DW_AT_decl_file("../MSP430F5xx_6xx/sfr.c")
      27                    .dwattr $C$DW$1, DW_AT_decl_line(0x34)
      28                    .dwattr $C$DW$1, DW_AT_decl_column(0x06)
      29                    .dwattr $C$DW$1, DW_AT_TI_max_frame_size(0x04)
      30                    .dwpsn  file "../MSP430F5xx_6xx/sfr.c",line 53,column 1,is_stmt,address SFR_enableInterrupt,is
      31            
      32                    .dwfde $C$DW$CIE, SFR_enableInterrupt
      33            $C$DW$2 .dwtag  DW_TAG_formal_parameter
      34                    .dwattr $C$DW$2, DW_AT_name("interruptMask")
      35                    .dwattr $C$DW$2, DW_AT_TI_symbol_name("interruptMask")
      36                    .dwattr $C$DW$2, DW_AT_type(*$C$DW$T$19)
      37                    .dwattr $C$DW$2, DW_AT_location[DW_OP_reg12]
      38            
      39            
      40            ;*****************************************************************************
      41            ;* FUNCTION NAME: SFR_enableInterrupt                                        *
      42            ;*                                                                           *
      43            ;*   Regs Modified     : SP                                                  *
      44            ;*   Regs Used         : SP,r12                                              *
      45            ;*   Local Frame Size  : 0 Args + 0 Auto + 0 Save = 0 byte                   *
      46            ;*****************************************************************************
      47 000000       SFR_enableInterrupt:
      48            ;* --------------------------------------------------------------------------*
      49                    .dwcfi  cfa_offset, 4
      50                    .dwcfi  save_reg_to_mem, 16, -4
      51            ;* r12   assigned to interruptMask
      52            $C$DW$3 .dwtag  DW_TAG_variable
      53                    .dwattr $C$DW$3, DW_AT_name("interruptMask")
      54                    .dwattr $C$DW$3, DW_AT_TI_symbol_name("interruptMask")
      55                    .dwattr $C$DW$3, DW_AT_type(*$C$DW$T$19)
MSP430 Assembler PC v15.12.3 Mon Oct 17 14:33:10 2016

Tools Copyright (c) 2003-2015 Texas Instruments Incorporated
C:\Users\madis\AppData\Local\Temp\042042                             PAGE    2

      56                    .dwattr $C$DW$3, DW_AT_location[DW_OP_reg12]
      57            
      58                    .dwpsn  file "../MSP430F5xx_6xx/sfr.c",line 54,column 5,is_stmt,isa 0
      59 000000 DCC2          OR.B      r12,&0x100            ; [] |54| 
         000002 0100 
      60                    .dwpsn  file "../MSP430F5xx_6xx/sfr.c",line 55,column 1,is_stmt,isa 0
      61            $C$DW$4 .dwtag  DW_TAG_TI_branch
      62                    .dwattr $C$DW$4, DW_AT_low_pc(0x00)
      63                    .dwattr $C$DW$4, DW_AT_TI_return
      64            
      65 000004 0110          RETA      ; [] 
      66                    ; [] 
      67                    .dwattr $C$DW$1, DW_AT_TI_end_file("../MSP430F5xx_6xx/sfr.c")
      68                    .dwattr $C$DW$1, DW_AT_TI_end_line(0x37)
      69                    .dwattr $C$DW$1, DW_AT_TI_end_column(0x01)
      70                    .dwendentry
      71                    .dwendtag $C$DW$1
      72            
      73 000000               .sect   ".text:SFR_disableInterrupt"
      74                    .clink
      75                    .global SFR_disableInterrupt
      76            
      77            $C$DW$5 .dwtag  DW_TAG_subprogram
      78                    .dwattr $C$DW$5, DW_AT_name("SFR_disableInterrupt")
      79                    .dwattr $C$DW$5, DW_AT_low_pc(SFR_disableInterrupt)
      80                    .dwattr $C$DW$5, DW_AT_high_pc(0x00)
      81                    .dwattr $C$DW$5, DW_AT_TI_symbol_name("SFR_disableInterrupt")
      82                    .dwattr $C$DW$5, DW_AT_external
      83                    .dwattr $C$DW$5, DW_AT_TI_begin_file("../MSP430F5xx_6xx/sfr.c")
      84                    .dwattr $C$DW$5, DW_AT_TI_begin_line(0x39)
      85                    .dwattr $C$DW$5, DW_AT_TI_begin_column(0x06)
      86                    .dwattr $C$DW$5, DW_AT_decl_file("../MSP430F5xx_6xx/sfr.c")
      87                    .dwattr $C$DW$5, DW_AT_decl_line(0x39)
      88                    .dwattr $C$DW$5, DW_AT_decl_column(0x06)
      89                    .dwattr $C$DW$5, DW_AT_TI_max_frame_size(0x04)
      90                    .dwpsn  file "../MSP430F5xx_6xx/sfr.c",line 58,column 1,is_stmt,address SFR_disableInterrupt,i
      91            
      92                    .dwfde $C$DW$CIE, SFR_disableInterrupt
      93            $C$DW$6 .dwtag  DW_TAG_formal_parameter
      94                    .dwattr $C$DW$6, DW_AT_name("interruptMask")
      95                    .dwattr $C$DW$6, DW_AT_TI_symbol_name("interruptMask")
      96                    .dwattr $C$DW$6, DW_AT_type(*$C$DW$T$19)
      97                    .dwattr $C$DW$6, DW_AT_location[DW_OP_reg12]
      98            
      99            
     100            ;*****************************************************************************
     101            ;* FUNCTION NAME: SFR_disableInterrupt                                       *
     102            ;*                                                                           *
     103            ;*   Regs Modified     : SP                                                  *
     104            ;*   Regs Used         : SP,r12                                              *
     105            ;*   Local Frame Size  : 0 Args + 0 Auto + 0 Save = 0 byte                   *
     106            ;*****************************************************************************
     107 000000       SFR_disableInterrupt:
     108            ;* --------------------------------------------------------------------------*
     109                    .dwcfi  cfa_offset, 4
MSP430 Assembler PC v15.12.3 Mon Oct 17 14:33:10 2016

Tools Copyright (c) 2003-2015 Texas Instruments Incorporated
C:\Users\madis\AppData\Local\Temp\042042                             PAGE    3

     110                    .dwcfi  save_reg_to_mem, 16, -4
     111            ;* r12   assigned to interruptMask
     112            $C$DW$7 .dwtag  DW_TAG_variable
     113                    .dwattr $C$DW$7, DW_AT_name("interruptMask")
     114                    .dwattr $C$DW$7, DW_AT_TI_symbol_name("interruptMask")
     115                    .dwattr $C$DW$7, DW_AT_type(*$C$DW$T$19)
     116                    .dwattr $C$DW$7, DW_AT_location[DW_OP_reg12]
     117            
     118                    .dwpsn  file "../MSP430F5xx_6xx/sfr.c",line 59,column 5,is_stmt,isa 0
     119 000000 CCC2          BIC.B     r12,&0x100            ; [] |59| 
         000002 0100 
     120                    .dwpsn  file "../MSP430F5xx_6xx/sfr.c",line 60,column 1,is_stmt,isa 0
     121            $C$DW$8 .dwtag  DW_TAG_TI_branch
     122                    .dwattr $C$DW$8, DW_AT_low_pc(0x00)
     123                    .dwattr $C$DW$8, DW_AT_TI_return
     124            
     125 000004 0110          RETA      ; [] 
     126                    ; [] 
     127                    .dwattr $C$DW$5, DW_AT_TI_end_file("../MSP430F5xx_6xx/sfr.c")
     128                    .dwattr $C$DW$5, DW_AT_TI_end_line(0x3c)
     129                    .dwattr $C$DW$5, DW_AT_TI_end_column(0x01)
     130                    .dwendentry
     131                    .dwendtag $C$DW$5
     132            
     133 000000               .sect   ".text:SFR_getInterruptStatus"
     134                    .clink
     135                    .global SFR_getInterruptStatus
     136            
     137            $C$DW$9 .dwtag  DW_TAG_subprogram
     138                    .dwattr $C$DW$9, DW_AT_name("SFR_getInterruptStatus")
     139                    .dwattr $C$DW$9, DW_AT_low_pc(SFR_getInterruptStatus)
     140                    .dwattr $C$DW$9, DW_AT_high_pc(0x00)
     141                    .dwattr $C$DW$9, DW_AT_TI_symbol_name("SFR_getInterruptStatus")
     142                    .dwattr $C$DW$9, DW_AT_external
     143                    .dwattr $C$DW$9, DW_AT_type(*$C$DW$T$19)
     144                    .dwattr $C$DW$9, DW_AT_TI_begin_file("../MSP430F5xx_6xx/sfr.c")
     145                    .dwattr $C$DW$9, DW_AT_TI_begin_line(0x3e)
     146                    .dwattr $C$DW$9, DW_AT_TI_begin_column(0x09)
     147                    .dwattr $C$DW$9, DW_AT_decl_file("../MSP430F5xx_6xx/sfr.c")
     148                    .dwattr $C$DW$9, DW_AT_decl_line(0x3e)
     149                    .dwattr $C$DW$9, DW_AT_decl_column(0x09)
     150                    .dwattr $C$DW$9, DW_AT_TI_max_frame_size(0x04)
     151                    .dwpsn  file "../MSP430F5xx_6xx/sfr.c",line 63,column 1,is_stmt,address SFR_getInterruptStatus
     152            
     153                    .dwfde $C$DW$CIE, SFR_getInterruptStatus
     154            $C$DW$10        .dwtag  DW_TAG_formal_parameter
     155                    .dwattr $C$DW$10, DW_AT_name("interruptFlagMask")
     156                    .dwattr $C$DW$10, DW_AT_TI_symbol_name("interruptFlagMask")
     157                    .dwattr $C$DW$10, DW_AT_type(*$C$DW$T$19)
     158                    .dwattr $C$DW$10, DW_AT_location[DW_OP_reg12]
     159            
     160            
     161            ;*****************************************************************************
     162            ;* FUNCTION NAME: SFR_getInterruptStatus                                     *
     163            ;*                                                                           *
MSP430 Assembler PC v15.12.3 Mon Oct 17 14:33:10 2016

Tools Copyright (c) 2003-2015 Texas Instruments Incorporated
C:\Users\madis\AppData\Local\Temp\042042                             PAGE    4

     164            ;*   Regs Modified     : SP,SR,r12,r15                                       *
     165            ;*   Regs Used         : SP,SR,r12,r15                                       *
     166            ;*   Local Frame Size  : 0 Args + 0 Auto + 0 Save = 0 byte                   *
     167            ;*****************************************************************************
     168 000000       SFR_getInterruptStatus:
     169            ;* --------------------------------------------------------------------------*
     170                    .dwcfi  cfa_offset, 4
     171                    .dwcfi  save_reg_to_mem, 16, -4
     172                    .dwpsn  file "../MSP430F5xx_6xx/sfr.c",line 64,column 5,is_stmt,isa 0
     173 000000 425F          MOV.B     &0x102,r15            ; [] |64| 
         000002 0102 
     174 000004 FF4C          AND.B     r15,r12               ; [] |64| 
     175                    .dwpsn  file "../MSP430F5xx_6xx/sfr.c",line 65,column 1,is_stmt,isa 0
     176            $C$DW$11        .dwtag  DW_TAG_TI_branch
     177                    .dwattr $C$DW$11, DW_AT_low_pc(0x00)
     178                    .dwattr $C$DW$11, DW_AT_TI_return
     179            
     180 000006 0110          RETA      ; [] 
     181                    ; [] 
     182                    .dwattr $C$DW$9, DW_AT_TI_end_file("../MSP430F5xx_6xx/sfr.c")
     183                    .dwattr $C$DW$9, DW_AT_TI_end_line(0x41)
     184                    .dwattr $C$DW$9, DW_AT_TI_end_column(0x01)
     185                    .dwendentry
     186                    .dwendtag $C$DW$9
     187            
     188 000000               .sect   ".text:SFR_clearInterrupt"
     189                    .clink
     190                    .global SFR_clearInterrupt
     191            
     192            $C$DW$12        .dwtag  DW_TAG_subprogram
     193                    .dwattr $C$DW$12, DW_AT_name("SFR_clearInterrupt")
     194                    .dwattr $C$DW$12, DW_AT_low_pc(SFR_clearInterrupt)
     195                    .dwattr $C$DW$12, DW_AT_high_pc(0x00)
     196                    .dwattr $C$DW$12, DW_AT_TI_symbol_name("SFR_clearInterrupt")
     197                    .dwattr $C$DW$12, DW_AT_external
     198                    .dwattr $C$DW$12, DW_AT_TI_begin_file("../MSP430F5xx_6xx/sfr.c")
     199                    .dwattr $C$DW$12, DW_AT_TI_begin_line(0x43)
     200                    .dwattr $C$DW$12, DW_AT_TI_begin_column(0x06)
     201                    .dwattr $C$DW$12, DW_AT_decl_file("../MSP430F5xx_6xx/sfr.c")
     202                    .dwattr $C$DW$12, DW_AT_decl_line(0x43)
     203                    .dwattr $C$DW$12, DW_AT_decl_column(0x06)
     204                    .dwattr $C$DW$12, DW_AT_TI_max_frame_size(0x04)
     205                    .dwpsn  file "../MSP430F5xx_6xx/sfr.c",line 68,column 1,is_stmt,address SFR_clearInterrupt,isa
     206            
     207                    .dwfde $C$DW$CIE, SFR_clearInterrupt
     208            $C$DW$13        .dwtag  DW_TAG_formal_parameter
     209                    .dwattr $C$DW$13, DW_AT_name("interruptFlagMask")
     210                    .dwattr $C$DW$13, DW_AT_TI_symbol_name("interruptFlagMask")
     211                    .dwattr $C$DW$13, DW_AT_type(*$C$DW$T$19)
     212                    .dwattr $C$DW$13, DW_AT_location[DW_OP_reg12]
     213            
     214            
     215            ;*****************************************************************************
     216            ;* FUNCTION NAME: SFR_clearInterrupt                                         *
     217            ;*                                                                           *
MSP430 Assembler PC v15.12.3 Mon Oct 17 14:33:10 2016

Tools Copyright (c) 2003-2015 Texas Instruments Incorporated
C:\Users\madis\AppData\Local\Temp\042042                             PAGE    5

     218            ;*   Regs Modified     : SP                                                  *
     219            ;*   Regs Used         : SP,r12                                              *
     220            ;*   Local Frame Size  : 0 Args + 0 Auto + 0 Save = 0 byte                   *
     221            ;*****************************************************************************
     222 000000       SFR_clearInterrupt:
     223            ;* --------------------------------------------------------------------------*
     224                    .dwcfi  cfa_offset, 4
     225                    .dwcfi  save_reg_to_mem, 16, -4
     226            ;* r12   assigned to interruptFlagMask
     227            $C$DW$14        .dwtag  DW_TAG_variable
     228                    .dwattr $C$DW$14, DW_AT_name("interruptFlagMask")
     229                    .dwattr $C$DW$14, DW_AT_TI_symbol_name("interruptFlagMask")
     230                    .dwattr $C$DW$14, DW_AT_type(*$C$DW$T$19)
     231                    .dwattr $C$DW$14, DW_AT_location[DW_OP_reg12]
     232            
     233                    .dwpsn  file "../MSP430F5xx_6xx/sfr.c",line 69,column 5,is_stmt,isa 0
     234 000000 CCC2          BIC.B     r12,&0x102            ; [] |69| 
         000002 0102 
     235                    .dwpsn  file "../MSP430F5xx_6xx/sfr.c",line 70,column 1,is_stmt,isa 0
     236            $C$DW$15        .dwtag  DW_TAG_TI_branch
     237                    .dwattr $C$DW$15, DW_AT_low_pc(0x00)
     238                    .dwattr $C$DW$15, DW_AT_TI_return
     239            
     240 000004 0110          RETA      ; [] 
     241                    ; [] 
     242                    .dwattr $C$DW$12, DW_AT_TI_end_file("../MSP430F5xx_6xx/sfr.c")
     243                    .dwattr $C$DW$12, DW_AT_TI_end_line(0x46)
     244                    .dwattr $C$DW$12, DW_AT_TI_end_column(0x01)
     245                    .dwendentry
     246                    .dwendtag $C$DW$12
     247            
     248 000000               .sect   ".text:SFR_setResetPinPullResistor"
     249                    .clink
     250                    .global SFR_setResetPinPullResistor
     251            
     252            $C$DW$16        .dwtag  DW_TAG_subprogram
     253                    .dwattr $C$DW$16, DW_AT_name("SFR_setResetPinPullResistor")
     254                    .dwattr $C$DW$16, DW_AT_low_pc(SFR_setResetPinPullResistor)
     255                    .dwattr $C$DW$16, DW_AT_high_pc(0x00)
     256                    .dwattr $C$DW$16, DW_AT_TI_symbol_name("SFR_setResetPinPullResistor")
     257                    .dwattr $C$DW$16, DW_AT_external
     258                    .dwattr $C$DW$16, DW_AT_TI_begin_file("../MSP430F5xx_6xx/sfr.c")
     259                    .dwattr $C$DW$16, DW_AT_TI_begin_line(0x48)
     260                    .dwattr $C$DW$16, DW_AT_TI_begin_column(0x06)
     261                    .dwattr $C$DW$16, DW_AT_decl_file("../MSP430F5xx_6xx/sfr.c")
     262                    .dwattr $C$DW$16, DW_AT_decl_line(0x48)
     263                    .dwattr $C$DW$16, DW_AT_decl_column(0x06)
     264                    .dwattr $C$DW$16, DW_AT_TI_max_frame_size(0x04)
     265                    .dwpsn  file "../MSP430F5xx_6xx/sfr.c",line 73,column 1,is_stmt,address SFR_setResetPinPullRes
     266            
     267                    .dwfde $C$DW$CIE, SFR_setResetPinPullResistor
     268            $C$DW$17        .dwtag  DW_TAG_formal_parameter
     269                    .dwattr $C$DW$17, DW_AT_name("pullResistorSetup")
     270                    .dwattr $C$DW$17, DW_AT_TI_symbol_name("pullResistorSetup")
     271                    .dwattr $C$DW$17, DW_AT_type(*$C$DW$T$21)
MSP430 Assembler PC v15.12.3 Mon Oct 17 14:33:10 2016

Tools Copyright (c) 2003-2015 Texas Instruments Incorporated
C:\Users\madis\AppData\Local\Temp\042042                             PAGE    6

     272                    .dwattr $C$DW$17, DW_AT_location[DW_OP_reg12]
     273            
     274            
     275            ;*****************************************************************************
     276            ;* FUNCTION NAME: SFR_setResetPinPullResistor                                *
     277            ;*                                                                           *
     278            ;*   Regs Modified     : SP,SR                                               *
     279            ;*   Regs Used         : SP,SR,r12                                           *
     280            ;*   Local Frame Size  : 0 Args + 0 Auto + 0 Save = 0 byte                   *
     281            ;*****************************************************************************
     282 000000       SFR_setResetPinPullResistor:
     283            ;* --------------------------------------------------------------------------*
     284                    .dwcfi  cfa_offset, 4
     285                    .dwcfi  save_reg_to_mem, 16, -4
     286            ;* r12   assigned to pullResistorSetup
     287            $C$DW$18        .dwtag  DW_TAG_variable
     288                    .dwattr $C$DW$18, DW_AT_name("pullResistorSetup")
     289                    .dwattr $C$DW$18, DW_AT_TI_symbol_name("pullResistorSetup")
     290                    .dwattr $C$DW$18, DW_AT_type(*$C$DW$T$21)
     291                    .dwattr $C$DW$18, DW_AT_location[DW_OP_reg12]
     292            
     293                    .dwpsn  file "../MSP430F5xx_6xx/sfr.c",line 74,column 5,is_stmt,isa 0
     294 000000 F0F2          AND.B     #243,&0x104           ; [] |74| 
         000002 00F3 
         000004 0104 
     295                    .dwpsn  file "../MSP430F5xx_6xx/sfr.c",line 75,column 5,is_stmt,isa 0
     296 000006 DCC2          OR.B      r12,&0x104            ; [] |75| 
         000008 0104 
     297                    .dwpsn  file "../MSP430F5xx_6xx/sfr.c",line 76,column 1,is_stmt,isa 0
     298            $C$DW$19        .dwtag  DW_TAG_TI_branch
     299                    .dwattr $C$DW$19, DW_AT_low_pc(0x00)
     300                    .dwattr $C$DW$19, DW_AT_TI_return
     301            
     302 00000a 0110          RETA      ; [] 
     303                    ; [] 
     304                    .dwattr $C$DW$16, DW_AT_TI_end_file("../MSP430F5xx_6xx/sfr.c")
     305                    .dwattr $C$DW$16, DW_AT_TI_end_line(0x4c)
     306                    .dwattr $C$DW$16, DW_AT_TI_end_column(0x01)
     307                    .dwendentry
     308                    .dwendtag $C$DW$16
     309            
     310 000000               .sect   ".text:SFR_setNMIEdge"
     311                    .clink
     312                    .global SFR_setNMIEdge
     313            
     314            $C$DW$20        .dwtag  DW_TAG_subprogram
     315                    .dwattr $C$DW$20, DW_AT_name("SFR_setNMIEdge")
     316                    .dwattr $C$DW$20, DW_AT_low_pc(SFR_setNMIEdge)
     317                    .dwattr $C$DW$20, DW_AT_high_pc(0x00)
     318                    .dwattr $C$DW$20, DW_AT_TI_symbol_name("SFR_setNMIEdge")
     319                    .dwattr $C$DW$20, DW_AT_external
     320                    .dwattr $C$DW$20, DW_AT_TI_begin_file("../MSP430F5xx_6xx/sfr.c")
     321                    .dwattr $C$DW$20, DW_AT_TI_begin_line(0x4e)
     322                    .dwattr $C$DW$20, DW_AT_TI_begin_column(0x06)
     323                    .dwattr $C$DW$20, DW_AT_decl_file("../MSP430F5xx_6xx/sfr.c")
MSP430 Assembler PC v15.12.3 Mon Oct 17 14:33:10 2016

Tools Copyright (c) 2003-2015 Texas Instruments Incorporated
C:\Users\madis\AppData\Local\Temp\042042                             PAGE    7

     324                    .dwattr $C$DW$20, DW_AT_decl_line(0x4e)
     325                    .dwattr $C$DW$20, DW_AT_decl_column(0x06)
     326                    .dwattr $C$DW$20, DW_AT_TI_max_frame_size(0x04)
     327                    .dwpsn  file "../MSP430F5xx_6xx/sfr.c",line 79,column 1,is_stmt,address SFR_setNMIEdge,isa 0
     328            
     329                    .dwfde $C$DW$CIE, SFR_setNMIEdge
     330            $C$DW$21        .dwtag  DW_TAG_formal_parameter
     331                    .dwattr $C$DW$21, DW_AT_name("edgeDirection")
     332                    .dwattr $C$DW$21, DW_AT_TI_symbol_name("edgeDirection")
     333                    .dwattr $C$DW$21, DW_AT_type(*$C$DW$T$21)
     334                    .dwattr $C$DW$21, DW_AT_location[DW_OP_reg12]
     335            
     336            
     337            ;*****************************************************************************
     338            ;* FUNCTION NAME: SFR_setNMIEdge                                             *
     339            ;*                                                                           *
     340            ;*   Regs Modified     : SP                                                  *
     341            ;*   Regs Used         : SP,r12                                              *
     342            ;*   Local Frame Size  : 0 Args + 0 Auto + 0 Save = 0 byte                   *
     343            ;*****************************************************************************
     344 000000       SFR_setNMIEdge:
     345            ;* --------------------------------------------------------------------------*
     346                    .dwcfi  cfa_offset, 4
     347                    .dwcfi  save_reg_to_mem, 16, -4
     348            ;* r12   assigned to edgeDirection
     349            $C$DW$22        .dwtag  DW_TAG_variable
     350                    .dwattr $C$DW$22, DW_AT_name("edgeDirection")
     351                    .dwattr $C$DW$22, DW_AT_TI_symbol_name("edgeDirection")
     352                    .dwattr $C$DW$22, DW_AT_type(*$C$DW$T$21)
     353                    .dwattr $C$DW$22, DW_AT_location[DW_OP_reg12]
     354            
     355                    .dwpsn  file "../MSP430F5xx_6xx/sfr.c",line 80,column 5,is_stmt,isa 0
     356 000000 C3E2          BIC.B     #2,&0x104             ; [] |80| 
         000002 0104 
     357                    .dwpsn  file "../MSP430F5xx_6xx/sfr.c",line 81,column 5,is_stmt,isa 0
     358 000004 DCC2          OR.B      r12,&0x104            ; [] |81| 
         000006 0104 
     359                    .dwpsn  file "../MSP430F5xx_6xx/sfr.c",line 82,column 1,is_stmt,isa 0
     360            $C$DW$23        .dwtag  DW_TAG_TI_branch
     361                    .dwattr $C$DW$23, DW_AT_low_pc(0x00)
     362                    .dwattr $C$DW$23, DW_AT_TI_return
     363            
     364 000008 0110          RETA      ; [] 
     365                    ; [] 
     366                    .dwattr $C$DW$20, DW_AT_TI_end_file("../MSP430F5xx_6xx/sfr.c")
     367                    .dwattr $C$DW$20, DW_AT_TI_end_line(0x52)
     368                    .dwattr $C$DW$20, DW_AT_TI_end_column(0x01)
     369                    .dwendentry
     370                    .dwendtag $C$DW$20
     371            
     372 000000               .sect   ".text:SFR_setResetNMIPinFunction"
     373                    .clink
     374                    .global SFR_setResetNMIPinFunction
     375            
     376            $C$DW$24        .dwtag  DW_TAG_subprogram
MSP430 Assembler PC v15.12.3 Mon Oct 17 14:33:10 2016

Tools Copyright (c) 2003-2015 Texas Instruments Incorporated
C:\Users\madis\AppData\Local\Temp\042042                             PAGE    8

     377                    .dwattr $C$DW$24, DW_AT_name("SFR_setResetNMIPinFunction")
     378                    .dwattr $C$DW$24, DW_AT_low_pc(SFR_setResetNMIPinFunction)
     379                    .dwattr $C$DW$24, DW_AT_high_pc(0x00)
     380                    .dwattr $C$DW$24, DW_AT_TI_symbol_name("SFR_setResetNMIPinFunction")
     381                    .dwattr $C$DW$24, DW_AT_external
     382                    .dwattr $C$DW$24, DW_AT_TI_begin_file("../MSP430F5xx_6xx/sfr.c")
     383                    .dwattr $C$DW$24, DW_AT_TI_begin_line(0x54)
     384                    .dwattr $C$DW$24, DW_AT_TI_begin_column(0x06)
     385                    .dwattr $C$DW$24, DW_AT_decl_file("../MSP430F5xx_6xx/sfr.c")
     386                    .dwattr $C$DW$24, DW_AT_decl_line(0x54)
     387                    .dwattr $C$DW$24, DW_AT_decl_column(0x06)
     388                    .dwattr $C$DW$24, DW_AT_TI_max_frame_size(0x04)
     389                    .dwpsn  file "../MSP430F5xx_6xx/sfr.c",line 85,column 1,is_stmt,address SFR_setResetNMIPinFunc
     390            
     391                    .dwfde $C$DW$CIE, SFR_setResetNMIPinFunction
     392            $C$DW$25        .dwtag  DW_TAG_formal_parameter
     393                    .dwattr $C$DW$25, DW_AT_name("resetPinFunction")
     394                    .dwattr $C$DW$25, DW_AT_TI_symbol_name("resetPinFunction")
     395                    .dwattr $C$DW$25, DW_AT_type(*$C$DW$T$19)
     396                    .dwattr $C$DW$25, DW_AT_location[DW_OP_reg12]
     397            
     398            
     399            ;*****************************************************************************
     400            ;* FUNCTION NAME: SFR_setResetNMIPinFunction                                 *
     401            ;*                                                                           *
     402            ;*   Regs Modified     : SP                                                  *
     403            ;*   Regs Used         : SP,r12                                              *
     404            ;*   Local Frame Size  : 0 Args + 0 Auto + 0 Save = 0 byte                   *
     405            ;*****************************************************************************
     406 000000       SFR_setResetNMIPinFunction:
     407            ;* --------------------------------------------------------------------------*
     408                    .dwcfi  cfa_offset, 4
     409                    .dwcfi  save_reg_to_mem, 16, -4
     410            ;* r12   assigned to resetPinFunction
     411            $C$DW$26        .dwtag  DW_TAG_variable
     412                    .dwattr $C$DW$26, DW_AT_name("resetPinFunction")
     413                    .dwattr $C$DW$26, DW_AT_TI_symbol_name("resetPinFunction")
     414                    .dwattr $C$DW$26, DW_AT_type(*$C$DW$T$19)
     415                    .dwattr $C$DW$26, DW_AT_location[DW_OP_reg12]
     416            
     417                    .dwpsn  file "../MSP430F5xx_6xx/sfr.c",line 86,column 5,is_stmt,isa 0
     418 000000 C3D2          BIC.B     #1,&0x104             ; [] |86| 
         000002 0104 
     419                    .dwpsn  file "../MSP430F5xx_6xx/sfr.c",line 87,column 5,is_stmt,isa 0
     420 000004 DCC2          OR.B      r12,&0x104            ; [] |87| 
         000006 0104 
     421                    .dwpsn  file "../MSP430F5xx_6xx/sfr.c",line 88,column 1,is_stmt,isa 0
     422            $C$DW$27        .dwtag  DW_TAG_TI_branch
     423                    .dwattr $C$DW$27, DW_AT_low_pc(0x00)
     424                    .dwattr $C$DW$27, DW_AT_TI_return
     425            
     426 000008 0110          RETA      ; [] 
     427                    ; [] 
     428                    .dwattr $C$DW$24, DW_AT_TI_end_file("../MSP430F5xx_6xx/sfr.c")
     429                    .dwattr $C$DW$24, DW_AT_TI_end_line(0x58)
MSP430 Assembler PC v15.12.3 Mon Oct 17 14:33:10 2016

Tools Copyright (c) 2003-2015 Texas Instruments Incorporated
C:\Users\madis\AppData\Local\Temp\042042                             PAGE    9

     430                    .dwattr $C$DW$24, DW_AT_TI_end_column(0x01)
     431                    .dwendentry
     432                    .dwendtag $C$DW$24
     433            
     434            
     435            ;******************************************************************************
     436            ;* BUILD ATTRIBUTES                                                           *
     437            ;******************************************************************************
     438                    .battr "TI", Tag_File, 1, Tag_LPM_INFO(1)
     439                    .battr "TI", Tag_File, 1, Tag_PORTS_INIT_INFO("012345678901ABCDEFGHIJ0000000000001111000000000
     440                    .battr "TI", Tag_File, 1, Tag_HW_MPY32_INFO(2)
     441                    .battr "TI", Tag_File, 1, Tag_HW_MPY_ISR_INFO(1)
     442                    .battr "TI", Tag_File, 1, Tag_HW_MPY_INLINE_INFO(1)
     443                    .battr "mspabi", Tag_File, 1, Tag_enum_size(3)
     444            
     445            ;******************************************************************************
     446            ;* TYPE INFORMATION                                                           *
     447            ;******************************************************************************
     448            $C$DW$T$2       .dwtag  DW_TAG_unspecified_type
     449                    .dwattr $C$DW$T$2, DW_AT_name("void")
     450            
     451            
     452            $C$DW$T$23      .dwtag  DW_TAG_subroutine_type
     453                    .dwattr $C$DW$T$23, DW_AT_language(DW_LANG_C)
     454                    .dwendtag $C$DW$T$23
     455            
     456            $C$DW$T$24      .dwtag  DW_TAG_pointer_type
     457                    .dwattr $C$DW$T$24, DW_AT_type(*$C$DW$T$23)
     458                    .dwattr $C$DW$T$24, DW_AT_address_class(0x14)
     459            
     460            $C$DW$T$25      .dwtag  DW_TAG_typedef
     461                    .dwattr $C$DW$T$25, DW_AT_name("__SFR_FARPTR")
     462                    .dwattr $C$DW$T$25, DW_AT_type(*$C$DW$T$24)
     463                    .dwattr $C$DW$T$25, DW_AT_language(DW_LANG_C)
     464                    .dwattr $C$DW$T$25, DW_AT_decl_file("D:\ti\ccsv6\ccs_base\msp430\include\msp430f5529.h")
     465                    .dwattr $C$DW$T$25, DW_AT_decl_line(0x47)
     466                    .dwattr $C$DW$T$25, DW_AT_decl_column(0x11)
     467            
     468            $C$DW$T$4       .dwtag  DW_TAG_base_type
     469                    .dwattr $C$DW$T$4, DW_AT_encoding(DW_ATE_boolean)
     470                    .dwattr $C$DW$T$4, DW_AT_name("bool")
     471                    .dwattr $C$DW$T$4, DW_AT_byte_size(0x01)
     472            
     473            $C$DW$T$5       .dwtag  DW_TAG_base_type
     474                    .dwattr $C$DW$T$5, DW_AT_encoding(DW_ATE_signed_char)
     475                    .dwattr $C$DW$T$5, DW_AT_name("signed char")
     476                    .dwattr $C$DW$T$5, DW_AT_byte_size(0x01)
     477            
     478            $C$DW$T$26      .dwtag  DW_TAG_typedef
     479                    .dwattr $C$DW$T$26, DW_AT_name("int8_t")
     480                    .dwattr $C$DW$T$26, DW_AT_type(*$C$DW$T$5)
     481                    .dwattr $C$DW$T$26, DW_AT_language(DW_LANG_C)
     482                    .dwattr $C$DW$T$26, DW_AT_decl_file("D:/ti/ccsv6/tools/compiler/msp430_15.12.3.LTS/include/std
     483                    .dwattr $C$DW$T$26, DW_AT_decl_line(0x2a)
     484                    .dwattr $C$DW$T$26, DW_AT_decl_column(0x1e)
MSP430 Assembler PC v15.12.3 Mon Oct 17 14:33:10 2016

Tools Copyright (c) 2003-2015 Texas Instruments Incorporated
C:\Users\madis\AppData\Local\Temp\042042                             PAGE   10

     485            
     486            $C$DW$T$27      .dwtag  DW_TAG_typedef
     487                    .dwattr $C$DW$T$27, DW_AT_name("int_least8_t")
     488                    .dwattr $C$DW$T$27, DW_AT_type(*$C$DW$T$26)
     489                    .dwattr $C$DW$T$27, DW_AT_language(DW_LANG_C)
     490                    .dwattr $C$DW$T$27, DW_AT_decl_file("D:/ti/ccsv6/tools/compiler/msp430_15.12.3.LTS/include/std
     491                    .dwattr $C$DW$T$27, DW_AT_decl_line(0x37)
     492                    .dwattr $C$DW$T$27, DW_AT_decl_column(0x17)
     493            
     494            $C$DW$T$6       .dwtag  DW_TAG_base_type
     495                    .dwattr $C$DW$T$6, DW_AT_encoding(DW_ATE_unsigned_char)
     496                    .dwattr $C$DW$T$6, DW_AT_name("unsigned char")
     497                    .dwattr $C$DW$T$6, DW_AT_byte_size(0x01)
     498            
     499            $C$DW$T$19      .dwtag  DW_TAG_typedef
     500                    .dwattr $C$DW$T$19, DW_AT_name("uint8_t")
     501                    .dwattr $C$DW$T$19, DW_AT_type(*$C$DW$T$6)
     502                    .dwattr $C$DW$T$19, DW_AT_language(DW_LANG_C)
     503                    .dwattr $C$DW$T$19, DW_AT_decl_file("D:/ti/ccsv6/tools/compiler/msp430_15.12.3.LTS/include/std
     504                    .dwattr $C$DW$T$19, DW_AT_decl_line(0x2b)
     505                    .dwattr $C$DW$T$19, DW_AT_decl_column(0x1d)
     506            
     507            $C$DW$T$32      .dwtag  DW_TAG_typedef
     508                    .dwattr $C$DW$T$32, DW_AT_name("uint_least8_t")
     509                    .dwattr $C$DW$T$32, DW_AT_type(*$C$DW$T$19)
     510                    .dwattr $C$DW$T$32, DW_AT_language(DW_LANG_C)
     511                    .dwattr $C$DW$T$32, DW_AT_decl_file("D:/ti/ccsv6/tools/compiler/msp430_15.12.3.LTS/include/std
     512                    .dwattr $C$DW$T$32, DW_AT_decl_line(0x38)
     513                    .dwattr $C$DW$T$32, DW_AT_decl_column(0x16)
     514            
     515            $C$DW$T$7       .dwtag  DW_TAG_base_type
     516                    .dwattr $C$DW$T$7, DW_AT_encoding(DW_ATE_signed_char)
     517                    .dwattr $C$DW$T$7, DW_AT_name("wchar_t")
     518                    .dwattr $C$DW$T$7, DW_AT_byte_size(0x02)
     519            
     520            $C$DW$T$8       .dwtag  DW_TAG_base_type
     521                    .dwattr $C$DW$T$8, DW_AT_encoding(DW_ATE_signed)
     522                    .dwattr $C$DW$T$8, DW_AT_name("short")
     523                    .dwattr $C$DW$T$8, DW_AT_byte_size(0x02)
     524            
     525            $C$DW$T$9       .dwtag  DW_TAG_base_type
     526                    .dwattr $C$DW$T$9, DW_AT_encoding(DW_ATE_unsigned)
     527                    .dwattr $C$DW$T$9, DW_AT_name("unsigned short")
     528                    .dwattr $C$DW$T$9, DW_AT_byte_size(0x02)
     529            
     530            $C$DW$T$10      .dwtag  DW_TAG_base_type
     531                    .dwattr $C$DW$T$10, DW_AT_encoding(DW_ATE_signed)
     532                    .dwattr $C$DW$T$10, DW_AT_name("int")
     533                    .dwattr $C$DW$T$10, DW_AT_byte_size(0x02)
     534            
     535            $C$DW$T$33      .dwtag  DW_TAG_typedef
     536                    .dwattr $C$DW$T$33, DW_AT_name("int16_t")
     537                    .dwattr $C$DW$T$33, DW_AT_type(*$C$DW$T$10)
     538                    .dwattr $C$DW$T$33, DW_AT_language(DW_LANG_C)
     539                    .dwattr $C$DW$T$33, DW_AT_decl_file("D:/ti/ccsv6/tools/compiler/msp430_15.12.3.LTS/include/std
MSP430 Assembler PC v15.12.3 Mon Oct 17 14:33:10 2016

Tools Copyright (c) 2003-2015 Texas Instruments Incorporated
C:\Users\madis\AppData\Local\Temp\042042                             PAGE   11

     540                    .dwattr $C$DW$T$33, DW_AT_decl_line(0x2c)
     541                    .dwattr $C$DW$T$33, DW_AT_decl_column(0x1d)
     542            
     543            $C$DW$T$34      .dwtag  DW_TAG_typedef
     544                    .dwattr $C$DW$T$34, DW_AT_name("int_fast16_t")
     545                    .dwattr $C$DW$T$34, DW_AT_type(*$C$DW$T$33)
     546                    .dwattr $C$DW$T$34, DW_AT_language(DW_LANG_C)
     547                    .dwattr $C$DW$T$34, DW_AT_decl_file("D:/ti/ccsv6/tools/compiler/msp430_15.12.3.LTS/include/std
     548                    .dwattr $C$DW$T$34, DW_AT_decl_line(0x47)
     549                    .dwattr $C$DW$T$34, DW_AT_decl_column(0x17)
     550            
     551            $C$DW$T$35      .dwtag  DW_TAG_typedef
     552                    .dwattr $C$DW$T$35, DW_AT_name("int_fast8_t")
     553                    .dwattr $C$DW$T$35, DW_AT_type(*$C$DW$T$33)
     554                    .dwattr $C$DW$T$35, DW_AT_language(DW_LANG_C)
     555                    .dwattr $C$DW$T$35, DW_AT_decl_file("D:/ti/ccsv6/tools/compiler/msp430_15.12.3.LTS/include/std
     556                    .dwattr $C$DW$T$35, DW_AT_decl_line(0x45)
     557                    .dwattr $C$DW$T$35, DW_AT_decl_column(0x17)
     558            
     559            $C$DW$T$36      .dwtag  DW_TAG_typedef
     560                    .dwattr $C$DW$T$36, DW_AT_name("int_least16_t")
     561                    .dwattr $C$DW$T$36, DW_AT_type(*$C$DW$T$33)
     562                    .dwattr $C$DW$T$36, DW_AT_language(DW_LANG_C)
     563                    .dwattr $C$DW$T$36, DW_AT_decl_file("D:/ti/ccsv6/tools/compiler/msp430_15.12.3.LTS/include/std
     564                    .dwattr $C$DW$T$36, DW_AT_decl_line(0x3a)
     565                    .dwattr $C$DW$T$36, DW_AT_decl_column(0x17)
     566            
     567            $C$DW$T$11      .dwtag  DW_TAG_base_type
     568                    .dwattr $C$DW$T$11, DW_AT_encoding(DW_ATE_unsigned)
     569                    .dwattr $C$DW$T$11, DW_AT_name("unsigned int")
     570                    .dwattr $C$DW$T$11, DW_AT_byte_size(0x02)
     571            
     572            $C$DW$T$21      .dwtag  DW_TAG_typedef
     573                    .dwattr $C$DW$T$21, DW_AT_name("uint16_t")
     574                    .dwattr $C$DW$T$21, DW_AT_type(*$C$DW$T$11)
     575                    .dwattr $C$DW$T$21, DW_AT_language(DW_LANG_C)
     576                    .dwattr $C$DW$T$21, DW_AT_decl_file("D:/ti/ccsv6/tools/compiler/msp430_15.12.3.LTS/include/std
     577                    .dwattr $C$DW$T$21, DW_AT_decl_line(0x2d)
     578                    .dwattr $C$DW$T$21, DW_AT_decl_column(0x1c)
     579            
     580            $C$DW$T$37      .dwtag  DW_TAG_typedef
     581                    .dwattr $C$DW$T$37, DW_AT_name("uint_fast16_t")
     582                    .dwattr $C$DW$T$37, DW_AT_type(*$C$DW$T$21)
     583                    .dwattr $C$DW$T$37, DW_AT_language(DW_LANG_C)
     584                    .dwattr $C$DW$T$37, DW_AT_decl_file("D:/ti/ccsv6/tools/compiler/msp430_15.12.3.LTS/include/std
     585                    .dwattr $C$DW$T$37, DW_AT_decl_line(0x48)
     586                    .dwattr $C$DW$T$37, DW_AT_decl_column(0x16)
     587            
     588            $C$DW$T$38      .dwtag  DW_TAG_typedef
     589                    .dwattr $C$DW$T$38, DW_AT_name("uint_fast8_t")
     590                    .dwattr $C$DW$T$38, DW_AT_type(*$C$DW$T$21)
     591                    .dwattr $C$DW$T$38, DW_AT_language(DW_LANG_C)
     592                    .dwattr $C$DW$T$38, DW_AT_decl_file("D:/ti/ccsv6/tools/compiler/msp430_15.12.3.LTS/include/std
     593                    .dwattr $C$DW$T$38, DW_AT_decl_line(0x46)
     594                    .dwattr $C$DW$T$38, DW_AT_decl_column(0x16)
MSP430 Assembler PC v15.12.3 Mon Oct 17 14:33:10 2016

Tools Copyright (c) 2003-2015 Texas Instruments Incorporated
C:\Users\madis\AppData\Local\Temp\042042                             PAGE   12

     595            
     596            $C$DW$T$39      .dwtag  DW_TAG_typedef
     597                    .dwattr $C$DW$T$39, DW_AT_name("uint_least16_t")
     598                    .dwattr $C$DW$T$39, DW_AT_type(*$C$DW$T$21)
     599                    .dwattr $C$DW$T$39, DW_AT_language(DW_LANG_C)
     600                    .dwattr $C$DW$T$39, DW_AT_decl_file("D:/ti/ccsv6/tools/compiler/msp430_15.12.3.LTS/include/std
     601                    .dwattr $C$DW$T$39, DW_AT_decl_line(0x3b)
     602                    .dwattr $C$DW$T$39, DW_AT_decl_column(0x16)
     603            
     604            $C$DW$T$12      .dwtag  DW_TAG_base_type
     605                    .dwattr $C$DW$T$12, DW_AT_encoding(DW_ATE_signed)
     606                    .dwattr $C$DW$T$12, DW_AT_name("long")
     607                    .dwattr $C$DW$T$12, DW_AT_byte_size(0x04)
     608            
     609            $C$DW$T$40      .dwtag  DW_TAG_typedef
     610                    .dwattr $C$DW$T$40, DW_AT_name("int32_t")
     611                    .dwattr $C$DW$T$40, DW_AT_type(*$C$DW$T$12)
     612                    .dwattr $C$DW$T$40, DW_AT_language(DW_LANG_C)
     613                    .dwattr $C$DW$T$40, DW_AT_decl_file("D:/ti/ccsv6/tools/compiler/msp430_15.12.3.LTS/include/std
     614                    .dwattr $C$DW$T$40, DW_AT_decl_line(0x2e)
     615                    .dwattr $C$DW$T$40, DW_AT_decl_column(0x1d)
     616            
     617            $C$DW$T$41      .dwtag  DW_TAG_typedef
     618                    .dwattr $C$DW$T$41, DW_AT_name("int_fast32_t")
     619                    .dwattr $C$DW$T$41, DW_AT_type(*$C$DW$T$40)
     620                    .dwattr $C$DW$T$41, DW_AT_language(DW_LANG_C)
     621                    .dwattr $C$DW$T$41, DW_AT_decl_file("D:/ti/ccsv6/tools/compiler/msp430_15.12.3.LTS/include/std
     622                    .dwattr $C$DW$T$41, DW_AT_decl_line(0x4a)
     623                    .dwattr $C$DW$T$41, DW_AT_decl_column(0x17)
     624            
     625            $C$DW$T$42      .dwtag  DW_TAG_typedef
     626                    .dwattr $C$DW$T$42, DW_AT_name("int_least32_t")
     627                    .dwattr $C$DW$T$42, DW_AT_type(*$C$DW$T$40)
     628                    .dwattr $C$DW$T$42, DW_AT_language(DW_LANG_C)
     629                    .dwattr $C$DW$T$42, DW_AT_decl_file("D:/ti/ccsv6/tools/compiler/msp430_15.12.3.LTS/include/std
     630                    .dwattr $C$DW$T$42, DW_AT_decl_line(0x3c)
     631                    .dwattr $C$DW$T$42, DW_AT_decl_column(0x17)
     632            
     633            $C$DW$T$43      .dwtag  DW_TAG_typedef
     634                    .dwattr $C$DW$T$43, DW_AT_name("intptr_t")
     635                    .dwattr $C$DW$T$43, DW_AT_type(*$C$DW$T$12)
     636                    .dwattr $C$DW$T$43, DW_AT_language(DW_LANG_C)
     637                    .dwattr $C$DW$T$43, DW_AT_decl_file("D:/ti/ccsv6/tools/compiler/msp430_15.12.3.LTS/include/std
     638                    .dwattr $C$DW$T$43, DW_AT_decl_line(0x55)
     639                    .dwattr $C$DW$T$43, DW_AT_decl_column(0x1b)
     640            
     641            $C$DW$T$13      .dwtag  DW_TAG_base_type
     642                    .dwattr $C$DW$T$13, DW_AT_encoding(DW_ATE_unsigned)
     643                    .dwattr $C$DW$T$13, DW_AT_name("unsigned long")
     644                    .dwattr $C$DW$T$13, DW_AT_byte_size(0x04)
     645            
     646            $C$DW$T$44      .dwtag  DW_TAG_typedef
     647                    .dwattr $C$DW$T$44, DW_AT_name("uint32_t")
     648                    .dwattr $C$DW$T$44, DW_AT_type(*$C$DW$T$13)
     649                    .dwattr $C$DW$T$44, DW_AT_language(DW_LANG_C)
MSP430 Assembler PC v15.12.3 Mon Oct 17 14:33:10 2016

Tools Copyright (c) 2003-2015 Texas Instruments Incorporated
C:\Users\madis\AppData\Local\Temp\042042                             PAGE   13

     650                    .dwattr $C$DW$T$44, DW_AT_decl_file("D:/ti/ccsv6/tools/compiler/msp430_15.12.3.LTS/include/std
     651                    .dwattr $C$DW$T$44, DW_AT_decl_line(0x2f)
     652                    .dwattr $C$DW$T$44, DW_AT_decl_column(0x1c)
     653            
     654            $C$DW$T$45      .dwtag  DW_TAG_typedef
     655                    .dwattr $C$DW$T$45, DW_AT_name("uint_fast32_t")
     656                    .dwattr $C$DW$T$45, DW_AT_type(*$C$DW$T$44)
     657                    .dwattr $C$DW$T$45, DW_AT_language(DW_LANG_C)
     658                    .dwattr $C$DW$T$45, DW_AT_decl_file("D:/ti/ccsv6/tools/compiler/msp430_15.12.3.LTS/include/std
     659                    .dwattr $C$DW$T$45, DW_AT_decl_line(0x4b)
     660                    .dwattr $C$DW$T$45, DW_AT_decl_column(0x16)
     661            
     662            $C$DW$T$46      .dwtag  DW_TAG_typedef
     663                    .dwattr $C$DW$T$46, DW_AT_name("uint_least32_t")
     664                    .dwattr $C$DW$T$46, DW_AT_type(*$C$DW$T$44)
     665                    .dwattr $C$DW$T$46, DW_AT_language(DW_LANG_C)
     666                    .dwattr $C$DW$T$46, DW_AT_decl_file("D:/ti/ccsv6/tools/compiler/msp430_15.12.3.LTS/include/std
     667                    .dwattr $C$DW$T$46, DW_AT_decl_line(0x3d)
     668                    .dwattr $C$DW$T$46, DW_AT_decl_column(0x16)
     669            
     670            $C$DW$T$47      .dwtag  DW_TAG_typedef
     671                    .dwattr $C$DW$T$47, DW_AT_name("uintptr_t")
     672                    .dwattr $C$DW$T$47, DW_AT_type(*$C$DW$T$13)
     673                    .dwattr $C$DW$T$47, DW_AT_language(DW_LANG_C)
     674                    .dwattr $C$DW$T$47, DW_AT_decl_file("D:/ti/ccsv6/tools/compiler/msp430_15.12.3.LTS/include/std
     675                    .dwattr $C$DW$T$47, DW_AT_decl_line(0x56)
     676                    .dwattr $C$DW$T$47, DW_AT_decl_column(0x1b)
     677            
     678            $C$DW$T$14      .dwtag  DW_TAG_base_type
     679                    .dwattr $C$DW$T$14, DW_AT_encoding(DW_ATE_signed)
     680                    .dwattr $C$DW$T$14, DW_AT_name("long long")
     681                    .dwattr $C$DW$T$14, DW_AT_byte_size(0x08)
     682            
     683            $C$DW$T$48      .dwtag  DW_TAG_typedef
     684                    .dwattr $C$DW$T$48, DW_AT_name("int64_t")
     685                    .dwattr $C$DW$T$48, DW_AT_type(*$C$DW$T$14)
     686                    .dwattr $C$DW$T$48, DW_AT_language(DW_LANG_C)
     687                    .dwattr $C$DW$T$48, DW_AT_decl_file("D:/ti/ccsv6/tools/compiler/msp430_15.12.3.LTS/include/std
     688                    .dwattr $C$DW$T$48, DW_AT_decl_line(0x32)
     689                    .dwattr $C$DW$T$48, DW_AT_decl_column(0x21)
     690            
     691            $C$DW$T$49      .dwtag  DW_TAG_typedef
     692                    .dwattr $C$DW$T$49, DW_AT_name("int_fast64_t")
     693                    .dwattr $C$DW$T$49, DW_AT_type(*$C$DW$T$48)
     694                    .dwattr $C$DW$T$49, DW_AT_language(DW_LANG_C)
     695                    .dwattr $C$DW$T$49, DW_AT_decl_file("D:/ti/ccsv6/tools/compiler/msp430_15.12.3.LTS/include/std
     696                    .dwattr $C$DW$T$49, DW_AT_decl_line(0x4e)
     697                    .dwattr $C$DW$T$49, DW_AT_decl_column(0x17)
     698            
     699            $C$DW$T$50      .dwtag  DW_TAG_typedef
     700                    .dwattr $C$DW$T$50, DW_AT_name("int_least64_t")
     701                    .dwattr $C$DW$T$50, DW_AT_type(*$C$DW$T$48)
     702                    .dwattr $C$DW$T$50, DW_AT_language(DW_LANG_C)
     703                    .dwattr $C$DW$T$50, DW_AT_decl_file("D:/ti/ccsv6/tools/compiler/msp430_15.12.3.LTS/include/std
     704                    .dwattr $C$DW$T$50, DW_AT_decl_line(0x40)
MSP430 Assembler PC v15.12.3 Mon Oct 17 14:33:10 2016

Tools Copyright (c) 2003-2015 Texas Instruments Incorporated
C:\Users\madis\AppData\Local\Temp\042042                             PAGE   14

     705                    .dwattr $C$DW$T$50, DW_AT_decl_column(0x17)
     706            
     707            $C$DW$T$51      .dwtag  DW_TAG_typedef
     708                    .dwattr $C$DW$T$51, DW_AT_name("intmax_t")
     709                    .dwattr $C$DW$T$51, DW_AT_type(*$C$DW$T$14)
     710                    .dwattr $C$DW$T$51, DW_AT_language(DW_LANG_C)
     711                    .dwattr $C$DW$T$51, DW_AT_decl_file("D:/ti/ccsv6/tools/compiler/msp430_15.12.3.LTS/include/std
     712                    .dwattr $C$DW$T$51, DW_AT_decl_line(0x5d)
     713                    .dwattr $C$DW$T$51, DW_AT_decl_column(0x20)
     714            
     715            $C$DW$T$15      .dwtag  DW_TAG_base_type
     716                    .dwattr $C$DW$T$15, DW_AT_encoding(DW_ATE_unsigned)
     717                    .dwattr $C$DW$T$15, DW_AT_name("unsigned long long")
     718                    .dwattr $C$DW$T$15, DW_AT_byte_size(0x08)
     719            
     720            $C$DW$T$52      .dwtag  DW_TAG_typedef
     721                    .dwattr $C$DW$T$52, DW_AT_name("uint64_t")
     722                    .dwattr $C$DW$T$52, DW_AT_type(*$C$DW$T$15)
     723                    .dwattr $C$DW$T$52, DW_AT_language(DW_LANG_C)
     724                    .dwattr $C$DW$T$52, DW_AT_decl_file("D:/ti/ccsv6/tools/compiler/msp430_15.12.3.LTS/include/std
     725                    .dwattr $C$DW$T$52, DW_AT_decl_line(0x33)
     726                    .dwattr $C$DW$T$52, DW_AT_decl_column(0x20)
     727            
     728            $C$DW$T$53      .dwtag  DW_TAG_typedef
     729                    .dwattr $C$DW$T$53, DW_AT_name("uint_fast64_t")
     730                    .dwattr $C$DW$T$53, DW_AT_type(*$C$DW$T$52)
     731                    .dwattr $C$DW$T$53, DW_AT_language(DW_LANG_C)
     732                    .dwattr $C$DW$T$53, DW_AT_decl_file("D:/ti/ccsv6/tools/compiler/msp430_15.12.3.LTS/include/std
     733                    .dwattr $C$DW$T$53, DW_AT_decl_line(0x4f)
     734                    .dwattr $C$DW$T$53, DW_AT_decl_column(0x16)
     735            
     736            $C$DW$T$54      .dwtag  DW_TAG_typedef
     737                    .dwattr $C$DW$T$54, DW_AT_name("uint_least64_t")
     738                    .dwattr $C$DW$T$54, DW_AT_type(*$C$DW$T$52)
     739                    .dwattr $C$DW$T$54, DW_AT_language(DW_LANG_C)
     740                    .dwattr $C$DW$T$54, DW_AT_decl_file("D:/ti/ccsv6/tools/compiler/msp430_15.12.3.LTS/include/std
     741                    .dwattr $C$DW$T$54, DW_AT_decl_line(0x41)
     742                    .dwattr $C$DW$T$54, DW_AT_decl_column(0x16)
     743            
     744            $C$DW$T$55      .dwtag  DW_TAG_typedef
     745                    .dwattr $C$DW$T$55, DW_AT_name("uintmax_t")
     746                    .dwattr $C$DW$T$55, DW_AT_type(*$C$DW$T$15)
     747                    .dwattr $C$DW$T$55, DW_AT_language(DW_LANG_C)
     748                    .dwattr $C$DW$T$55, DW_AT_decl_file("D:/ti/ccsv6/tools/compiler/msp430_15.12.3.LTS/include/std
     749                    .dwattr $C$DW$T$55, DW_AT_decl_line(0x5e)
     750                    .dwattr $C$DW$T$55, DW_AT_decl_column(0x20)
     751            
     752            $C$DW$T$16      .dwtag  DW_TAG_base_type
     753                    .dwattr $C$DW$T$16, DW_AT_encoding(DW_ATE_float)
     754                    .dwattr $C$DW$T$16, DW_AT_name("float")
     755                    .dwattr $C$DW$T$16, DW_AT_byte_size(0x04)
     756            
     757            $C$DW$T$17      .dwtag  DW_TAG_base_type
     758                    .dwattr $C$DW$T$17, DW_AT_encoding(DW_ATE_float)
     759                    .dwattr $C$DW$T$17, DW_AT_name("double")
MSP430 Assembler PC v15.12.3 Mon Oct 17 14:33:10 2016

Tools Copyright (c) 2003-2015 Texas Instruments Incorporated
C:\Users\madis\AppData\Local\Temp\042042                             PAGE   15

     760                    .dwattr $C$DW$T$17, DW_AT_byte_size(0x08)
     761            
     762            $C$DW$T$18      .dwtag  DW_TAG_base_type
     763                    .dwattr $C$DW$T$18, DW_AT_encoding(DW_ATE_float)
     764                    .dwattr $C$DW$T$18, DW_AT_name("long double")
     765                    .dwattr $C$DW$T$18, DW_AT_byte_size(0x08)
     766            
     767                    .dwattr $C$DW$CU, DW_AT_language(DW_LANG_C)
     768            
     769            ;***************************************************************
     770            ;* DWARF CIE ENTRIES                                           *
     771            ;***************************************************************
     772            
     773            $C$DW$CIE       .dwcie 16
     774                    .dwcfi  cfa_register, 1
     775                    .dwcfi  cfa_offset, 0
     776                    .dwcfi  same_value, 0
     777                    .dwcfi  same_value, 1
     778                    .dwcfi  undefined, 2
     779                    .dwcfi  same_value, 3
     780                    .dwcfi  same_value, 4
     781                    .dwcfi  same_value, 5
     782                    .dwcfi  same_value, 6
     783                    .dwcfi  same_value, 7
     784                    .dwcfi  same_value, 8
     785                    .dwcfi  same_value, 9
     786                    .dwcfi  same_value, 10
     787                    .dwcfi  undefined, 11
     788                    .dwcfi  undefined, 12
     789                    .dwcfi  undefined, 13
     790                    .dwcfi  undefined, 14
     791                    .dwcfi  undefined, 15
     792                    .dwcfi  undefined, 16
     793                    .dwendentry
     794            
     795            ;***************************************************************
     796            ;* DWARF REGISTER MAP                                          *
     797            ;***************************************************************
     798            
     799            $C$DW$28        .dwtag  DW_TAG_TI_assign_register
     800                    .dwattr $C$DW$28, DW_AT_name("PC")
     801                    .dwattr $C$DW$28, DW_AT_location[DW_OP_reg0]
     802            
     803            $C$DW$29        .dwtag  DW_TAG_TI_assign_register
     804                    .dwattr $C$DW$29, DW_AT_name("SP")
     805                    .dwattr $C$DW$29, DW_AT_location[DW_OP_reg1]
     806            
     807            $C$DW$30        .dwtag  DW_TAG_TI_assign_register
     808                    .dwattr $C$DW$30, DW_AT_name("SR")
     809                    .dwattr $C$DW$30, DW_AT_location[DW_OP_reg2]
     810            
     811            $C$DW$31        .dwtag  DW_TAG_TI_assign_register
     812                    .dwattr $C$DW$31, DW_AT_name("CG")
     813                    .dwattr $C$DW$31, DW_AT_location[DW_OP_reg3]
     814            
MSP430 Assembler PC v15.12.3 Mon Oct 17 14:33:10 2016

Tools Copyright (c) 2003-2015 Texas Instruments Incorporated
C:\Users\madis\AppData\Local\Temp\042042                             PAGE   16

     815            $C$DW$32        .dwtag  DW_TAG_TI_assign_register
     816                    .dwattr $C$DW$32, DW_AT_name("r4")
     817                    .dwattr $C$DW$32, DW_AT_location[DW_OP_reg4]
     818            
     819            $C$DW$33        .dwtag  DW_TAG_TI_assign_register
     820                    .dwattr $C$DW$33, DW_AT_name("r5")
     821                    .dwattr $C$DW$33, DW_AT_location[DW_OP_reg5]
     822            
     823            $C$DW$34        .dwtag  DW_TAG_TI_assign_register
     824                    .dwattr $C$DW$34, DW_AT_name("r6")
     825                    .dwattr $C$DW$34, DW_AT_location[DW_OP_reg6]
     826            
     827            $C$DW$35        .dwtag  DW_TAG_TI_assign_register
     828                    .dwattr $C$DW$35, DW_AT_name("r7")
     829                    .dwattr $C$DW$35, DW_AT_location[DW_OP_reg7]
     830            
     831            $C$DW$36        .dwtag  DW_TAG_TI_assign_register
     832                    .dwattr $C$DW$36, DW_AT_name("r8")
     833                    .dwattr $C$DW$36, DW_AT_location[DW_OP_reg8]
     834            
     835            $C$DW$37        .dwtag  DW_TAG_TI_assign_register
     836                    .dwattr $C$DW$37, DW_AT_name("r9")
     837                    .dwattr $C$DW$37, DW_AT_location[DW_OP_reg9]
     838            
     839            $C$DW$38        .dwtag  DW_TAG_TI_assign_register
     840                    .dwattr $C$DW$38, DW_AT_name("r10")
     841                    .dwattr $C$DW$38, DW_AT_location[DW_OP_reg10]
     842            
     843            $C$DW$39        .dwtag  DW_TAG_TI_assign_register
     844                    .dwattr $C$DW$39, DW_AT_name("r11")
     845                    .dwattr $C$DW$39, DW_AT_location[DW_OP_reg11]
     846            
     847            $C$DW$40        .dwtag  DW_TAG_TI_assign_register
     848                    .dwattr $C$DW$40, DW_AT_name("r12")
     849                    .dwattr $C$DW$40, DW_AT_location[DW_OP_reg12]
     850            
     851            $C$DW$41        .dwtag  DW_TAG_TI_assign_register
     852                    .dwattr $C$DW$41, DW_AT_name("r13")
     853                    .dwattr $C$DW$41, DW_AT_location[DW_OP_reg13]
     854            
     855            $C$DW$42        .dwtag  DW_TAG_TI_assign_register
     856                    .dwattr $C$DW$42, DW_AT_name("r14")
     857                    .dwattr $C$DW$42, DW_AT_location[DW_OP_reg14]
     858            
     859            $C$DW$43        .dwtag  DW_TAG_TI_assign_register
     860                    .dwattr $C$DW$43, DW_AT_name("r15")
     861                    .dwattr $C$DW$43, DW_AT_location[DW_OP_reg15]
     862            
     863            $C$DW$44        .dwtag  DW_TAG_TI_assign_register
     864                    .dwattr $C$DW$44, DW_AT_name("CIE_RETA")
     865                    .dwattr $C$DW$44, DW_AT_location[DW_OP_reg16]
     866            
     867                    .dwendtag $C$DW$CU
     868            

No Assembly Errors, No Assembly Warnings
