MSP430 Assembler PC v15.12.3 Wed Oct 12 11:17:25 2016

Tools Copyright (c) 2003-2015 Texas Instruments Incorporated
C:\Users\LokBok\AppData\Local\Temp\114962                            PAGE    1

       1            ;******************************************************************************
       2            ;* MSP430 C/C++ Codegen                                       PC v15.12.3.LTS *
       3            ;* Date/Time created: Wed Oct 12 11:17:24 2016                                *
       4            ;******************************************************************************
       5                    .compiler_opts --abi=eabi --diag_wrap=off --hll_source=on --mem_model:code=large --mem_model:d
       6            
       7            $C$DW$CU        .dwtag  DW_TAG_compile_unit
       8                    .dwattr $C$DW$CU, DW_AT_name("../UARTmodule.c")
       9                    .dwattr $C$DW$CU, DW_AT_producer("TI MSP430 C/C++ Codegen PC v15.12.3.LTS Copyright (c) 2003-2
      10                    .dwattr $C$DW$CU, DW_AT_TI_version(0x01)
      11                    .dwattr $C$DW$CU, DW_AT_comp_dir("D:\Programmeerimine\Code Composer WS\CardReader\src\Debug")
      12            $C$DW$1 .dwtag  DW_TAG_variable
      13                    .dwattr $C$DW$1, DW_AT_name("PBOUT_H")
      14                    .dwattr $C$DW$1, DW_AT_TI_symbol_name("PBOUT_H")
      15                    .dwattr $C$DW$1, DW_AT_type(*$C$DW$T$23)
      16                    .dwattr $C$DW$1, DW_AT_declaration
      17                    .dwattr $C$DW$1, DW_AT_external
      18                    .dwattr $C$DW$1, DW_AT_decl_file("D:\Program Files\TI CCSv6\ccsv6\ccs_base\msp430\include\msp4
      19                    .dwattr $C$DW$1, DW_AT_decl_line(0x660)
      20                    .dwattr $C$DW$1, DW_AT_decl_column(0x01)
      21            
      22            ;       D:\Program Files\TI CCSv6\ccsv6\tools\compiler\msp430_15.12.3.LTS\bin\opt430.exe D:/Programmee
      23 000000               .sect   ".text:init_UART"
      24                    .clink
      25                    .global init_UART
      26            
      27            $C$DW$2 .dwtag  DW_TAG_subprogram
      28                    .dwattr $C$DW$2, DW_AT_name("init_UART")
      29                    .dwattr $C$DW$2, DW_AT_low_pc(init_UART)
      30                    .dwattr $C$DW$2, DW_AT_high_pc(0x00)
      31                    .dwattr $C$DW$2, DW_AT_TI_symbol_name("init_UART")
      32                    .dwattr $C$DW$2, DW_AT_external
      33                    .dwattr $C$DW$2, DW_AT_TI_begin_file("../UARTmodule.c")
      34                    .dwattr $C$DW$2, DW_AT_TI_begin_line(0x14)
      35                    .dwattr $C$DW$2, DW_AT_TI_begin_column(0x06)
      36                    .dwattr $C$DW$2, DW_AT_decl_file("../UARTmodule.c")
      37                    .dwattr $C$DW$2, DW_AT_decl_line(0x14)
      38                    .dwattr $C$DW$2, DW_AT_decl_column(0x06)
      39                    .dwattr $C$DW$2, DW_AT_TI_max_frame_size(0x04)
      40                    .dwpsn  file "../UARTmodule.c",line 20,column 17,is_stmt,address init_UART,isa 0
      41            
      42                    .dwfde $C$DW$CIE, init_UART
      43            
      44            ;*****************************************************************************
      45            ;* FUNCTION NAME: init_UART                                                  *
      46            ;*                                                                           *
      47            ;*   Regs Modified     : SP                                                  *
      48            ;*   Regs Used         : SP                                                  *
      49            ;*   Local Frame Size  : 0 Args + 0 Auto + 0 Save = 0 byte                   *
      50            ;*****************************************************************************
      51 000000       init_UART:
      52            ;* --------------------------------------------------------------------------*
      53                    .dwcfi  cfa_offset, 4
      54                    .dwcfi  save_reg_to_mem, 16, -4
      55                    .dwpsn  file "../UARTmodule.c",line 21,column 2,is_stmt,isa 0
MSP430 Assembler PC v15.12.3 Wed Oct 12 11:17:25 2016

Tools Copyright (c) 2003-2015 Texas Instruments Incorporated
C:\Users\LokBok\AppData\Local\Temp\114962                            PAGE    2

      56 000000 D0F2          OR.B      #128,&PBOUT_H+0       ; [] |21| 
         000002 0080 
         000004 0000!
      57                    .dwpsn  file "../UARTmodule.c",line 24,column 1,is_stmt,isa 0
      58            $C$DW$3 .dwtag  DW_TAG_TI_branch
      59                    .dwattr $C$DW$3, DW_AT_low_pc(0x00)
      60                    .dwattr $C$DW$3, DW_AT_TI_return
      61            
      62 000006 0110          RETA      ; [] 
      63                    ; [] 
      64                    .dwattr $C$DW$2, DW_AT_TI_end_file("../UARTmodule.c")
      65                    .dwattr $C$DW$2, DW_AT_TI_end_line(0x18)
      66                    .dwattr $C$DW$2, DW_AT_TI_end_column(0x01)
      67                    .dwendentry
      68                    .dwendtag $C$DW$2
      69            
      70 000000               .sect   ".text:write_UART"
      71                    .clink
      72                    .global write_UART
      73            
      74            $C$DW$4 .dwtag  DW_TAG_subprogram
      75                    .dwattr $C$DW$4, DW_AT_name("write_UART")
      76                    .dwattr $C$DW$4, DW_AT_low_pc(write_UART)
      77                    .dwattr $C$DW$4, DW_AT_high_pc(0x00)
      78                    .dwattr $C$DW$4, DW_AT_TI_symbol_name("write_UART")
      79                    .dwattr $C$DW$4, DW_AT_external
      80                    .dwattr $C$DW$4, DW_AT_TI_begin_file("../UARTmodule.c")
      81                    .dwattr $C$DW$4, DW_AT_TI_begin_line(0x1a)
      82                    .dwattr $C$DW$4, DW_AT_TI_begin_column(0x06)
      83                    .dwattr $C$DW$4, DW_AT_decl_file("../UARTmodule.c")
      84                    .dwattr $C$DW$4, DW_AT_decl_line(0x1a)
      85                    .dwattr $C$DW$4, DW_AT_decl_column(0x06)
      86                    .dwattr $C$DW$4, DW_AT_TI_max_frame_size(0x04)
      87                    .dwpsn  file "../UARTmodule.c",line 26,column 25,is_stmt,address write_UART,isa 0
      88            
      89                    .dwfde $C$DW$CIE, write_UART
      90            $C$DW$5 .dwtag  DW_TAG_formal_parameter
      91                    .dwattr $C$DW$5, DW_AT_name("out")
      92                    .dwattr $C$DW$5, DW_AT_TI_symbol_name("out")
      93                    .dwattr $C$DW$5, DW_AT_type(*$C$DW$T$10)
      94                    .dwattr $C$DW$5, DW_AT_location[DW_OP_reg12]
      95            
      96            
      97            ;*****************************************************************************
      98            ;* FUNCTION NAME: write_UART                                                 *
      99            ;*                                                                           *
     100            ;*   Regs Modified     : SP                                                  *
     101            ;*   Regs Used         : SP                                                  *
     102            ;*   Local Frame Size  : 0 Args + 0 Auto + 0 Save = 0 byte                   *
     103            ;*****************************************************************************
     104 000000       write_UART:
     105            ;* --------------------------------------------------------------------------*
     106                    .dwcfi  cfa_offset, 4
     107                    .dwcfi  save_reg_to_mem, 16, -4
     108                    .dwpsn  file "../UARTmodule.c",line 28,column 1,is_stmt,isa 0
MSP430 Assembler PC v15.12.3 Wed Oct 12 11:17:25 2016

Tools Copyright (c) 2003-2015 Texas Instruments Incorporated
C:\Users\LokBok\AppData\Local\Temp\114962                            PAGE    3

     109            $C$DW$6 .dwtag  DW_TAG_TI_branch
     110                    .dwattr $C$DW$6, DW_AT_low_pc(0x00)
     111                    .dwattr $C$DW$6, DW_AT_TI_return
     112            
     113 000000 0110          RETA      ; [] 
     114                    ; [] 
     115                    .dwattr $C$DW$4, DW_AT_TI_end_file("../UARTmodule.c")
     116                    .dwattr $C$DW$4, DW_AT_TI_end_line(0x1c)
     117                    .dwattr $C$DW$4, DW_AT_TI_end_column(0x01)
     118                    .dwendentry
     119                    .dwendtag $C$DW$4
     120            
     121 000000               .sect   ".text:read_UART"
     122                    .clink
     123                    .global read_UART
     124            
     125            $C$DW$7 .dwtag  DW_TAG_subprogram
     126                    .dwattr $C$DW$7, DW_AT_name("read_UART")
     127                    .dwattr $C$DW$7, DW_AT_low_pc(read_UART)
     128                    .dwattr $C$DW$7, DW_AT_high_pc(0x00)
     129                    .dwattr $C$DW$7, DW_AT_TI_symbol_name("read_UART")
     130                    .dwattr $C$DW$7, DW_AT_external
     131                    .dwattr $C$DW$7, DW_AT_type(*$C$DW$T$10)
     132                    .dwattr $C$DW$7, DW_AT_TI_begin_file("../UARTmodule.c")
     133                    .dwattr $C$DW$7, DW_AT_TI_begin_line(0x1e)
     134                    .dwattr $C$DW$7, DW_AT_TI_begin_column(0x05)
     135                    .dwattr $C$DW$7, DW_AT_decl_file("../UARTmodule.c")
     136                    .dwattr $C$DW$7, DW_AT_decl_line(0x1e)
     137                    .dwattr $C$DW$7, DW_AT_decl_column(0x05)
     138                    .dwattr $C$DW$7, DW_AT_TI_max_frame_size(0x04)
     139                    .dwpsn  file "../UARTmodule.c",line 30,column 16,is_stmt,address read_UART,isa 0
     140            
     141                    .dwfde $C$DW$CIE, read_UART
     142            
     143            ;*****************************************************************************
     144            ;* FUNCTION NAME: read_UART                                                  *
     145            ;*                                                                           *
     146            ;*   Regs Modified     : SP,r12                                              *
     147            ;*   Regs Used         : SP,r12                                              *
     148            ;*   Local Frame Size  : 0 Args + 0 Auto + 0 Save = 0 byte                   *
     149            ;*****************************************************************************
     150 000000       read_UART:
     151            ;* --------------------------------------------------------------------------*
     152                    .dwcfi  cfa_offset, 4
     153                    .dwcfi  save_reg_to_mem, 16, -4
     154                    .dwpsn  file "../UARTmodule.c",line 32,column 2,is_stmt,isa 0
     155 000000 430C          MOV.W     #0,r12                ; [] |32| 
     156                    .dwpsn  file "../UARTmodule.c",line 33,column 1,is_stmt,isa 0
     157            $C$DW$8 .dwtag  DW_TAG_TI_branch
     158                    .dwattr $C$DW$8, DW_AT_low_pc(0x00)
     159                    .dwattr $C$DW$8, DW_AT_TI_return
     160            
     161 000002 0110          RETA      ; [] 
     162                    ; [] 
     163                    .dwattr $C$DW$7, DW_AT_TI_end_file("../UARTmodule.c")
MSP430 Assembler PC v15.12.3 Wed Oct 12 11:17:25 2016

Tools Copyright (c) 2003-2015 Texas Instruments Incorporated
C:\Users\LokBok\AppData\Local\Temp\114962                            PAGE    4

     164                    .dwattr $C$DW$7, DW_AT_TI_end_line(0x21)
     165                    .dwattr $C$DW$7, DW_AT_TI_end_column(0x01)
     166                    .dwendentry
     167                    .dwendtag $C$DW$7
     168            
     169            ;*****************************************************************************
     170            ;* UNDEFINED EXTERNAL REFERENCES                                             *
     171            ;*****************************************************************************
     172                    .global PBOUT_H
     173            
     174            ;******************************************************************************
     175            ;* BUILD ATTRIBUTES                                                           *
     176            ;******************************************************************************
     177                    .battr "TI", Tag_File, 1, Tag_LPM_INFO(1)
     178                    .battr "TI", Tag_File, 1, Tag_PORTS_INIT_INFO("012345678901ABCDEFGHIJ0000000000001111000000000
     179                    .battr "TI", Tag_File, 1, Tag_HW_MPY32_INFO(2)
     180                    .battr "TI", Tag_File, 1, Tag_HW_MPY_ISR_INFO(1)
     181                    .battr "TI", Tag_File, 1, Tag_HW_MPY_INLINE_INFO(1)
     182                    .battr "mspabi", Tag_File, 1, Tag_enum_size(3)
     183            
     184            ;******************************************************************************
     185            ;* TYPE INFORMATION                                                           *
     186            ;******************************************************************************
     187            $C$DW$T$2       .dwtag  DW_TAG_unspecified_type
     188                    .dwattr $C$DW$T$2, DW_AT_name("void")
     189            
     190            
     191            $C$DW$T$19      .dwtag  DW_TAG_subroutine_type
     192                    .dwattr $C$DW$T$19, DW_AT_language(DW_LANG_C)
     193                    .dwendtag $C$DW$T$19
     194            
     195            $C$DW$T$20      .dwtag  DW_TAG_pointer_type
     196                    .dwattr $C$DW$T$20, DW_AT_type(*$C$DW$T$19)
     197                    .dwattr $C$DW$T$20, DW_AT_address_class(0x14)
     198            
     199            $C$DW$T$21      .dwtag  DW_TAG_typedef
     200                    .dwattr $C$DW$T$21, DW_AT_name("__SFR_FARPTR")
     201                    .dwattr $C$DW$T$21, DW_AT_type(*$C$DW$T$20)
     202                    .dwattr $C$DW$T$21, DW_AT_language(DW_LANG_C)
     203                    .dwattr $C$DW$T$21, DW_AT_decl_file("D:\Program Files\TI CCSv6\ccsv6\ccs_base\msp430\include\m
     204                    .dwattr $C$DW$T$21, DW_AT_decl_line(0x47)
     205                    .dwattr $C$DW$T$21, DW_AT_decl_column(0x11)
     206            
     207            $C$DW$T$4       .dwtag  DW_TAG_base_type
     208                    .dwattr $C$DW$T$4, DW_AT_encoding(DW_ATE_boolean)
     209                    .dwattr $C$DW$T$4, DW_AT_name("bool")
     210                    .dwattr $C$DW$T$4, DW_AT_byte_size(0x01)
     211            
     212            $C$DW$T$5       .dwtag  DW_TAG_base_type
     213                    .dwattr $C$DW$T$5, DW_AT_encoding(DW_ATE_signed_char)
     214                    .dwattr $C$DW$T$5, DW_AT_name("signed char")
     215                    .dwattr $C$DW$T$5, DW_AT_byte_size(0x01)
     216            
     217            $C$DW$T$6       .dwtag  DW_TAG_base_type
     218                    .dwattr $C$DW$T$6, DW_AT_encoding(DW_ATE_unsigned_char)
MSP430 Assembler PC v15.12.3 Wed Oct 12 11:17:25 2016

Tools Copyright (c) 2003-2015 Texas Instruments Incorporated
C:\Users\LokBok\AppData\Local\Temp\114962                            PAGE    5

     219                    .dwattr $C$DW$T$6, DW_AT_name("unsigned char")
     220                    .dwattr $C$DW$T$6, DW_AT_byte_size(0x01)
     221            
     222            $C$DW$9 .dwtag  DW_TAG_TI_far_type
     223                    .dwattr $C$DW$9, DW_AT_type(*$C$DW$T$6)
     224            
     225            $C$DW$T$23      .dwtag  DW_TAG_volatile_type
     226                    .dwattr $C$DW$T$23, DW_AT_type(*$C$DW$9)
     227            
     228            $C$DW$T$7       .dwtag  DW_TAG_base_type
     229                    .dwattr $C$DW$T$7, DW_AT_encoding(DW_ATE_signed_char)
     230                    .dwattr $C$DW$T$7, DW_AT_name("wchar_t")
     231                    .dwattr $C$DW$T$7, DW_AT_byte_size(0x02)
     232            
     233            $C$DW$T$8       .dwtag  DW_TAG_base_type
     234                    .dwattr $C$DW$T$8, DW_AT_encoding(DW_ATE_signed)
     235                    .dwattr $C$DW$T$8, DW_AT_name("short")
     236                    .dwattr $C$DW$T$8, DW_AT_byte_size(0x02)
     237            
     238            $C$DW$T$9       .dwtag  DW_TAG_base_type
     239                    .dwattr $C$DW$T$9, DW_AT_encoding(DW_ATE_unsigned)
     240                    .dwattr $C$DW$T$9, DW_AT_name("unsigned short")
     241                    .dwattr $C$DW$T$9, DW_AT_byte_size(0x02)
     242            
     243            $C$DW$T$10      .dwtag  DW_TAG_base_type
     244                    .dwattr $C$DW$T$10, DW_AT_encoding(DW_ATE_signed)
     245                    .dwattr $C$DW$T$10, DW_AT_name("int")
     246                    .dwattr $C$DW$T$10, DW_AT_byte_size(0x02)
     247            
     248            $C$DW$T$11      .dwtag  DW_TAG_base_type
     249                    .dwattr $C$DW$T$11, DW_AT_encoding(DW_ATE_unsigned)
     250                    .dwattr $C$DW$T$11, DW_AT_name("unsigned int")
     251                    .dwattr $C$DW$T$11, DW_AT_byte_size(0x02)
     252            
     253            $C$DW$T$12      .dwtag  DW_TAG_base_type
     254                    .dwattr $C$DW$T$12, DW_AT_encoding(DW_ATE_signed)
     255                    .dwattr $C$DW$T$12, DW_AT_name("long")
     256                    .dwattr $C$DW$T$12, DW_AT_byte_size(0x04)
     257            
     258            $C$DW$T$13      .dwtag  DW_TAG_base_type
     259                    .dwattr $C$DW$T$13, DW_AT_encoding(DW_ATE_unsigned)
     260                    .dwattr $C$DW$T$13, DW_AT_name("unsigned long")
     261                    .dwattr $C$DW$T$13, DW_AT_byte_size(0x04)
     262            
     263            $C$DW$T$14      .dwtag  DW_TAG_base_type
     264                    .dwattr $C$DW$T$14, DW_AT_encoding(DW_ATE_signed)
     265                    .dwattr $C$DW$T$14, DW_AT_name("long long")
     266                    .dwattr $C$DW$T$14, DW_AT_byte_size(0x08)
     267            
     268            $C$DW$T$15      .dwtag  DW_TAG_base_type
     269                    .dwattr $C$DW$T$15, DW_AT_encoding(DW_ATE_unsigned)
     270                    .dwattr $C$DW$T$15, DW_AT_name("unsigned long long")
     271                    .dwattr $C$DW$T$15, DW_AT_byte_size(0x08)
     272            
     273            $C$DW$T$16      .dwtag  DW_TAG_base_type
MSP430 Assembler PC v15.12.3 Wed Oct 12 11:17:25 2016

Tools Copyright (c) 2003-2015 Texas Instruments Incorporated
C:\Users\LokBok\AppData\Local\Temp\114962                            PAGE    6

     274                    .dwattr $C$DW$T$16, DW_AT_encoding(DW_ATE_float)
     275                    .dwattr $C$DW$T$16, DW_AT_name("float")
     276                    .dwattr $C$DW$T$16, DW_AT_byte_size(0x04)
     277            
     278            $C$DW$T$17      .dwtag  DW_TAG_base_type
     279                    .dwattr $C$DW$T$17, DW_AT_encoding(DW_ATE_float)
     280                    .dwattr $C$DW$T$17, DW_AT_name("double")
     281                    .dwattr $C$DW$T$17, DW_AT_byte_size(0x08)
     282            
     283            $C$DW$T$18      .dwtag  DW_TAG_base_type
     284                    .dwattr $C$DW$T$18, DW_AT_encoding(DW_ATE_float)
     285                    .dwattr $C$DW$T$18, DW_AT_name("long double")
     286                    .dwattr $C$DW$T$18, DW_AT_byte_size(0x08)
     287            
     288                    .dwattr $C$DW$CU, DW_AT_language(DW_LANG_C)
     289            
     290            ;***************************************************************
     291            ;* DWARF CIE ENTRIES                                           *
     292            ;***************************************************************
     293            
     294            $C$DW$CIE       .dwcie 16
     295                    .dwcfi  cfa_register, 1
     296                    .dwcfi  cfa_offset, 0
     297                    .dwcfi  same_value, 0
     298                    .dwcfi  same_value, 1
     299                    .dwcfi  undefined, 2
     300                    .dwcfi  same_value, 3
     301                    .dwcfi  same_value, 4
     302                    .dwcfi  same_value, 5
     303                    .dwcfi  same_value, 6
     304                    .dwcfi  same_value, 7
     305                    .dwcfi  same_value, 8
     306                    .dwcfi  same_value, 9
     307                    .dwcfi  same_value, 10
     308                    .dwcfi  undefined, 11
     309                    .dwcfi  undefined, 12
     310                    .dwcfi  undefined, 13
     311                    .dwcfi  undefined, 14
     312                    .dwcfi  undefined, 15
     313                    .dwcfi  undefined, 16
     314                    .dwendentry
     315            
     316            ;***************************************************************
     317            ;* DWARF REGISTER MAP                                          *
     318            ;***************************************************************
     319            
     320            $C$DW$10        .dwtag  DW_TAG_TI_assign_register
     321                    .dwattr $C$DW$10, DW_AT_name("PC")
     322                    .dwattr $C$DW$10, DW_AT_location[DW_OP_reg0]
     323            
     324            $C$DW$11        .dwtag  DW_TAG_TI_assign_register
     325                    .dwattr $C$DW$11, DW_AT_name("SP")
     326                    .dwattr $C$DW$11, DW_AT_location[DW_OP_reg1]
     327            
     328            $C$DW$12        .dwtag  DW_TAG_TI_assign_register
MSP430 Assembler PC v15.12.3 Wed Oct 12 11:17:25 2016

Tools Copyright (c) 2003-2015 Texas Instruments Incorporated
C:\Users\LokBok\AppData\Local\Temp\114962                            PAGE    7

     329                    .dwattr $C$DW$12, DW_AT_name("SR")
     330                    .dwattr $C$DW$12, DW_AT_location[DW_OP_reg2]
     331            
     332            $C$DW$13        .dwtag  DW_TAG_TI_assign_register
     333                    .dwattr $C$DW$13, DW_AT_name("CG")
     334                    .dwattr $C$DW$13, DW_AT_location[DW_OP_reg3]
     335            
     336            $C$DW$14        .dwtag  DW_TAG_TI_assign_register
     337                    .dwattr $C$DW$14, DW_AT_name("r4")
     338                    .dwattr $C$DW$14, DW_AT_location[DW_OP_reg4]
     339            
     340            $C$DW$15        .dwtag  DW_TAG_TI_assign_register
     341                    .dwattr $C$DW$15, DW_AT_name("r5")
     342                    .dwattr $C$DW$15, DW_AT_location[DW_OP_reg5]
     343            
     344            $C$DW$16        .dwtag  DW_TAG_TI_assign_register
     345                    .dwattr $C$DW$16, DW_AT_name("r6")
     346                    .dwattr $C$DW$16, DW_AT_location[DW_OP_reg6]
     347            
     348            $C$DW$17        .dwtag  DW_TAG_TI_assign_register
     349                    .dwattr $C$DW$17, DW_AT_name("r7")
     350                    .dwattr $C$DW$17, DW_AT_location[DW_OP_reg7]
     351            
     352            $C$DW$18        .dwtag  DW_TAG_TI_assign_register
     353                    .dwattr $C$DW$18, DW_AT_name("r8")
     354                    .dwattr $C$DW$18, DW_AT_location[DW_OP_reg8]
     355            
     356            $C$DW$19        .dwtag  DW_TAG_TI_assign_register
     357                    .dwattr $C$DW$19, DW_AT_name("r9")
     358                    .dwattr $C$DW$19, DW_AT_location[DW_OP_reg9]
     359            
     360            $C$DW$20        .dwtag  DW_TAG_TI_assign_register
     361                    .dwattr $C$DW$20, DW_AT_name("r10")
     362                    .dwattr $C$DW$20, DW_AT_location[DW_OP_reg10]
     363            
     364            $C$DW$21        .dwtag  DW_TAG_TI_assign_register
     365                    .dwattr $C$DW$21, DW_AT_name("r11")
     366                    .dwattr $C$DW$21, DW_AT_location[DW_OP_reg11]
     367            
     368            $C$DW$22        .dwtag  DW_TAG_TI_assign_register
     369                    .dwattr $C$DW$22, DW_AT_name("r12")
     370                    .dwattr $C$DW$22, DW_AT_location[DW_OP_reg12]
     371            
     372            $C$DW$23        .dwtag  DW_TAG_TI_assign_register
     373                    .dwattr $C$DW$23, DW_AT_name("r13")
     374                    .dwattr $C$DW$23, DW_AT_location[DW_OP_reg13]
     375            
     376            $C$DW$24        .dwtag  DW_TAG_TI_assign_register
     377                    .dwattr $C$DW$24, DW_AT_name("r14")
     378                    .dwattr $C$DW$24, DW_AT_location[DW_OP_reg14]
     379            
     380            $C$DW$25        .dwtag  DW_TAG_TI_assign_register
     381                    .dwattr $C$DW$25, DW_AT_name("r15")
     382                    .dwattr $C$DW$25, DW_AT_location[DW_OP_reg15]
     383            
MSP430 Assembler PC v15.12.3 Wed Oct 12 11:17:25 2016

Tools Copyright (c) 2003-2015 Texas Instruments Incorporated
C:\Users\LokBok\AppData\Local\Temp\114962                            PAGE    8

     384            $C$DW$26        .dwtag  DW_TAG_TI_assign_register
     385                    .dwattr $C$DW$26, DW_AT_name("CIE_RETA")
     386                    .dwattr $C$DW$26, DW_AT_location[DW_OP_reg16]
     387            
     388                    .dwendtag $C$DW$CU
     389            

No Assembly Errors, No Assembly Warnings
