MSP430 Assembler PC v15.12.3 Wed Oct 12 11:20:24 2016

Tools Copyright (c) 2003-2015 Texas Instruments Incorporated
C:\Users\LokBok\AppData\Local\Temp\134442                            PAGE    1

       1            ;******************************************************************************
       2            ;* MSP430 C/C++ Codegen                                       PC v15.12.3.LTS *
       3            ;* Date/Time created: Wed Oct 12 11:20:23 2016                                *
       4            ;******************************************************************************
       5                    .compiler_opts --abi=eabi --diag_wrap=off --hll_source=on --mem_model:code=large --mem_model:d
       6            
       7            $C$DW$CU        .dwtag  DW_TAG_compile_unit
       8                    .dwattr $C$DW$CU, DW_AT_name("../MSP430F5xx_6xx/ucs.c")
       9                    .dwattr $C$DW$CU, DW_AT_producer("TI MSP430 C/C++ Codegen PC v15.12.3.LTS Copyright (c) 2003-2
      10                    .dwattr $C$DW$CU, DW_AT_TI_version(0x01)
      11                    .dwattr $C$DW$CU, DW_AT_comp_dir("D:\Programmeerimine\Code Composer WS\CardReader\src\Debug")
      12            
      13            $C$DW$1 .dwtag  DW_TAG_subprogram
      14                    .dwattr $C$DW$1, DW_AT_name("__bic_SR_register")
      15                    .dwattr $C$DW$1, DW_AT_TI_symbol_name("__bic_SR_register")
      16                    .dwattr $C$DW$1, DW_AT_type(*$C$DW$T$9)
      17                    .dwattr $C$DW$1, DW_AT_declaration
      18                    .dwattr $C$DW$1, DW_AT_external
      19                    .dwattr $C$DW$1, DW_AT_decl_file("D:/Program Files/TI CCSv6/ccsv6/tools/compiler/msp430_15.12.
      20                    .dwattr $C$DW$1, DW_AT_decl_line(0x37)
      21                    .dwattr $C$DW$1, DW_AT_decl_column(0x10)
      22            $C$DW$2 .dwtag  DW_TAG_formal_parameter
      23                    .dwattr $C$DW$2, DW_AT_type(*$C$DW$T$9)
      24            
      25                    .dwendtag $C$DW$1
      26            
      27            
      28            $C$DW$3 .dwtag  DW_TAG_subprogram
      29                    .dwattr $C$DW$3, DW_AT_name("__bis_SR_register")
      30                    .dwattr $C$DW$3, DW_AT_TI_symbol_name("__bis_SR_register")
      31                    .dwattr $C$DW$3, DW_AT_type(*$C$DW$T$9)
      32                    .dwattr $C$DW$3, DW_AT_declaration
      33                    .dwattr $C$DW$3, DW_AT_external
      34                    .dwattr $C$DW$3, DW_AT_decl_file("D:/Program Files/TI CCSv6/ccsv6/tools/compiler/msp430_15.12.
      35                    .dwattr $C$DW$3, DW_AT_decl_line(0x39)
      36                    .dwattr $C$DW$3, DW_AT_decl_column(0x10)
      37            $C$DW$4 .dwtag  DW_TAG_formal_parameter
      38                    .dwattr $C$DW$4, DW_AT_type(*$C$DW$T$9)
      39            
      40                    .dwendtag $C$DW$3
      41            
      42            
      43            $C$DW$5 .dwtag  DW_TAG_subprogram
      44                    .dwattr $C$DW$5, DW_AT_name("__get_SR_register")
      45                    .dwattr $C$DW$5, DW_AT_TI_symbol_name("__get_SR_register")
      46                    .dwattr $C$DW$5, DW_AT_type(*$C$DW$T$9)
      47                    .dwattr $C$DW$5, DW_AT_declaration
      48                    .dwattr $C$DW$5, DW_AT_external
      49                    .dwattr $C$DW$5, DW_AT_decl_file("D:/Program Files/TI CCSv6/ccsv6/tools/compiler/msp430_15.12.
      50                    .dwattr $C$DW$5, DW_AT_decl_line(0x3b)
      51                    .dwattr $C$DW$5, DW_AT_decl_column(0x10)
      52                    .dwendtag $C$DW$5
      53            
      54            
      55            $C$DW$6 .dwtag  DW_TAG_subprogram
MSP430 Assembler PC v15.12.3 Wed Oct 12 11:20:24 2016

Tools Copyright (c) 2003-2015 Texas Instruments Incorporated
C:\Users\LokBok\AppData\Local\Temp\134442                            PAGE    2

      56                    .dwattr $C$DW$6, DW_AT_name("__delay_cycles")
      57                    .dwattr $C$DW$6, DW_AT_TI_symbol_name("__delay_cycles")
      58                    .dwattr $C$DW$6, DW_AT_declaration
      59                    .dwattr $C$DW$6, DW_AT_external
      60                    .dwattr $C$DW$6, DW_AT_decl_file("D:/Program Files/TI CCSv6/ccsv6/tools/compiler/msp430_15.12.
      61                    .dwattr $C$DW$6, DW_AT_decl_line(0x41)
      62                    .dwattr $C$DW$6, DW_AT_decl_column(0x10)
      63            $C$DW$7 .dwtag  DW_TAG_formal_parameter
      64                    .dwattr $C$DW$7, DW_AT_type(*$C$DW$T$13)
      65            
      66                    .dwendtag $C$DW$6
      67            
      68 000000               .data
      69                    .align  2
      70                    .elfsym privateXT1ClockFrequency,SYM_SIZE(4)
      71 000000       privateXT1ClockFrequency:
      72 000000 0000          .bits   0,32                    ; privateXT1ClockFrequency @ 0
         000002 0000 
      73            
      74            $C$DW$8 .dwtag  DW_TAG_variable
      75                    .dwattr $C$DW$8, DW_AT_name("privateXT1ClockFrequency")
      76                    .dwattr $C$DW$8, DW_AT_TI_symbol_name("privateXT1ClockFrequency")
      77                    .dwattr $C$DW$8, DW_AT_type(*$C$DW$T$20)
      78                    .dwattr $C$DW$8, DW_AT_location[DW_OP_addr privateXT1ClockFrequency]
      79                    .dwattr $C$DW$8, DW_AT_decl_file("../MSP430F5xx_6xx/ucs.c")
      80                    .dwattr $C$DW$8, DW_AT_decl_line(0x63)
      81                    .dwattr $C$DW$8, DW_AT_decl_column(0x11)
      82            
      83 000004               .data
      84                    .align  2
      85                    .elfsym privateXT2ClockFrequency,SYM_SIZE(4)
      86 000004       privateXT2ClockFrequency:
      87 000004 0000          .bits   0,32                    ; privateXT2ClockFrequency @ 0
         000006 0000 
      88            
      89            $C$DW$9 .dwtag  DW_TAG_variable
      90                    .dwattr $C$DW$9, DW_AT_name("privateXT2ClockFrequency")
      91                    .dwattr $C$DW$9, DW_AT_TI_symbol_name("privateXT2ClockFrequency")
      92                    .dwattr $C$DW$9, DW_AT_type(*$C$DW$T$20)
      93                    .dwattr $C$DW$9, DW_AT_location[DW_OP_addr privateXT2ClockFrequency]
      94                    .dwattr $C$DW$9, DW_AT_decl_file("../MSP430F5xx_6xx/ucs.c")
      95                    .dwattr $C$DW$9, DW_AT_decl_line(0x6c)
      96                    .dwattr $C$DW$9, DW_AT_decl_column(0x11)
      97            
      98            ;       D:\Program Files\TI CCSv6\ccsv6\tools\compiler\msp430_15.12.3.LTS\bin\opt430.exe D:/Programmee
      99 000000               .sect   ".text:privateUCSSourceClockFromDCO"
     100                    .clink
     101            
     102            $C$DW$10        .dwtag  DW_TAG_subprogram
     103                    .dwattr $C$DW$10, DW_AT_name("privateUCSSourceClockFromDCO")
     104                    .dwattr $C$DW$10, DW_AT_low_pc(privateUCSSourceClockFromDCO)
     105                    .dwattr $C$DW$10, DW_AT_high_pc(0x00)
     106                    .dwattr $C$DW$10, DW_AT_TI_symbol_name("privateUCSSourceClockFromDCO")
     107                    .dwattr $C$DW$10, DW_AT_type(*$C$DW$T$20)
     108                    .dwattr $C$DW$10, DW_AT_TI_begin_file("../MSP430F5xx_6xx/ucs.c")
MSP430 Assembler PC v15.12.3 Wed Oct 12 11:20:24 2016

Tools Copyright (c) 2003-2015 Texas Instruments Incorporated
C:\Users\LokBok\AppData\Local\Temp\134442                            PAGE    3

     109                    .dwattr $C$DW$10, DW_AT_TI_begin_line(0x6e)
     110                    .dwattr $C$DW$10, DW_AT_TI_begin_column(0x11)
     111                    .dwattr $C$DW$10, DW_AT_decl_file("../MSP430F5xx_6xx/ucs.c")
     112                    .dwattr $C$DW$10, DW_AT_decl_line(0x6e)
     113                    .dwattr $C$DW$10, DW_AT_decl_column(0x11)
     114                    .dwattr $C$DW$10, DW_AT_TI_max_frame_size(0x10)
     115                    .dwpsn  file "../MSP430F5xx_6xx/ucs.c",line 111,column 1,is_stmt,address privateUCSSourceClock
     116            
     117                    .dwfde $C$DW$CIE, privateUCSSourceClockFromDCO
     118            $C$DW$11        .dwtag  DW_TAG_formal_parameter
     119                    .dwattr $C$DW$11, DW_AT_name("FLLRefCLKSource")
     120                    .dwattr $C$DW$11, DW_AT_TI_symbol_name("FLLRefCLKSource")
     121                    .dwattr $C$DW$11, DW_AT_type(*$C$DW$T$23)
     122                    .dwattr $C$DW$11, DW_AT_location[DW_OP_reg12]
     123            
     124            
     125            ;*****************************************************************************
     126            ;* FUNCTION NAME: privateUCSSourceClockFromDCO                               *
     127            ;*                                                                           *
     128            ;*   Regs Modified     : SP,SR,r8,r9,r10,r11,r12,r13,r14,r15                 *
     129            ;*   Regs Used         : SP,SR,r8,r9,r10,r11,r12,r13,r14,r15                 *
     130            ;*   Local Frame Size  : 0 Args + 0 Auto + 12 Save = 12 byte                 *
     131            ;*****************************************************************************
     132 000000       privateUCSSourceClockFromDCO:
     133            ;* --------------------------------------------------------------------------*
     134                    .dwcfi  cfa_offset, 4
     135                    .dwcfi  save_reg_to_mem, 16, -4
     136 000000 142A          PUSHM.A   #3,r10                ; [] 
     137                    .dwcfi  save_reg_to_mem, 10, -8
     138                    .dwcfi  save_reg_to_mem, 9, -12
     139                    .dwcfi  save_reg_to_mem, 8, -16
     140                    .dwcfi  cfa_offset, 16
     141            ;* r9    assigned to FLLRefCLKSource
     142            $C$DW$12        .dwtag  DW_TAG_variable
     143                    .dwattr $C$DW$12, DW_AT_name("FLLRefCLKSource")
     144                    .dwattr $C$DW$12, DW_AT_TI_symbol_name("FLLRefCLKSource")
     145                    .dwattr $C$DW$12, DW_AT_type(*$C$DW$T$23)
     146                    .dwattr $C$DW$12, DW_AT_location[DW_OP_reg9]
     147            
     148            ;* r10   assigned to D_value
     149            $C$DW$13        .dwtag  DW_TAG_variable
     150                    .dwattr $C$DW$13, DW_AT_name("D_value")
     151                    .dwattr $C$DW$13, DW_AT_TI_symbol_name("D_value")
     152                    .dwattr $C$DW$13, DW_AT_type(*$C$DW$T$23)
     153                    .dwattr $C$DW$13, DW_AT_location[DW_OP_reg10]
     154            
     155            ;* r11   assigned to N_value
     156            $C$DW$14        .dwtag  DW_TAG_variable
     157                    .dwattr $C$DW$14, DW_AT_name("N_value")
     158                    .dwattr $C$DW$14, DW_AT_TI_symbol_name("N_value")
     159                    .dwattr $C$DW$14, DW_AT_type(*$C$DW$T$23)
     160                    .dwattr $C$DW$14, DW_AT_location[DW_OP_reg11]
     161            
     162            ;* r8    assigned to n_value
     163            $C$DW$15        .dwtag  DW_TAG_variable
MSP430 Assembler PC v15.12.3 Wed Oct 12 11:20:24 2016

Tools Copyright (c) 2003-2015 Texas Instruments Incorporated
C:\Users\LokBok\AppData\Local\Temp\134442                            PAGE    4

     164                    .dwattr $C$DW$15, DW_AT_name("n_value")
     165                    .dwattr $C$DW$15, DW_AT_TI_symbol_name("n_value")
     166                    .dwattr $C$DW$15, DW_AT_type(*$C$DW$T$23)
     167                    .dwattr $C$DW$15, DW_AT_location[DW_OP_reg8]
     168            
     169            ;* r14   assigned to Fref_value
     170            $C$DW$16        .dwtag  DW_TAG_variable
     171                    .dwattr $C$DW$16, DW_AT_name("Fref_value")
     172                    .dwattr $C$DW$16, DW_AT_TI_symbol_name("Fref_value")
     173                    .dwattr $C$DW$16, DW_AT_type(*$C$DW$T$20)
     174                    .dwattr $C$DW$16, DW_AT_location[DW_OP_reg14 DW_OP_piece 2 DW_OP_reg15 DW_OP_piece 2]
     175            
     176            ;* r14   assigned to i
     177            $C$DW$17        .dwtag  DW_TAG_variable
     178                    .dwattr $C$DW$17, DW_AT_name("i")
     179                    .dwattr $C$DW$17, DW_AT_TI_symbol_name("i")
     180                    .dwattr $C$DW$17, DW_AT_type(*$C$DW$T$22)
     181                    .dwattr $C$DW$17, DW_AT_location[DW_OP_reg14]
     182            
     183            ;* r15   assigned to tempDivider
     184            $C$DW$18        .dwtag  DW_TAG_variable
     185                    .dwattr $C$DW$18, DW_AT_name("tempDivider")
     186                    .dwattr $C$DW$18, DW_AT_TI_symbol_name("tempDivider")
     187                    .dwattr $C$DW$18, DW_AT_type(*$C$DW$T$23)
     188                    .dwattr $C$DW$18, DW_AT_location[DW_OP_reg15]
     189            
     190 000002 0CC9          MOVA      r12,r9                ; [] |111| 
     191                    .dwpsn  file "../MSP430F5xx_6xx/ucs.c",line 115,column 22,is_stmt,isa 0
     192 000004 431A          MOV.W     #1,r10                ; [] |115| 
     193                    .dwpsn  file "../MSP430F5xx_6xx/ucs.c",line 117,column 22,is_stmt,isa 0
     194 000006 4318          MOV.W     #1,r8                 ; [] |117| 
     195                    .dwpsn  file "../MSP430F5xx_6xx/ucs.c",line 121,column 5,is_stmt,isa 0
     196 000008 403B          MOV.W     #1023,r11             ; [] |121| 
         00000a 03FF 
     197 00000c F21B          AND.W     &0x164,r11            ; [] |121| 
         00000e 0164 
     198                    .dwpsn  file "../MSP430F5xx_6xx/ucs.c",line 122,column 26,is_stmt,isa 0
     199 000010 425D          MOV.B     &0x166,r13            ; [] |122| 
         000012 0166 
     200 000014 F03D          AND.W     #7,r13                ; [] |122| 
         000016 0007 
     201 000018 0DCF          MOVA      r13,r15               ; [] |122| 
     202 00001a 922F          CMP.W     #4,r15                ; [] |122| 
     203 00001c 280B          JLO       $C$L2                 ; [] |122| 
     204                                                      ; [] |122| 
     205            ;* --------------------------------------------------------------------------*
     206                    .dwpsn  file "../MSP430F5xx_6xx/ucs.c",line 128,column 10,is_stmt,isa 0
     207 00001e 922F          CMP.W     #4,r15                ; [] |128| 
     208 000020 2406          JEQ       $C$L1                 ; [] |128| 
     209                                                      ; [] |128| 
     210            ;* --------------------------------------------------------------------------*
     211                    .dwpsn  file "../MSP430F5xx_6xx/ucs.c",line 132,column 10,is_stmt,isa 0
     212 000022 903F          CMP.W     #5,r15                ; [] |132| 
         000024 0005 
     213 000026 200A          JNE       $C$L3                 ; [] |132| 
MSP430 Assembler PC v15.12.3 Wed Oct 12 11:20:24 2016

Tools Copyright (c) 2003-2015 Texas Instruments Incorporated
C:\Users\LokBok\AppData\Local\Temp\134442                            PAGE    5

     214                                                      ; [] |132| 
     215            ;* --------------------------------------------------------------------------*
     216                    .dwpsn  file "../MSP430F5xx_6xx/ucs.c",line 134,column 9,is_stmt,isa 0
     217 000028 4038          MOV.W     #16,r8                ; [] |134| 
         00002a 0010 
     218 00002c 3C07          JMP       $C$L3                 ; [] |134| 
     219                                                      ; [] |134| 
     220            ;* --------------------------------------------------------------------------*
     221 00002e       $C$L1:    
     222                    .dwpsn  file "../MSP430F5xx_6xx/ucs.c",line 130,column 9,is_stmt,isa 0
     223 00002e 4038          MOV.W     #12,r8                ; [] |130| 
         000030 000C 
     224                    .dwpsn  file "../MSP430F5xx_6xx/ucs.c",line 131,column 5,is_stmt,isa 0
     225 000032 3C04          JMP       $C$L3                 ; [] |131| 
     226                                                      ; [] |131| 
     227            ;* --------------------------------------------------------------------------*
     228 000034       $C$L2:    
     229                    .dwpsn  file "../MSP430F5xx_6xx/ucs.c",line 126,column 9,is_stmt,isa 0
     230 000034 08CC          MOVA      r8,r12                ; [] |126| 
     231            $C$DW$19        .dwtag  DW_TAG_TI_branch
     232                    .dwattr $C$DW$19, DW_AT_low_pc(0x00)
     233                    .dwattr $C$DW$19, DW_AT_name("__mspabi_slli")
     234                    .dwattr $C$DW$19, DW_AT_TI_call
     235            
     236 000036 13B0!         CALLA     #__mspabi_slli        ; [] |126| 
         000038 0000 
     237                                                      ; [] |126| 
     238 00003a 0CC8          MOVA      r12,r8                ; [] |126| 
     239            ;* --------------------------------------------------------------------------*
     240 00003c       $C$L3:    
     241                    .dwpsn  file "../MSP430F5xx_6xx/ucs.c",line 137,column 5,is_stmt,isa 0
     242 00003c 425F          MOV.B     &0x166,r15            ; [] |137| 
         00003e 0166 
     243 000040 F03F          AND.W     #112,r15              ; [] |137| 
         000042 0070 
     244 000044 930F          TST.W     r15                   ; [] |137| 
     245 000046 2418          JEQ       $C$L4                 ; [] |137| 
     246                                                      ; [] |137| 
     247            ;* --------------------------------------------------------------------------*
     248 000048 803F          SUB.W     #32,r15               ; [] |137| 
         00004a 0020 
     249 00004c 2439          JEQ       $C$L6                 ; [] |137| 
     250                                                      ; [] |137| 
     251            ;* --------------------------------------------------------------------------*
     252 00004e 803F          SUB.W     #48,r15               ; [] |137| 
         000050 0030 
     253 000052 2039          JNE       $C$L7                 ; [] |137| 
     254                                                      ; [] |137| 
     255            ;* --------------------------------------------------------------------------*
     256                    .dwpsn  file "../MSP430F5xx_6xx/ucs.c",line 176,column 9,is_stmt,isa 0
     257 000054 421E          MOV.W     &privateXT2ClockFrequency+0,r14 ; [] |176| 
         000056 0000!
     258 000058 421F          MOV.W     &privateXT2ClockFrequency+2,r15 ; [] |176| 
         00005a 0002!
     259                    .dwpsn  file "../MSP430F5xx_6xx/ucs.c",line 178,column 9,is_stmt,isa 0
MSP430 Assembler PC v15.12.3 Wed Oct 12 11:20:24 2016

Tools Copyright (c) 2003-2015 Texas Instruments Incorporated
C:\Users\LokBok\AppData\Local\Temp\134442                            PAGE    6

     260 00005c B2F2          BIT.B     #8,&0x16e             ; [] |178| 
         00005e 016E 
     261 000060 2432          JEQ       $C$L7                 ; [] |178| 
     262                                                      ; [] |178| 
     263            ;* --------------------------------------------------------------------------*
     264                    .dwpsn  file "../MSP430F5xx_6xx/ucs.c",line 180,column 13,is_stmt,isa 0
     265 000062 C2F2          BIC.B     #8,&0x16e             ; [] |180| 
         000064 016E 
     266                    .dwpsn  file "../MSP430F5xx_6xx/ucs.c",line 183,column 13,is_stmt,isa 0
     267 000066 C3E2          BIC.B     #2,&0x102             ; [] |183| 
         000068 0102 
     268                    .dwpsn  file "../MSP430F5xx_6xx/ucs.c",line 185,column 13,is_stmt,isa 0
     269 00006a B2F2          BIT.B     #8,&0x16e             ; [] |185| 
         00006c 016E 
     270 00006e 242B          JEQ       $C$L7                 ; [] |185| 
     271                                                      ; [] |185| 
     272            ;* --------------------------------------------------------------------------*
     273                    .dwpsn  file "../MSP430F5xx_6xx/ucs.c",line 187,column 17,is_stmt,isa 0
     274 000070 403E          MOV.W     #32768,r14            ; [] |187| 
         000072 8000 
     275 000074 430F          MOV.W     #0,r15                ; [] |187| 
     276 000076 3C27          JMP       $C$L7                 ; [] |187| 
     277                                                      ; [] |187| 
     278            ;* --------------------------------------------------------------------------*
     279 000078       $C$L4:    
     280                    .dwpsn  file "../MSP430F5xx_6xx/ucs.c",line 140,column 9,is_stmt,isa 0
     281 000078 421E          MOV.W     &privateXT1ClockFrequency+0,r14 ; [] |140| 
         00007a 0000!
     282 00007c 421F          MOV.W     &privateXT1ClockFrequency+2,r15 ; [] |140| 
         00007e 0002!
     283                    .dwpsn  file "../MSP430F5xx_6xx/ucs.c",line 142,column 9,is_stmt,isa 0
     284 000080 B0B2          BIT.W     #32,&0x16c            ; [] |142| 
         000082 0020 
         000084 016C 
     285 000086 200E          JNE       $C$L5                 ; [] |142| 
     286                                                      ; [] |142| 
     287            ;* --------------------------------------------------------------------------*
     288                    .dwpsn  file "../MSP430F5xx_6xx/ucs.c",line 144,column 13,is_stmt,isa 0
     289 000088 B3E2          BIT.B     #2,&0x16e             ; [] |144| 
         00008a 016E 
     290 00008c 241C          JEQ       $C$L7                 ; [] |144| 
     291                                                      ; [] |144| 
     292            ;* --------------------------------------------------------------------------*
     293                    .dwpsn  file "../MSP430F5xx_6xx/ucs.c",line 146,column 17,is_stmt,isa 0
     294 00008e C3E2          BIC.B     #2,&0x16e             ; [] |146| 
         000090 016E 
     295                    .dwpsn  file "../MSP430F5xx_6xx/ucs.c",line 148,column 17,is_stmt,isa 0
     296 000092 C3E2          BIC.B     #2,&0x102             ; [] |148| 
         000094 0102 
     297                    .dwpsn  file "../MSP430F5xx_6xx/ucs.c",line 150,column 17,is_stmt,isa 0
     298 000096 B3E2          BIT.B     #2,&0x16e             ; [] |150| 
         000098 016E 
     299 00009a 2415          JEQ       $C$L7                 ; [] |150| 
     300                                                      ; [] |150| 
     301            ;* --------------------------------------------------------------------------*
MSP430 Assembler PC v15.12.3 Wed Oct 12 11:20:24 2016

Tools Copyright (c) 2003-2015 Texas Instruments Incorporated
C:\Users\LokBok\AppData\Local\Temp\134442                            PAGE    7

     302                    .dwpsn  file "../MSP430F5xx_6xx/ucs.c",line 152,column 21,is_stmt,isa 0
     303 00009c 403E          MOV.W     #32768,r14            ; [] |152| 
         00009e 8000 
     304 0000a0 430F          MOV.W     #0,r15                ; [] |152| 
     305 0000a2 3C11          JMP       $C$L7                 ; [] |152| 
     306                                                      ; [] |152| 
     307            ;* --------------------------------------------------------------------------*
     308 0000a4       $C$L5:    
     309                    .dwpsn  file "../MSP430F5xx_6xx/ucs.c",line 158,column 13,is_stmt,isa 0
     310 0000a4 B2E2          BIT.B     #4,&0x16e             ; [] |158| 
         0000a6 016E 
     311 0000a8 240E          JEQ       $C$L7                 ; [] |158| 
     312                                                      ; [] |158| 
     313            ;* --------------------------------------------------------------------------*
     314                    .dwpsn  file "../MSP430F5xx_6xx/ucs.c",line 160,column 17,is_stmt,isa 0
     315 0000aa C2E2          BIC.B     #4,&0x16e             ; [] |160| 
         0000ac 016E 
     316                    .dwpsn  file "../MSP430F5xx_6xx/ucs.c",line 162,column 17,is_stmt,isa 0
     317 0000ae C3E2          BIC.B     #2,&0x102             ; [] |162| 
         0000b0 0102 
     318                    .dwpsn  file "../MSP430F5xx_6xx/ucs.c",line 164,column 17,is_stmt,isa 0
     319 0000b2 B2E2          BIT.B     #4,&0x16e             ; [] |164| 
         0000b4 016E 
     320 0000b6 2407          JEQ       $C$L7                 ; [] |164| 
     321                                                      ; [] |164| 
     322            ;* --------------------------------------------------------------------------*
     323                    .dwpsn  file "../MSP430F5xx_6xx/ucs.c",line 166,column 21,is_stmt,isa 0
     324 0000b8 403E          MOV.W     #32768,r14            ; [] |166| 
         0000ba 8000 
     325 0000bc 430F          MOV.W     #0,r15                ; [] |166| 
     326 0000be 3C03          JMP       $C$L7                 ; [] |166| 
     327                                                      ; [] |166| 
     328            ;* --------------------------------------------------------------------------*
     329 0000c0       $C$L6:    
     330                    .dwpsn  file "../MSP430F5xx_6xx/ucs.c",line 173,column 9,is_stmt,isa 0
     331 0000c0 403E          MOV.W     #32768,r14            ; [] |173| 
         0000c2 8000 
     332 0000c4 430F          MOV.W     #0,r15                ; [] |173| 
     333            ;* --------------------------------------------------------------------------*
     334 0000c6       $C$L7:    
     335                    .dwpsn  file "../MSP430F5xx_6xx/ucs.c",line 195,column 27,is_stmt,isa 0
     336 0000c6 0BCC          MOVA      r11,r12               ; [] |195| 
     337 0000c8 531C          ADD.W     #1,r12                ; [] |195| 
     338 0000ca 430D          MOV.W     #0,r13                ; [] |195| 
     339            $C$DW$20        .dwtag  DW_TAG_TI_branch
     340                    .dwattr $C$DW$20, DW_AT_low_pc(0x00)
     341                    .dwattr $C$DW$20, DW_AT_name("__mspabi_mpyl")
     342                    .dwattr $C$DW$20, DW_AT_TI_call
     343            
     344 0000cc 13B0!         CALLA     #__mspabi_mpyl        ; [] |195| 
         0000ce 0000 
     345                                                      ; [] |195| 
     346 0000d0 08CE          MOVA      r8,r14                ; [] |195| 
     347 0000d2 430F          MOV.W     #0,r15                ; [] |195| 
     348            $C$DW$21        .dwtag  DW_TAG_TI_branch
MSP430 Assembler PC v15.12.3 Wed Oct 12 11:20:24 2016

Tools Copyright (c) 2003-2015 Texas Instruments Incorporated
C:\Users\LokBok\AppData\Local\Temp\134442                            PAGE    8

     349                    .dwattr $C$DW$21, DW_AT_low_pc(0x00)
     350                    .dwattr $C$DW$21, DW_AT_name("__mspabi_divul")
     351                    .dwattr $C$DW$21, DW_AT_TI_call
     352            
     353 0000d4 13B0!         CALLA     #__mspabi_divul       ; [] |195| 
         0000d6 0000 
     354                                                      ; [] |195| 
     355                    .dwpsn  file "../MSP430F5xx_6xx/ucs.c",line 197,column 5,is_stmt,isa 0
     356 0000d8 9039          CMP.W     #3,r9                 ; [] |197| 
         0000da 0003 
     357 0000dc 2013          JNE       $C$L10                ; [] |197| 
     358                                                      ; [] |197| 
     359            ;* --------------------------------------------------------------------------*
     360                    .dwpsn  file "../MSP430F5xx_6xx/ucs.c",line 199,column 9,is_stmt,isa 0
     361 0000de 403F          MOV.W     #28672,r15            ; [] |199| 
         0000e0 7000 
     362 0000e2 F21F          AND.W     &0x164,r15            ; [] |199| 
         0000e4 0164 
     363                    .dwpsn  file "../MSP430F5xx_6xx/ucs.c",line 202,column 20,is_stmt,isa 0
     364 0000e6 194B          RPT #12 || RRUX.W r15 ; [] |202| 
         0000e8 100F 
     365 0000ea 434E          MOV.B     #0,r14                ; [] |202| 
     366 0000ec 4E4B          MOV.B     r14,r11               ; [] |202| 
     367 0000ee 9F0B          CMP.W     r15,r11               ; [] |202| 
     368 0000f0 2C05          JHS       $C$L9                 ; [] |202| 
     369                                                      ; [] |202| 
     370            ;* --------------------------------------------------------------------------*
     371            ;*   BEGIN LOOP $C$L8
     372            ;*
     373            ;*   Loop source line                : 202
     374            ;*   Loop closing brace source line  : 205
     375            ;*   Known Minimum Trip Count        : 1
     376            ;*   Known Maximum Trip Count        : 4294967295
     377            ;*   Known Max Trip Count Factor     : 1
     378            ;* --------------------------------------------------------------------------*
     379 0000f2       $C$L8:    
     380                    .dwpsn  file "../MSP430F5xx_6xx/ucs.c",line 204,column 13,is_stmt,isa 0
     381 0000f2 025A          RLAM.W    #1,r10                ; [] |204| 
     382                    .dwpsn  file "../MSP430F5xx_6xx/ucs.c",line 202,column 20,is_stmt,isa 0
     383 0000f4 535E          ADD.B     #1,r14                ; [] |202| 
     384 0000f6 4E4B          MOV.B     r14,r11               ; [] |202| 
     385 0000f8 9F0B          CMP.W     r15,r11               ; [] |202| 
     386 0000fa 2BFB          JLO       $C$L8                 ; [] |202| 
     387                                                      ; [] |202| 
     388            ;* --------------------------------------------------------------------------*
     389 0000fc       $C$L9:    
     390                    .dwpsn  file "../MSP430F5xx_6xx/ucs.c",line 207,column 9,is_stmt,isa 0
     391 0000fc 430F          MOV.W     #0,r15                ; [] |207| 
     392 0000fe 0ACE          MOVA      r10,r14               ; [] |207| 
     393            $C$DW$22        .dwtag  DW_TAG_TI_branch
     394                    .dwattr $C$DW$22, DW_AT_low_pc(0x00)
     395                    .dwattr $C$DW$22, DW_AT_name("__mspabi_mpyl")
     396                    .dwattr $C$DW$22, DW_AT_TI_call
     397            
     398 000100 13B0!         CALLA     #__mspabi_mpyl        ; [] |207| 
MSP430 Assembler PC v15.12.3 Wed Oct 12 11:20:24 2016

Tools Copyright (c) 2003-2015 Texas Instruments Incorporated
C:\Users\LokBok\AppData\Local\Temp\134442                            PAGE    9

         000102 0000 
     399                                                      ; [] |207| 
     400            ;* --------------------------------------------------------------------------*
     401 000104       $C$L10:    
     402                    .dwpsn  file "../MSP430F5xx_6xx/ucs.c",line 209,column 5,is_stmt,isa 0
     403                    .dwpsn  file "../MSP430F5xx_6xx/ucs.c",line 210,column 1,is_stmt,isa 0
     404 000104 1628          POPM.A    #3,r10                ; [] 
     405                    .dwcfi  restore_reg, 8
     406                    .dwcfi  restore_reg, 9
     407                    .dwcfi  restore_reg, 10
     408                    .dwcfi  cfa_offset, 4
     409            $C$DW$23        .dwtag  DW_TAG_TI_branch
     410                    .dwattr $C$DW$23, DW_AT_low_pc(0x00)
     411                    .dwattr $C$DW$23, DW_AT_TI_return
     412            
     413 000106 0110          RETA      ; [] 
     414                    ; [] 
     415                    .dwattr $C$DW$10, DW_AT_TI_end_file("../MSP430F5xx_6xx/ucs.c")
     416                    .dwattr $C$DW$10, DW_AT_TI_end_line(0xd2)
     417                    .dwattr $C$DW$10, DW_AT_TI_end_column(0x01)
     418                    .dwendentry
     419                    .dwendtag $C$DW$10
     420            
     421 000000               .sect   ".text:privateUCSComputeCLKFrequency"
     422                    .clink
     423            
     424            $C$DW$24        .dwtag  DW_TAG_subprogram
     425                    .dwattr $C$DW$24, DW_AT_name("privateUCSComputeCLKFrequency")
     426                    .dwattr $C$DW$24, DW_AT_low_pc(privateUCSComputeCLKFrequency)
     427                    .dwattr $C$DW$24, DW_AT_high_pc(0x00)
     428                    .dwattr $C$DW$24, DW_AT_TI_symbol_name("privateUCSComputeCLKFrequency")
     429                    .dwattr $C$DW$24, DW_AT_type(*$C$DW$T$20)
     430                    .dwattr $C$DW$24, DW_AT_TI_begin_file("../MSP430F5xx_6xx/ucs.c")
     431                    .dwattr $C$DW$24, DW_AT_TI_begin_line(0xd4)
     432                    .dwattr $C$DW$24, DW_AT_TI_begin_column(0x11)
     433                    .dwattr $C$DW$24, DW_AT_decl_file("../MSP430F5xx_6xx/ucs.c")
     434                    .dwattr $C$DW$24, DW_AT_decl_line(0xd4)
     435                    .dwattr $C$DW$24, DW_AT_decl_column(0x11)
     436                    .dwattr $C$DW$24, DW_AT_TI_max_frame_size(0x08)
     437                    .dwpsn  file "../MSP430F5xx_6xx/ucs.c",line 214,column 1,is_stmt,address privateUCSComputeCLKF
     438            
     439                    .dwfde $C$DW$CIE, privateUCSComputeCLKFrequency
     440            $C$DW$25        .dwtag  DW_TAG_formal_parameter
     441                    .dwattr $C$DW$25, DW_AT_name("CLKSource")
     442                    .dwattr $C$DW$25, DW_AT_TI_symbol_name("CLKSource")
     443                    .dwattr $C$DW$25, DW_AT_type(*$C$DW$T$23)
     444                    .dwattr $C$DW$25, DW_AT_location[DW_OP_reg12]
     445            
     446            $C$DW$26        .dwtag  DW_TAG_formal_parameter
     447                    .dwattr $C$DW$26, DW_AT_name("CLKSourceDivider")
     448                    .dwattr $C$DW$26, DW_AT_TI_symbol_name("CLKSourceDivider")
     449                    .dwattr $C$DW$26, DW_AT_type(*$C$DW$T$23)
     450                    .dwattr $C$DW$26, DW_AT_location[DW_OP_reg13]
     451            
     452            
MSP430 Assembler PC v15.12.3 Wed Oct 12 11:20:24 2016

Tools Copyright (c) 2003-2015 Texas Instruments Incorporated
C:\Users\LokBok\AppData\Local\Temp\134442                            PAGE   10

     453            ;*****************************************************************************
     454            ;* FUNCTION NAME: privateUCSComputeCLKFrequency                              *
     455            ;*                                                                           *
     456            ;*   Regs Modified     : SP,SR,r10,r11,r12,r13,r14,r15                       *
     457            ;*   Regs Used         : SP,SR,r10,r11,r12,r13,r14,r15                       *
     458            ;*   Local Frame Size  : 0 Args + 0 Auto + 4 Save = 4 byte                   *
     459            ;*****************************************************************************
     460 000000       privateUCSComputeCLKFrequency:
     461            ;* --------------------------------------------------------------------------*
     462                    .dwcfi  cfa_offset, 4
     463                    .dwcfi  save_reg_to_mem, 16, -4
     464 000000 140A          PUSHM.A   #1,r10                ; [] 
     465                    .dwcfi  save_reg_to_mem, 10, -8
     466                    .dwcfi  cfa_offset, 8
     467            ;* r12   assigned to CLKSource
     468            $C$DW$27        .dwtag  DW_TAG_variable
     469                    .dwattr $C$DW$27, DW_AT_name("CLKSource")
     470                    .dwattr $C$DW$27, DW_AT_TI_symbol_name("CLKSource")
     471                    .dwattr $C$DW$27, DW_AT_type(*$C$DW$T$23)
     472                    .dwattr $C$DW$27, DW_AT_location[DW_OP_reg12]
     473            
     474            ;* r13   assigned to CLKSourceDivider
     475            $C$DW$28        .dwtag  DW_TAG_variable
     476                    .dwattr $C$DW$28, DW_AT_name("CLKSourceDivider")
     477                    .dwattr $C$DW$28, DW_AT_TI_symbol_name("CLKSourceDivider")
     478                    .dwattr $C$DW$28, DW_AT_type(*$C$DW$T$23)
     479                    .dwattr $C$DW$28, DW_AT_location[DW_OP_reg13]
     480            
     481            ;* r12   assigned to CLKFrequency
     482            $C$DW$29        .dwtag  DW_TAG_variable
     483                    .dwattr $C$DW$29, DW_AT_name("CLKFrequency")
     484                    .dwattr $C$DW$29, DW_AT_TI_symbol_name("CLKFrequency")
     485                    .dwattr $C$DW$29, DW_AT_type(*$C$DW$T$20)
     486                    .dwattr $C$DW$29, DW_AT_location[DW_OP_reg12 DW_OP_piece 2 DW_OP_reg13 DW_OP_piece 2]
     487            
     488            ;* r10   assigned to CLKSourceFrequencyDivider
     489            $C$DW$30        .dwtag  DW_TAG_variable
     490                    .dwattr $C$DW$30, DW_AT_name("CLKSourceFrequencyDivider")
     491                    .dwattr $C$DW$30, DW_AT_TI_symbol_name("CLKSourceFrequencyDivider")
     492                    .dwattr $C$DW$30, DW_AT_type(*$C$DW$T$22)
     493                    .dwattr $C$DW$30, DW_AT_location[DW_OP_reg10]
     494            
     495            ;* r15   assigned to i
     496            $C$DW$31        .dwtag  DW_TAG_variable
     497                    .dwattr $C$DW$31, DW_AT_name("i")
     498                    .dwattr $C$DW$31, DW_AT_TI_symbol_name("i")
     499                    .dwattr $C$DW$31, DW_AT_type(*$C$DW$T$22)
     500                    .dwattr $C$DW$31, DW_AT_location[DW_OP_reg15]
     501            
     502                    .dwpsn  file "../MSP430F5xx_6xx/ucs.c",line 216,column 39,is_stmt,isa 0
     503 000002 435A          MOV.B     #1,r10                ; [] |216| 
     504                    .dwpsn  file "../MSP430F5xx_6xx/ucs.c",line 219,column 16,is_stmt,isa 0
     505 000004 434F          MOV.B     #0,r15                ; [] |219| 
     506 000006 4F4E          MOV.B     r15,r14               ; [] |219| 
     507 000008 9D0E          CMP.W     r13,r14               ; [] |219| 
MSP430 Assembler PC v15.12.3 Wed Oct 12 11:20:24 2016

Tools Copyright (c) 2003-2015 Texas Instruments Incorporated
C:\Users\LokBok\AppData\Local\Temp\134442                            PAGE   11

     508 00000a 2C05          JHS       $C$L12                ; [] |219| 
     509                                                      ; [] |219| 
     510            ;* --------------------------------------------------------------------------*
     511            ;*   BEGIN LOOP $C$L11
     512            ;*
     513            ;*   Loop source line                : 219
     514            ;*   Loop closing brace source line  : 222
     515            ;*   Known Minimum Trip Count        : 1
     516            ;*   Known Maximum Trip Count        : 4294967295
     517            ;*   Known Max Trip Count Factor     : 1
     518            ;* --------------------------------------------------------------------------*
     519 00000c       $C$L11:    
     520                    .dwpsn  file "../MSP430F5xx_6xx/ucs.c",line 221,column 9,is_stmt,isa 0
     521 00000c 5A4A          RLA.B     r10                   ; [] |221| 
     522                    .dwpsn  file "../MSP430F5xx_6xx/ucs.c",line 219,column 16,is_stmt,isa 0
     523 00000e 535F          ADD.B     #1,r15                ; [] |219| 
     524 000010 4F4E          MOV.B     r15,r14               ; [] |219| 
     525 000012 9D0E          CMP.W     r13,r14               ; [] |219| 
     526 000014 2BFB          JLO       $C$L11                ; [] |219| 
     527                                                      ; [] |219| 
     528            ;* --------------------------------------------------------------------------*
     529 000016       $C$L12:    
     530                    .dwpsn  file "../MSP430F5xx_6xx/ucs.c",line 224,column 5,is_stmt,isa 0
     531 000016 0CCF          MOVA      r12,r15               ; [] |224| 
     532 000018 930F          TST.W     r15                   ; [] |224| 
     533 00001a 241F          JEQ       $C$L14                ; [] |224| 
     534                                                      ; [] |224| 
     535            ;* --------------------------------------------------------------------------*
     536 00001c 831F          SUB.W     #1,r15                ; [] |224| 
     537 00001e 2454          JEQ       $C$L18                ; [] |224| 
     538                                                      ; [] |224| 
     539            ;* --------------------------------------------------------------------------*
     540 000020 831F          SUB.W     #1,r15                ; [] |224| 
     541 000022 244A          JEQ       $C$L17                ; [] |224| 
     542                                                      ; [] |224| 
     543            ;* --------------------------------------------------------------------------*
     544 000024 831F          SUB.W     #1,r15                ; [] |224| 
     545 000026 932F          CMP.W     #2,r15                ; [] |224| 
     546 000028 2840          JLO       $C$L16                ; [] |224| 
     547                                                      ; [] |224| 
     548            ;* --------------------------------------------------------------------------*
     549 00002a 832F          SUB.W     #2,r15                ; [] |224| 
     550 00002c 2056          JNE       $C$L19                ; [] |224| 
     551                                                      ; [] |224| 
     552            ;* --------------------------------------------------------------------------*
     553                    .dwpsn  file "../MSP430F5xx_6xx/ucs.c",line 269,column 9,is_stmt,isa 0
     554 00002e 4A4E          MOV.B     r10,r14               ; [] |269| 
     555 000030 430F          MOV.W     #0,r15                ; [] |269| 
     556 000032 421C          MOV.W     &privateXT2ClockFrequency+0,r12 ; [] |269| 
         000034 0000!
     557 000036 421D          MOV.W     &privateXT2ClockFrequency+2,r13 ; [] |269| 
         000038 0002!
     558            $C$DW$32        .dwtag  DW_TAG_TI_branch
     559                    .dwattr $C$DW$32, DW_AT_low_pc(0x00)
     560                    .dwattr $C$DW$32, DW_AT_name("__mspabi_divul")
MSP430 Assembler PC v15.12.3 Wed Oct 12 11:20:24 2016

Tools Copyright (c) 2003-2015 Texas Instruments Incorporated
C:\Users\LokBok\AppData\Local\Temp\134442                            PAGE   12

     561                    .dwattr $C$DW$32, DW_AT_TI_call
     562            
     563 00003a 13B0!         CALLA     #__mspabi_divul       ; [] |269| 
         00003c 0000 
     564                                                      ; [] |269| 
     565                    .dwpsn  file "../MSP430F5xx_6xx/ucs.c",line 272,column 9,is_stmt,isa 0
     566 00003e B2F2          BIT.B     #8,&0x16e             ; [] |272| 
         000040 016E 
     567 000042 2404          JEQ       $C$L13                ; [] |272| 
     568                                                      ; [] |272| 
     569            ;* --------------------------------------------------------------------------*
     570                    .dwpsn  file "../MSP430F5xx_6xx/ucs.c",line 274,column 13,is_stmt,isa 0
     571 000044 C2F2          BIC.B     #8,&0x16e             ; [] |274| 
         000046 016E 
     572                    .dwpsn  file "../MSP430F5xx_6xx/ucs.c",line 276,column 13,is_stmt,isa 0
     573 000048 C3E2          BIC.B     #2,&0x102             ; [] |276| 
         00004a 0102 
     574            ;* --------------------------------------------------------------------------*
     575 00004c       $C$L13:    
     576                    .dwpsn  file "../MSP430F5xx_6xx/ucs.c",line 279,column 9,is_stmt,isa 0
     577 00004c B2F2          BIT.B     #8,&0x16e             ; [] |279| 
         00004e 016E 
     578 000050 2444          JEQ       $C$L19                ; [] |279| 
     579                                                      ; [] |279| 
     580            ;* --------------------------------------------------------------------------*
     581                    .dwpsn  file "../MSP430F5xx_6xx/ucs.c",line 281,column 13,is_stmt,isa 0
     582 000052 422C          MOV.W     #4,r12                ; [] |281| 
     583            $C$DW$33        .dwtag  DW_TAG_TI_branch
     584                    .dwattr $C$DW$33, DW_AT_low_pc(0x00)
     585                    .dwattr $C$DW$33, DW_AT_name("privateUCSSourceClockFromDCO")
     586                    .dwattr $C$DW$33, DW_AT_TI_call
     587            
     588 000054 13B0!         CALLA     #privateUCSSourceClockFromDCO ; [] |281| 
         000056 0000 
     589                                                      ; [] |281| 
     590 000058 3C40          JMP       $C$L19                ; [] |281| 
     591                                                      ; [] |281| 
     592            ;* --------------------------------------------------------------------------*
     593 00005a       $C$L14:    
     594                    .dwpsn  file "../MSP430F5xx_6xx/ucs.c",line 227,column 9,is_stmt,isa 0
     595 00005a 4A4E          MOV.B     r10,r14               ; [] |227| 
     596 00005c 430F          MOV.W     #0,r15                ; [] |227| 
     597 00005e 421C          MOV.W     &privateXT1ClockFrequency+0,r12 ; [] |227| 
         000060 0000!
     598 000062 421D          MOV.W     &privateXT1ClockFrequency+2,r13 ; [] |227| 
         000064 0002!
     599            $C$DW$34        .dwtag  DW_TAG_TI_branch
     600                    .dwattr $C$DW$34, DW_AT_low_pc(0x00)
     601                    .dwattr $C$DW$34, DW_AT_name("__mspabi_divul")
     602                    .dwattr $C$DW$34, DW_AT_TI_call
     603            
     604 000066 13B0!         CALLA     #__mspabi_divul       ; [] |227| 
         000068 0000 
     605                                                      ; [] |227| 
     606                    .dwpsn  file "../MSP430F5xx_6xx/ucs.c",line 230,column 9,is_stmt,isa 0
MSP430 Assembler PC v15.12.3 Wed Oct 12 11:20:24 2016

Tools Copyright (c) 2003-2015 Texas Instruments Incorporated
C:\Users\LokBok\AppData\Local\Temp\134442                            PAGE   13

     607 00006a B0B2          BIT.W     #32,&0x16c            ; [] |230| 
         00006c 0020 
         00006e 016C 
     608 000070 200E          JNE       $C$L15                ; [] |230| 
     609                                                      ; [] |230| 
     610            ;* --------------------------------------------------------------------------*
     611                    .dwpsn  file "../MSP430F5xx_6xx/ucs.c",line 232,column 13,is_stmt,isa 0
     612 000072 B3E2          BIT.B     #2,&0x16e             ; [] |232| 
         000074 016E 
     613 000076 2431          JEQ       $C$L19                ; [] |232| 
     614                                                      ; [] |232| 
     615            ;* --------------------------------------------------------------------------*
     616                    .dwpsn  file "../MSP430F5xx_6xx/ucs.c",line 234,column 17,is_stmt,isa 0
     617 000078 C3E2          BIC.B     #2,&0x16e             ; [] |234| 
         00007a 016E 
     618                    .dwpsn  file "../MSP430F5xx_6xx/ucs.c",line 236,column 17,is_stmt,isa 0
     619 00007c C3E2          BIC.B     #2,&0x102             ; [] |236| 
         00007e 0102 
     620                    .dwpsn  file "../MSP430F5xx_6xx/ucs.c",line 238,column 17,is_stmt,isa 0
     621 000080 B3E2          BIT.B     #2,&0x16e             ; [] |238| 
         000082 016E 
     622 000084 242A          JEQ       $C$L19                ; [] |238| 
     623                                                      ; [] |238| 
     624            ;* --------------------------------------------------------------------------*
     625                    .dwpsn  file "../MSP430F5xx_6xx/ucs.c",line 240,column 21,is_stmt,isa 0
     626 000086 403C          MOV.W     #32768,r12            ; [] |240| 
         000088 8000 
     627 00008a 430D          MOV.W     #0,r13                ; [] |240| 
     628 00008c 3C26          JMP       $C$L19                ; [] |240| 
     629                                                      ; [] |240| 
     630            ;* --------------------------------------------------------------------------*
     631 00008e       $C$L15:    
     632                    .dwpsn  file "../MSP430F5xx_6xx/ucs.c",line 246,column 13,is_stmt,isa 0
     633 00008e B2E2          BIT.B     #4,&0x16e             ; [] |246| 
         000090 016E 
     634 000092 2423          JEQ       $C$L19                ; [] |246| 
     635                                                      ; [] |246| 
     636            ;* --------------------------------------------------------------------------*
     637                    .dwpsn  file "../MSP430F5xx_6xx/ucs.c",line 248,column 17,is_stmt,isa 0
     638 000094 C2E2          BIC.B     #4,&0x16e             ; [] |248| 
         000096 016E 
     639                    .dwpsn  file "../MSP430F5xx_6xx/ucs.c",line 250,column 17,is_stmt,isa 0
     640 000098 C3E2          BIC.B     #2,&0x102             ; [] |250| 
         00009a 0102 
     641                    .dwpsn  file "../MSP430F5xx_6xx/ucs.c",line 252,column 17,is_stmt,isa 0
     642 00009c B2E2          BIT.B     #4,&0x16e             ; [] |252| 
         00009e 016E 
     643 0000a0 241C          JEQ       $C$L19                ; [] |252| 
     644                                                      ; [] |252| 
     645            ;* --------------------------------------------------------------------------*
     646                    .dwpsn  file "../MSP430F5xx_6xx/ucs.c",line 254,column 21,is_stmt,isa 0
     647 0000a2 403C          MOV.W     #32768,r12            ; [] |254| 
         0000a4 8000 
     648 0000a6 430D          MOV.W     #0,r13                ; [] |254| 
     649 0000a8 3C18          JMP       $C$L19                ; [] |254| 
MSP430 Assembler PC v15.12.3 Wed Oct 12 11:20:24 2016

Tools Copyright (c) 2003-2015 Texas Instruments Incorporated
C:\Users\LokBok\AppData\Local\Temp\134442                            PAGE   14

     650                                                      ; [] |254| 
     651            ;* --------------------------------------------------------------------------*
     652 0000aa       $C$L16:    
     653                    .dwpsn  file "../MSP430F5xx_6xx/ucs.c",line 287,column 9,is_stmt,isa 0
     654            $C$DW$35        .dwtag  DW_TAG_TI_branch
     655                    .dwattr $C$DW$35, DW_AT_low_pc(0x00)
     656                    .dwattr $C$DW$35, DW_AT_name("privateUCSSourceClockFromDCO")
     657                    .dwattr $C$DW$35, DW_AT_TI_call
     658            
     659 0000aa 13B0!         CALLA     #privateUCSSourceClockFromDCO ; [] |287| 
         0000ac 0000 
     660                                                      ; [] |287| 
     661 0000ae 4A4E          MOV.B     r10,r14               ; [] |287| 
     662 0000b0 430F          MOV.W     #0,r15                ; [] |287| 
     663            $C$DW$36        .dwtag  DW_TAG_TI_branch
     664                    .dwattr $C$DW$36, DW_AT_low_pc(0x00)
     665                    .dwattr $C$DW$36, DW_AT_name("__mspabi_divul")
     666                    .dwattr $C$DW$36, DW_AT_TI_call
     667            
     668 0000b2 13B0!         CALLA     #__mspabi_divul       ; [] |287| 
         0000b4 0000 
     669                                                      ; [] |287| 
     670                    .dwpsn  file "../MSP430F5xx_6xx/ucs.c",line 289,column 9,is_stmt,isa 0
     671 0000b6 3C11          JMP       $C$L19                ; [] |289| 
     672                                                      ; [] |289| 
     673            ;* --------------------------------------------------------------------------*
     674 0000b8       $C$L17:    
     675                    .dwpsn  file "../MSP430F5xx_6xx/ucs.c",line 265,column 9,is_stmt,isa 0
     676 0000b8 4A4E          MOV.B     r10,r14               ; [] |265| 
     677 0000ba 430F          MOV.W     #0,r15                ; [] |265| 
     678 0000bc 403C          MOV.W     #32768,r12            ; [] |265| 
         0000be 8000 
     679 0000c0 430D          MOV.W     #0,r13                ; [] |265| 
     680            $C$DW$37        .dwtag  DW_TAG_TI_branch
     681                    .dwattr $C$DW$37, DW_AT_low_pc(0x00)
     682                    .dwattr $C$DW$37, DW_AT_name("__mspabi_divli")
     683                    .dwattr $C$DW$37, DW_AT_TI_call
     684            
     685 0000c2 13B0!         CALLA     #__mspabi_divli       ; [] |265| 
         0000c4 0000 
     686                                                      ; [] |265| 
     687                    .dwpsn  file "../MSP430F5xx_6xx/ucs.c",line 267,column 9,is_stmt,isa 0
     688 0000c6 3C09          JMP       $C$L19                ; [] |267| 
     689                                                      ; [] |267| 
     690            ;* --------------------------------------------------------------------------*
     691 0000c8       $C$L18:    
     692                    .dwpsn  file "../MSP430F5xx_6xx/ucs.c",line 261,column 9,is_stmt,isa 0
     693 0000c8 4A4D          MOV.B     r10,r13               ; [] |261| 
     694 0000ca 403C          MOV.W     #10000,r12            ; [] |261| 
         0000cc 2710 
     695            $C$DW$38        .dwtag  DW_TAG_TI_branch
     696                    .dwattr $C$DW$38, DW_AT_low_pc(0x00)
     697                    .dwattr $C$DW$38, DW_AT_name("__mspabi_divi")
     698                    .dwattr $C$DW$38, DW_AT_TI_call
     699            
MSP430 Assembler PC v15.12.3 Wed Oct 12 11:20:24 2016

Tools Copyright (c) 2003-2015 Texas Instruments Incorporated
C:\Users\LokBok\AppData\Local\Temp\134442                            PAGE   15

     700 0000ce 13B0!         CALLA     #__mspabi_divi        ; [] |261| 
         0000d0 0000 
     701                                                      ; [] |261| 
     702 0000d2 B03C          BIT.W     #32768,r12            ; [] |261| 
         0000d4 8000 
     703 0000d6 7D0D          SUBC.W    r13,r13               ; [] |261| 
     704 0000d8 E33D          INV.W     r13                   ; [] |261| 
     705            ;* --------------------------------------------------------------------------*
     706 0000da       $C$L19:    
     707                    .dwpsn  file "../MSP430F5xx_6xx/ucs.c",line 292,column 5,is_stmt,isa 0
     708                    .dwpsn  file "../MSP430F5xx_6xx/ucs.c",line 293,column 1,is_stmt,isa 0
     709 0000da 160A          POPM.A    #1,r10                ; [] 
     710                    .dwcfi  restore_reg, 10
     711                    .dwcfi  cfa_offset, 4
     712            $C$DW$39        .dwtag  DW_TAG_TI_branch
     713                    .dwattr $C$DW$39, DW_AT_low_pc(0x00)
     714                    .dwattr $C$DW$39, DW_AT_TI_return
     715            
     716 0000dc 0110          RETA      ; [] 
     717                    ; [] 
     718                    .dwattr $C$DW$24, DW_AT_TI_end_file("../MSP430F5xx_6xx/ucs.c")
     719                    .dwattr $C$DW$24, DW_AT_TI_end_line(0x125)
     720                    .dwattr $C$DW$24, DW_AT_TI_end_column(0x01)
     721                    .dwendentry
     722                    .dwendtag $C$DW$24
     723            
     724 000000               .sect   ".text:UCS_setExternalClockSource"
     725                    .clink
     726                    .global UCS_setExternalClockSource
     727            
     728            $C$DW$40        .dwtag  DW_TAG_subprogram
     729                    .dwattr $C$DW$40, DW_AT_name("UCS_setExternalClockSource")
     730                    .dwattr $C$DW$40, DW_AT_low_pc(UCS_setExternalClockSource)
     731                    .dwattr $C$DW$40, DW_AT_high_pc(0x00)
     732                    .dwattr $C$DW$40, DW_AT_TI_symbol_name("UCS_setExternalClockSource")
     733                    .dwattr $C$DW$40, DW_AT_external
     734                    .dwattr $C$DW$40, DW_AT_TI_begin_file("../MSP430F5xx_6xx/ucs.c")
     735                    .dwattr $C$DW$40, DW_AT_TI_begin_line(0x127)
     736                    .dwattr $C$DW$40, DW_AT_TI_begin_column(0x06)
     737                    .dwattr $C$DW$40, DW_AT_decl_file("../MSP430F5xx_6xx/ucs.c")
     738                    .dwattr $C$DW$40, DW_AT_decl_line(0x127)
     739                    .dwattr $C$DW$40, DW_AT_decl_column(0x06)
     740                    .dwattr $C$DW$40, DW_AT_TI_max_frame_size(0x04)
     741                    .dwpsn  file "../MSP430F5xx_6xx/ucs.c",line 297,column 1,is_stmt,address UCS_setExternalClockS
     742            
     743                    .dwfde $C$DW$CIE, UCS_setExternalClockSource
     744            $C$DW$41        .dwtag  DW_TAG_formal_parameter
     745                    .dwattr $C$DW$41, DW_AT_name("XT1CLK_frequency")
     746                    .dwattr $C$DW$41, DW_AT_TI_symbol_name("XT1CLK_frequency")
     747                    .dwattr $C$DW$41, DW_AT_type(*$C$DW$T$20)
     748                    .dwattr $C$DW$41, DW_AT_location[DW_OP_reg12 DW_OP_piece 2 DW_OP_reg13 DW_OP_piece 2]
     749            
     750            $C$DW$42        .dwtag  DW_TAG_formal_parameter
     751                    .dwattr $C$DW$42, DW_AT_name("XT2CLK_frequency")
     752                    .dwattr $C$DW$42, DW_AT_TI_symbol_name("XT2CLK_frequency")
MSP430 Assembler PC v15.12.3 Wed Oct 12 11:20:24 2016

Tools Copyright (c) 2003-2015 Texas Instruments Incorporated
C:\Users\LokBok\AppData\Local\Temp\134442                            PAGE   16

     753                    .dwattr $C$DW$42, DW_AT_type(*$C$DW$T$20)
     754                    .dwattr $C$DW$42, DW_AT_location[DW_OP_reg14 DW_OP_piece 2 DW_OP_reg15 DW_OP_piece 2]
     755            
     756            
     757            ;*****************************************************************************
     758            ;* FUNCTION NAME: UCS_setExternalClockSource                                 *
     759            ;*                                                                           *
     760            ;*   Regs Modified     : SP                                                  *
     761            ;*   Regs Used         : SP,r12,r13,r14,r15                                  *
     762            ;*   Local Frame Size  : 0 Args + 0 Auto + 0 Save = 0 byte                   *
     763            ;*****************************************************************************
     764 000000       UCS_setExternalClockSource:
     765            ;* --------------------------------------------------------------------------*
     766                    .dwcfi  cfa_offset, 4
     767                    .dwcfi  save_reg_to_mem, 16, -4
     768            ;* r12   assigned to XT1CLK_frequency
     769            $C$DW$43        .dwtag  DW_TAG_variable
     770                    .dwattr $C$DW$43, DW_AT_name("XT1CLK_frequency")
     771                    .dwattr $C$DW$43, DW_AT_TI_symbol_name("XT1CLK_frequency")
     772                    .dwattr $C$DW$43, DW_AT_type(*$C$DW$T$20)
     773                    .dwattr $C$DW$43, DW_AT_location[DW_OP_reg12 DW_OP_piece 2 DW_OP_reg13 DW_OP_piece 2]
     774            
     775            ;* r14   assigned to XT2CLK_frequency
     776            $C$DW$44        .dwtag  DW_TAG_variable
     777                    .dwattr $C$DW$44, DW_AT_name("XT2CLK_frequency")
     778                    .dwattr $C$DW$44, DW_AT_TI_symbol_name("XT2CLK_frequency")
     779                    .dwattr $C$DW$44, DW_AT_type(*$C$DW$T$20)
     780                    .dwattr $C$DW$44, DW_AT_location[DW_OP_reg14 DW_OP_piece 2 DW_OP_reg15 DW_OP_piece 2]
     781            
     782                    .dwpsn  file "../MSP430F5xx_6xx/ucs.c",line 298,column 5,is_stmt,isa 0
     783 000000 4C82          MOV.W     r12,&privateXT1ClockFrequency+0 ; [] |298| 
         000002 0000!
     784 000004 4D82          MOV.W     r13,&privateXT1ClockFrequency+2 ; [] |298| 
         000006 0002!
     785                    .dwpsn  file "../MSP430F5xx_6xx/ucs.c",line 299,column 5,is_stmt,isa 0
     786 000008 4E82          MOV.W     r14,&privateXT2ClockFrequency+0 ; [] |299| 
         00000a 0000!
     787 00000c 4F82          MOV.W     r15,&privateXT2ClockFrequency+2 ; [] |299| 
         00000e 0002!
     788                    .dwpsn  file "../MSP430F5xx_6xx/ucs.c",line 300,column 1,is_stmt,isa 0
     789            $C$DW$45        .dwtag  DW_TAG_TI_branch
     790                    .dwattr $C$DW$45, DW_AT_low_pc(0x00)
     791                    .dwattr $C$DW$45, DW_AT_TI_return
     792            
     793 000010 0110          RETA      ; [] 
     794                    ; [] 
     795                    .dwattr $C$DW$40, DW_AT_TI_end_file("../MSP430F5xx_6xx/ucs.c")
     796                    .dwattr $C$DW$40, DW_AT_TI_end_line(0x12c)
     797                    .dwattr $C$DW$40, DW_AT_TI_end_column(0x01)
     798                    .dwendentry
     799                    .dwendtag $C$DW$40
     800            
     801 000000               .sect   ".text:UCS_initClockSignal"
     802                    .clink
     803                    .global UCS_initClockSignal
MSP430 Assembler PC v15.12.3 Wed Oct 12 11:20:24 2016

Tools Copyright (c) 2003-2015 Texas Instruments Incorporated
C:\Users\LokBok\AppData\Local\Temp\134442                            PAGE   17

     804            
     805            $C$DW$46        .dwtag  DW_TAG_subprogram
     806                    .dwattr $C$DW$46, DW_AT_name("UCS_initClockSignal")
     807                    .dwattr $C$DW$46, DW_AT_low_pc(UCS_initClockSignal)
     808                    .dwattr $C$DW$46, DW_AT_high_pc(0x00)
     809                    .dwattr $C$DW$46, DW_AT_TI_symbol_name("UCS_initClockSignal")
     810                    .dwattr $C$DW$46, DW_AT_external
     811                    .dwattr $C$DW$46, DW_AT_TI_begin_file("../MSP430F5xx_6xx/ucs.c")
     812                    .dwattr $C$DW$46, DW_AT_TI_begin_line(0x12e)
     813                    .dwattr $C$DW$46, DW_AT_TI_begin_column(0x06)
     814                    .dwattr $C$DW$46, DW_AT_decl_file("../MSP430F5xx_6xx/ucs.c")
     815                    .dwattr $C$DW$46, DW_AT_decl_line(0x12e)
     816                    .dwattr $C$DW$46, DW_AT_decl_column(0x06)
     817                    .dwattr $C$DW$46, DW_AT_TI_max_frame_size(0x04)
     818                    .dwpsn  file "../MSP430F5xx_6xx/ucs.c",line 305,column 1,is_stmt,address UCS_initClockSignal,i
     819            
     820                    .dwfde $C$DW$CIE, UCS_initClockSignal
     821            $C$DW$47        .dwtag  DW_TAG_formal_parameter
     822                    .dwattr $C$DW$47, DW_AT_name("selectedClockSignal")
     823                    .dwattr $C$DW$47, DW_AT_TI_symbol_name("selectedClockSignal")
     824                    .dwattr $C$DW$47, DW_AT_type(*$C$DW$T$22)
     825                    .dwattr $C$DW$47, DW_AT_location[DW_OP_reg12]
     826            
     827            $C$DW$48        .dwtag  DW_TAG_formal_parameter
     828                    .dwattr $C$DW$48, DW_AT_name("clockSource")
     829                    .dwattr $C$DW$48, DW_AT_TI_symbol_name("clockSource")
     830                    .dwattr $C$DW$48, DW_AT_type(*$C$DW$T$23)
     831                    .dwattr $C$DW$48, DW_AT_location[DW_OP_reg13]
     832            
     833            $C$DW$49        .dwtag  DW_TAG_formal_parameter
     834                    .dwattr $C$DW$49, DW_AT_name("clockSourceDivider")
     835                    .dwattr $C$DW$49, DW_AT_TI_symbol_name("clockSourceDivider")
     836                    .dwattr $C$DW$49, DW_AT_type(*$C$DW$T$23)
     837                    .dwattr $C$DW$49, DW_AT_location[DW_OP_reg14]
     838            
     839            
     840            ;*****************************************************************************
     841            ;* FUNCTION NAME: UCS_initClockSignal                                        *
     842            ;*                                                                           *
     843            ;*   Regs Modified     : SP,SR,r11,r13,r14,r15                               *
     844            ;*   Regs Used         : SP,SR,r11,r12,r13,r14,r15                           *
     845            ;*   Local Frame Size  : 0 Args + 0 Auto + 0 Save = 0 byte                   *
     846            ;*****************************************************************************
     847 000000       UCS_initClockSignal:
     848            ;* --------------------------------------------------------------------------*
     849                    .dwcfi  cfa_offset, 4
     850                    .dwcfi  save_reg_to_mem, 16, -4
     851            ;* r15   assigned to selectedClockSignal
     852            $C$DW$50        .dwtag  DW_TAG_variable
     853                    .dwattr $C$DW$50, DW_AT_name("selectedClockSignal")
     854                    .dwattr $C$DW$50, DW_AT_TI_symbol_name("selectedClockSignal")
     855                    .dwattr $C$DW$50, DW_AT_type(*$C$DW$T$22)
     856                    .dwattr $C$DW$50, DW_AT_location[DW_OP_reg15]
     857            
     858            ;* r13   assigned to clockSource
MSP430 Assembler PC v15.12.3 Wed Oct 12 11:20:24 2016

Tools Copyright (c) 2003-2015 Texas Instruments Incorporated
C:\Users\LokBok\AppData\Local\Temp\134442                            PAGE   18

     859            $C$DW$51        .dwtag  DW_TAG_variable
     860                    .dwattr $C$DW$51, DW_AT_name("clockSource")
     861                    .dwattr $C$DW$51, DW_AT_TI_symbol_name("clockSource")
     862                    .dwattr $C$DW$51, DW_AT_type(*$C$DW$T$23)
     863                    .dwattr $C$DW$51, DW_AT_location[DW_OP_reg13]
     864            
     865            ;* r14   assigned to clockSourceDivider
     866            $C$DW$52        .dwtag  DW_TAG_variable
     867                    .dwattr $C$DW$52, DW_AT_name("clockSourceDivider")
     868                    .dwattr $C$DW$52, DW_AT_TI_symbol_name("clockSourceDivider")
     869                    .dwattr $C$DW$52, DW_AT_type(*$C$DW$T$23)
     870                    .dwattr $C$DW$52, DW_AT_location[DW_OP_reg14]
     871            
     872            ;* r11   assigned to temp
     873            $C$DW$53        .dwtag  DW_TAG_variable
     874                    .dwattr $C$DW$53, DW_AT_name("temp")
     875                    .dwattr $C$DW$53, DW_AT_TI_symbol_name("temp")
     876                    .dwattr $C$DW$53, DW_AT_type(*$C$DW$T$23)
     877                    .dwattr $C$DW$53, DW_AT_location[DW_OP_reg11]
     878            
     879 000000 0CCF          MOVA      r12,r15               ; [] |305| 
     880                    .dwpsn  file "../MSP430F5xx_6xx/ucs.c",line 324,column 19,is_stmt,isa 0
     881 000002 421B          MOV.W     &0x16a,r11            ; [] |324| 
         000004 016A 
     882                    .dwpsn  file "../MSP430F5xx_6xx/ucs.c",line 325,column 5,is_stmt,isa 0
     883 000006 4F4F          MOV.B     r15,r15               ; [] |325| 
     884 000008 831F          SUB.W     #1,r15                ; [] |325| 
     885 00000a 243E          JEQ       $C$L24                ; [] |325| 
     886                                                      ; [] |325| 
     887            ;* --------------------------------------------------------------------------*
     888 00000c 831F          SUB.W     #1,r15                ; [] |325| 
     889 00000e 2431          JEQ       $C$L23                ; [] |325| 
     890                                                      ; [] |325| 
     891            ;* --------------------------------------------------------------------------*
     892 000010 832F          SUB.W     #2,r15                ; [] |325| 
     893 000012 2422          JEQ       $C$L22                ; [] |325| 
     894                                                      ; [] |325| 
     895            ;* --------------------------------------------------------------------------*
     896 000014 822F          SUB.W     #4,r15                ; [] |325| 
     897 000016 2046          JNE       $C$L25                ; [] |325| 
     898                                                      ; [] |325| 
     899            ;* --------------------------------------------------------------------------*
     900                    .dwpsn  file "../MSP430F5xx_6xx/ucs.c",line 351,column 9,is_stmt,isa 0
     901 000018 F0F2          AND.B     #143,&0x166           ; [] |351| 
         00001a 008F 
         00001c 0166 
     902                    .dwpsn  file "../MSP430F5xx_6xx/ucs.c",line 354,column 9,is_stmt,isa 0
     903 00001e 0E5D          RLAM.W    #4,r13                ; [] |354| 
     904 000020 DDC2          OR.B      r13,&0x166            ; [] |354| 
         000022 0166 
     905                    .dwpsn  file "../MSP430F5xx_6xx/ucs.c",line 356,column 9,is_stmt,isa 0
     906 000024 425B          MOV.B     &0x166,r11            ; [] |356| 
         000026 0166 
     907                    .dwpsn  file "../MSP430F5xx_6xx/ucs.c",line 359,column 9,is_stmt,isa 0
     908 000028 0ECF          MOVA      r14,r15               ; [] |359| 
MSP430 Assembler PC v15.12.3 Wed Oct 12 11:20:24 2016

Tools Copyright (c) 2003-2015 Texas Instruments Incorporated
C:\Users\LokBok\AppData\Local\Temp\134442                            PAGE   19

     909 00002a 822F          SUB.W     #4,r15                ; [] |359| 
     910 00002c 240E          JEQ       $C$L21                ; [] |359| 
     911                                                      ; [] |359| 
     912            ;* --------------------------------------------------------------------------*
     913 00002e 831F          SUB.W     #1,r15                ; [] |359| 
     914 000030 2406          JEQ       $C$L20                ; [] |359| 
     915                                                      ; [] |359| 
     916            ;* --------------------------------------------------------------------------*
     917                    .dwpsn  file "../MSP430F5xx_6xx/ucs.c",line 370,column 13,is_stmt,isa 0
     918 000032 F07B          AND.B     #248,r11              ; [] |370| 
         000034 00F8 
     919 000036 DB4E          OR.B      r11,r14               ; [] |370| 
     920 000038 4EC2          MOV.B     r14,&0x166            ; [] |370| 
         00003a 0166 
     921                    .dwpsn  file "../MSP430F5xx_6xx/ucs.c",line 372,column 13,is_stmt,isa 0
     922 00003c 3C33          JMP       $C$L25                ; [] |372| 
     923                                                      ; [] |372| 
     924            ;* --------------------------------------------------------------------------*
     925 00003e       $C$L20:    
     926                    .dwpsn  file "../MSP430F5xx_6xx/ucs.c",line 362,column 13,is_stmt,isa 0
     927 00003e F07B          AND.B     #248,r11              ; [] |362| 
         000040 00F8 
     928 000042 D26B          OR.B      #4,r11                ; [] |362| 
     929 000044 4BC2          MOV.B     r11,&0x166            ; [] |362| 
         000046 0166 
     930                    .dwpsn  file "../MSP430F5xx_6xx/ucs.c",line 364,column 13,is_stmt,isa 0
     931 000048 3C2D          JMP       $C$L25                ; [] |364| 
     932                                                      ; [] |364| 
     933            ;* --------------------------------------------------------------------------*
     934 00004a       $C$L21:    
     935                    .dwpsn  file "../MSP430F5xx_6xx/ucs.c",line 366,column 13,is_stmt,isa 0
     936 00004a F07B          AND.B     #248,r11              ; [] |366| 
         00004c 00F8 
     937 00004e D07B          OR.B      #5,r11                ; [] |366| 
         000050 0005 
     938 000052 4BC2          MOV.B     r11,&0x166            ; [] |366| 
         000054 0166 
     939                    .dwpsn  file "../MSP430F5xx_6xx/ucs.c",line 368,column 13,is_stmt,isa 0
     940 000056 3C26          JMP       $C$L25                ; [] |368| 
     941                                                      ; [] |368| 
     942            ;* --------------------------------------------------------------------------*
     943 000058       $C$L22:    
     944                    .dwpsn  file "../MSP430F5xx_6xx/ucs.c",line 336,column 9,is_stmt,isa 0
     945 000058 F0B2          AND.W     #65423,&0x168         ; [] |336| 
         00005a FF8F 
         00005c 0168 
     946                    .dwpsn  file "../MSP430F5xx_6xx/ucs.c",line 338,column 9,is_stmt,isa 0
     947 00005e 0E5D          RLAM.W    #4,r13                ; [] |338| 
     948 000060 DD82          OR.W      r13,&0x168            ; [] |338| 
         000062 0168 
     949                    .dwpsn  file "../MSP430F5xx_6xx/ucs.c",line 341,column 9,is_stmt,isa 0
     950 000064 0E5E          RLAM.W    #4,r14                ; [] |341| 
     951 000066 F03B          AND.W     #65423,r11            ; [] |341| 
         000068 FF8F 
     952 00006a DB0E          OR.W      r11,r14               ; [] |341| 
MSP430 Assembler PC v15.12.3 Wed Oct 12 11:20:24 2016

Tools Copyright (c) 2003-2015 Texas Instruments Incorporated
C:\Users\LokBok\AppData\Local\Temp\134442                            PAGE   20

     953 00006c 4E82          MOV.W     r14,&0x16a            ; [] |341| 
         00006e 016A 
     954                    .dwpsn  file "../MSP430F5xx_6xx/ucs.c",line 342,column 9,is_stmt,isa 0
     955 000070 3C19          JMP       $C$L25                ; [] |342| 
     956                                                      ; [] |342| 
     957            ;* --------------------------------------------------------------------------*
     958 000072       $C$L23:    
     959                    .dwpsn  file "../MSP430F5xx_6xx/ucs.c",line 344,column 9,is_stmt,isa 0
     960 000072 F0B2          AND.W     #65528,&0x168         ; [] |344| 
         000074 FFF8 
         000076 0168 
     961                    .dwpsn  file "../MSP430F5xx_6xx/ucs.c",line 345,column 9,is_stmt,isa 0
     962 000078 DD82          OR.W      r13,&0x168            ; [] |345| 
         00007a 0168 
     963                    .dwpsn  file "../MSP430F5xx_6xx/ucs.c",line 347,column 9,is_stmt,isa 0
     964 00007c F03B          AND.W     #65528,r11            ; [] |347| 
         00007e FFF8 
     965 000080 DB0E          OR.W      r11,r14               ; [] |347| 
     966 000082 4E82          MOV.W     r14,&0x16a            ; [] |347| 
         000084 016A 
     967                    .dwpsn  file "../MSP430F5xx_6xx/ucs.c",line 348,column 9,is_stmt,isa 0
     968 000086 3C0E          JMP       $C$L25                ; [] |348| 
     969                                                      ; [] |348| 
     970            ;* --------------------------------------------------------------------------*
     971 000088       $C$L24:    
     972                    .dwpsn  file "../MSP430F5xx_6xx/ucs.c",line 328,column 9,is_stmt,isa 0
     973 000088 F0B2          AND.W     #63743,&0x168         ; [] |328| 
         00008a F8FF 
         00008c 0168 
     974                    .dwpsn  file "../MSP430F5xx_6xx/ucs.c",line 330,column 9,is_stmt,isa 0
     975 00008e 4D4D          MOV.B     r13,r13               ; [] |330| 
     976 000090 108D          SWPB      r13                   ; [] |330| 
     977 000092 DD82          OR.W      r13,&0x168            ; [] |330| 
         000094 0168 
     978                    .dwpsn  file "../MSP430F5xx_6xx/ucs.c",line 333,column 9,is_stmt,isa 0
     979 000096 4E4E          MOV.B     r14,r14               ; [] |333| 
     980 000098 108E          SWPB      r14                   ; [] |333| 
     981 00009a F03B          AND.W     #63743,r11            ; [] |333| 
         00009c F8FF 
     982 00009e DB0E          OR.W      r11,r14               ; [] |333| 
     983 0000a0 4E82          MOV.W     r14,&0x16a            ; [] |333| 
         0000a2 016A 
     984            ;* --------------------------------------------------------------------------*
     985 0000a4       $C$L25:    
     986                    .dwpsn  file "../MSP430F5xx_6xx/ucs.c",line 377,column 1,is_stmt,isa 0
     987            $C$DW$54        .dwtag  DW_TAG_TI_branch
     988                    .dwattr $C$DW$54, DW_AT_low_pc(0x00)
     989                    .dwattr $C$DW$54, DW_AT_TI_return
     990            
     991 0000a4 0110          RETA      ; [] 
     992                    ; [] 
     993                    .dwattr $C$DW$46, DW_AT_TI_end_file("../MSP430F5xx_6xx/ucs.c")
     994                    .dwattr $C$DW$46, DW_AT_TI_end_line(0x179)
     995                    .dwattr $C$DW$46, DW_AT_TI_end_column(0x01)
     996                    .dwendentry
MSP430 Assembler PC v15.12.3 Wed Oct 12 11:20:24 2016

Tools Copyright (c) 2003-2015 Texas Instruments Incorporated
C:\Users\LokBok\AppData\Local\Temp\134442                            PAGE   21

     997                    .dwendtag $C$DW$46
     998            
     999 000000               .sect   ".text:UCS_turnOnLFXT1"
    1000                    .clink
    1001                    .global UCS_turnOnLFXT1
    1002            
    1003            $C$DW$55        .dwtag  DW_TAG_subprogram
    1004                    .dwattr $C$DW$55, DW_AT_name("UCS_turnOnLFXT1")
    1005                    .dwattr $C$DW$55, DW_AT_low_pc(UCS_turnOnLFXT1)
    1006                    .dwattr $C$DW$55, DW_AT_high_pc(0x00)
    1007                    .dwattr $C$DW$55, DW_AT_TI_symbol_name("UCS_turnOnLFXT1")
    1008                    .dwattr $C$DW$55, DW_AT_external
    1009                    .dwattr $C$DW$55, DW_AT_TI_begin_file("../MSP430F5xx_6xx/ucs.c")
    1010                    .dwattr $C$DW$55, DW_AT_TI_begin_line(0x17b)
    1011                    .dwattr $C$DW$55, DW_AT_TI_begin_column(0x06)
    1012                    .dwattr $C$DW$55, DW_AT_decl_file("../MSP430F5xx_6xx/ucs.c")
    1013                    .dwattr $C$DW$55, DW_AT_decl_line(0x17b)
    1014                    .dwattr $C$DW$55, DW_AT_decl_column(0x06)
    1015                    .dwattr $C$DW$55, DW_AT_TI_max_frame_size(0x04)
    1016                    .dwpsn  file "../MSP430F5xx_6xx/ucs.c",line 381,column 1,is_stmt,address UCS_turnOnLFXT1,isa 0
    1017            
    1018                    .dwfde $C$DW$CIE, UCS_turnOnLFXT1
    1019            $C$DW$56        .dwtag  DW_TAG_formal_parameter
    1020                    .dwattr $C$DW$56, DW_AT_name("xt1drive")
    1021                    .dwattr $C$DW$56, DW_AT_TI_symbol_name("xt1drive")
    1022                    .dwattr $C$DW$56, DW_AT_type(*$C$DW$T$23)
    1023                    .dwattr $C$DW$56, DW_AT_location[DW_OP_reg12]
    1024            
    1025            $C$DW$57        .dwtag  DW_TAG_formal_parameter
    1026                    .dwattr $C$DW$57, DW_AT_name("xcap")
    1027                    .dwattr $C$DW$57, DW_AT_TI_symbol_name("xcap")
    1028                    .dwattr $C$DW$57, DW_AT_type(*$C$DW$T$22)
    1029                    .dwattr $C$DW$57, DW_AT_location[DW_OP_reg13]
    1030            
    1031            
    1032            ;*****************************************************************************
    1033            ;* FUNCTION NAME: UCS_turnOnLFXT1                                            *
    1034            ;*                                                                           *
    1035            ;*   Regs Modified     : SP,SR,r12,r13,r15                                   *
    1036            ;*   Regs Used         : SP,SR,r12,r13,r15                                   *
    1037            ;*   Local Frame Size  : 0 Args + 0 Auto + 0 Save = 0 byte                   *
    1038            ;*****************************************************************************
    1039 000000       UCS_turnOnLFXT1:
    1040            ;* --------------------------------------------------------------------------*
    1041                    .dwcfi  cfa_offset, 4
    1042                    .dwcfi  save_reg_to_mem, 16, -4
    1043            ;* r15   assigned to xt1drive
    1044            $C$DW$58        .dwtag  DW_TAG_variable
    1045                    .dwattr $C$DW$58, DW_AT_name("xt1drive")
    1046                    .dwattr $C$DW$58, DW_AT_TI_symbol_name("xt1drive")
    1047                    .dwattr $C$DW$58, DW_AT_type(*$C$DW$T$23)
    1048                    .dwattr $C$DW$58, DW_AT_location[DW_OP_reg15]
    1049            
    1050            ;* r13   assigned to xcap
    1051            $C$DW$59        .dwtag  DW_TAG_variable
MSP430 Assembler PC v15.12.3 Wed Oct 12 11:20:24 2016

Tools Copyright (c) 2003-2015 Texas Instruments Incorporated
C:\Users\LokBok\AppData\Local\Temp\134442                            PAGE   22

    1052                    .dwattr $C$DW$59, DW_AT_name("xcap")
    1053                    .dwattr $C$DW$59, DW_AT_TI_symbol_name("xcap")
    1054                    .dwattr $C$DW$59, DW_AT_type(*$C$DW$T$22)
    1055                    .dwattr $C$DW$59, DW_AT_location[DW_OP_reg13]
    1056            
    1057 000000 0CCF          MOVA      r12,r15               ; [] |381| 
    1058                    .dwpsn  file "../MSP430F5xx_6xx/ucs.c",line 393,column 5,is_stmt,isa 0
    1059 000002 C392          BIC.W     #1,&0x16c             ; [] |393| 
         000004 016C 
    1060                    .dwpsn  file "../MSP430F5xx_6xx/ucs.c",line 396,column 5,is_stmt,isa 0
    1061 000006 D0B2          OR.W      #192,&0x16c           ; [] |396| 
         000008 00C0 
         00000a 016C 
    1062                    .dwpsn  file "../MSP430F5xx_6xx/ucs.c",line 399,column 5,is_stmt,isa 0
    1063 00000c F0B2          AND.W     #65475,&0x16c         ; [] |399| 
         00000e FFC3 
         000010 016C 
    1064                    .dwpsn  file "../MSP430F5xx_6xx/ucs.c",line 400,column 5,is_stmt,isa 0
    1065 000012 4D4D          MOV.B     r13,r13               ; [] |400| 
    1066 000014 DD82          OR.W      r13,&0x16c            ; [] |400| 
         000016 016C 
    1067                    .dwpsn  file "../MSP430F5xx_6xx/ucs.c",line 402,column 5,is_stmt,isa 0
    1068 000018 3C04          JMP       $C$L27                ; [] |402| 
    1069                                                      ; [] |402| 
    1070            ;* --------------------------------------------------------------------------*
    1071 00001a       $C$L26:    
    1072                    .dwpsn  file "../MSP430F5xx_6xx/ucs.c",line 405,column 9,is_stmt,isa 0
    1073 00001a C3E2          BIC.B     #2,&0x16e             ; [] |405| 
         00001c 016E 
    1074                    .dwpsn  file "../MSP430F5xx_6xx/ucs.c",line 408,column 9,is_stmt,isa 0
    1075 00001e C3E2          BIC.B     #2,&0x102             ; [] |408| 
         000020 0102 
    1076            ;* --------------------------------------------------------------------------*
    1077            ;*   BEGIN LOOP $C$L27
    1078            ;* --------------------------------------------------------------------------*
    1079 000022       $C$L27:    
    1080                    .dwpsn  file "../MSP430F5xx_6xx/ucs.c",line 402,column 5,is_stmt,isa 0
    1081 000022 B3E2          BIT.B     #2,&0x16e             ; [] |402| 
         000024 016E 
    1082 000026 23F9          JNE       $C$L26                ; [] |402| 
    1083                                                      ; [] |402| 
    1084            ;* --------------------------------------------------------------------------*
    1085                    .dwpsn  file "../MSP430F5xx_6xx/ucs.c",line 412,column 5,is_stmt,isa 0
    1086 000028 403C          MOV.W     #65343,r12            ; [] |412| 
         00002a FF3F 
    1087 00002c F21C          AND.W     &0x16c,r12            ; [] |412| 
         00002e 016C 
    1088 000030 DF0C          OR.W      r15,r12               ; [] |412| 
    1089 000032 4C82          MOV.W     r12,&0x16c            ; [] |412| 
         000034 016C 
    1090                    .dwpsn  file "../MSP430F5xx_6xx/ucs.c",line 416,column 1,is_stmt,isa 0
    1091            $C$DW$60        .dwtag  DW_TAG_TI_branch
    1092                    .dwattr $C$DW$60, DW_AT_low_pc(0x00)
    1093                    .dwattr $C$DW$60, DW_AT_TI_return
    1094            
MSP430 Assembler PC v15.12.3 Wed Oct 12 11:20:24 2016

Tools Copyright (c) 2003-2015 Texas Instruments Incorporated
C:\Users\LokBok\AppData\Local\Temp\134442                            PAGE   23

    1095 000036 0110          RETA      ; [] 
    1096                    ; [] 
    1097                    .dwattr $C$DW$55, DW_AT_TI_end_file("../MSP430F5xx_6xx/ucs.c")
    1098                    .dwattr $C$DW$55, DW_AT_TI_end_line(0x1a0)
    1099                    .dwattr $C$DW$55, DW_AT_TI_end_column(0x01)
    1100                    .dwendentry
    1101                    .dwendtag $C$DW$55
    1102            
    1103 000000               .sect   ".text:UCS_turnOnHFXT1"
    1104                    .clink
    1105                    .global UCS_turnOnHFXT1
    1106            
    1107            $C$DW$61        .dwtag  DW_TAG_subprogram
    1108                    .dwattr $C$DW$61, DW_AT_name("UCS_turnOnHFXT1")
    1109                    .dwattr $C$DW$61, DW_AT_low_pc(UCS_turnOnHFXT1)
    1110                    .dwattr $C$DW$61, DW_AT_high_pc(0x00)
    1111                    .dwattr $C$DW$61, DW_AT_TI_symbol_name("UCS_turnOnHFXT1")
    1112                    .dwattr $C$DW$61, DW_AT_external
    1113                    .dwattr $C$DW$61, DW_AT_TI_begin_file("../MSP430F5xx_6xx/ucs.c")
    1114                    .dwattr $C$DW$61, DW_AT_TI_begin_line(0x1a2)
    1115                    .dwattr $C$DW$61, DW_AT_TI_begin_column(0x06)
    1116                    .dwattr $C$DW$61, DW_AT_decl_file("../MSP430F5xx_6xx/ucs.c")
    1117                    .dwattr $C$DW$61, DW_AT_decl_line(0x1a2)
    1118                    .dwattr $C$DW$61, DW_AT_decl_column(0x06)
    1119                    .dwattr $C$DW$61, DW_AT_TI_max_frame_size(0x04)
    1120                    .dwpsn  file "../MSP430F5xx_6xx/ucs.c",line 419,column 1,is_stmt,address UCS_turnOnHFXT1,isa 0
    1121            
    1122                    .dwfde $C$DW$CIE, UCS_turnOnHFXT1
    1123            $C$DW$62        .dwtag  DW_TAG_formal_parameter
    1124                    .dwattr $C$DW$62, DW_AT_name("xt1drive")
    1125                    .dwattr $C$DW$62, DW_AT_TI_symbol_name("xt1drive")
    1126                    .dwattr $C$DW$62, DW_AT_type(*$C$DW$T$23)
    1127                    .dwattr $C$DW$62, DW_AT_location[DW_OP_reg12]
    1128            
    1129            
    1130            ;*****************************************************************************
    1131            ;* FUNCTION NAME: UCS_turnOnHFXT1                                            *
    1132            ;*                                                                           *
    1133            ;*   Regs Modified     : SP,SR,r15                                           *
    1134            ;*   Regs Used         : SP,SR,r12,r15                                       *
    1135            ;*   Local Frame Size  : 0 Args + 0 Auto + 0 Save = 0 byte                   *
    1136            ;*****************************************************************************
    1137 000000       UCS_turnOnHFXT1:
    1138            ;* --------------------------------------------------------------------------*
    1139                    .dwcfi  cfa_offset, 4
    1140                    .dwcfi  save_reg_to_mem, 16, -4
    1141            ;* r12   assigned to xt1drive
    1142            $C$DW$63        .dwtag  DW_TAG_variable
    1143                    .dwattr $C$DW$63, DW_AT_name("xt1drive")
    1144                    .dwattr $C$DW$63, DW_AT_TI_symbol_name("xt1drive")
    1145                    .dwattr $C$DW$63, DW_AT_type(*$C$DW$T$23)
    1146                    .dwattr $C$DW$63, DW_AT_location[DW_OP_reg12]
    1147            
    1148                    .dwpsn  file "../MSP430F5xx_6xx/ucs.c",line 421,column 5,is_stmt,isa 0
    1149 000000 C392          BIC.W     #1,&0x16c             ; [] |421| 
MSP430 Assembler PC v15.12.3 Wed Oct 12 11:20:24 2016

Tools Copyright (c) 2003-2015 Texas Instruments Incorporated
C:\Users\LokBok\AppData\Local\Temp\134442                            PAGE   24

         000002 016C 
    1150                    .dwpsn  file "../MSP430F5xx_6xx/ucs.c",line 424,column 5,is_stmt,isa 0
    1151 000004 403F          MOV.W     #192,r15              ; [] |424| 
         000006 00C0 
    1152 000008 F21F          AND.W     &0x16c,r15            ; [] |424| 
         00000a 016C 
    1153 00000c 9C0F          CMP.W     r12,r15               ; [] |424| 
    1154 00000e 2405          JEQ       $C$L28                ; [] |424| 
    1155                                                      ; [] |424| 
    1156            ;* --------------------------------------------------------------------------*
    1157                    .dwpsn  file "../MSP430F5xx_6xx/ucs.c",line 427,column 9,is_stmt,isa 0
    1158 000010 F0B2          AND.W     #65343,&0x16c         ; [] |427| 
         000012 FF3F 
         000014 016C 
    1159                    .dwpsn  file "../MSP430F5xx_6xx/ucs.c",line 430,column 9,is_stmt,isa 0
    1160 000016 DC82          OR.W      r12,&0x16c            ; [] |430| 
         000018 016C 
    1161            ;* --------------------------------------------------------------------------*
    1162 00001a       $C$L28:    
    1163                    .dwpsn  file "../MSP430F5xx_6xx/ucs.c",line 434,column 5,is_stmt,isa 0
    1164 00001a D0B2          OR.W      #32,&0x16c            ; [] |434| 
         00001c 0020 
         00001e 016C 
    1165                    .dwpsn  file "../MSP430F5xx_6xx/ucs.c",line 436,column 5,is_stmt,isa 0
    1166 000020 F0B2          AND.W     #65519,&0x16c         ; [] |436| 
         000022 FFEF 
         000024 016C 
    1167                    .dwpsn  file "../MSP430F5xx_6xx/ucs.c",line 439,column 5,is_stmt,isa 0
    1168 000026 3C04          JMP       $C$L30                ; [] |439| 
    1169                                                      ; [] |439| 
    1170            ;* --------------------------------------------------------------------------*
    1171 000028       $C$L29:    
    1172                    .dwpsn  file "../MSP430F5xx_6xx/ucs.c",line 442,column 9,is_stmt,isa 0
    1173 000028 C2E2          BIC.B     #4,&0x16e             ; [] |442| 
         00002a 016E 
    1174                    .dwpsn  file "../MSP430F5xx_6xx/ucs.c",line 445,column 9,is_stmt,isa 0
    1175 00002c C3E2          BIC.B     #2,&0x102             ; [] |445| 
         00002e 0102 
    1176            ;* --------------------------------------------------------------------------*
    1177            ;*   BEGIN LOOP $C$L30
    1178            ;* --------------------------------------------------------------------------*
    1179 000030       $C$L30:    
    1180                    .dwpsn  file "../MSP430F5xx_6xx/ucs.c",line 439,column 5,is_stmt,isa 0
    1181 000030 B2E2          BIT.B     #4,&0x16e             ; [] |439| 
         000032 016E 
    1182 000034 23F9          JNE       $C$L29                ; [] |439| 
    1183                                                      ; [] |439| 
    1184            ;* --------------------------------------------------------------------------*
    1185                    .dwpsn  file "../MSP430F5xx_6xx/ucs.c",line 447,column 1,is_stmt,isa 0
    1186            $C$DW$64        .dwtag  DW_TAG_TI_branch
    1187                    .dwattr $C$DW$64, DW_AT_low_pc(0x00)
    1188                    .dwattr $C$DW$64, DW_AT_TI_return
    1189            
    1190 000036 0110          RETA      ; [] 
    1191                    ; [] 
MSP430 Assembler PC v15.12.3 Wed Oct 12 11:20:24 2016

Tools Copyright (c) 2003-2015 Texas Instruments Incorporated
C:\Users\LokBok\AppData\Local\Temp\134442                            PAGE   25

    1192                    .dwattr $C$DW$61, DW_AT_TI_end_file("../MSP430F5xx_6xx/ucs.c")
    1193                    .dwattr $C$DW$61, DW_AT_TI_end_line(0x1bf)
    1194                    .dwattr $C$DW$61, DW_AT_TI_end_column(0x01)
    1195                    .dwendentry
    1196                    .dwendtag $C$DW$61
    1197            
    1198 000000               .sect   ".text:UCS_bypassXT1"
    1199                    .clink
    1200                    .global UCS_bypassXT1
    1201            
    1202            $C$DW$65        .dwtag  DW_TAG_subprogram
    1203                    .dwattr $C$DW$65, DW_AT_name("UCS_bypassXT1")
    1204                    .dwattr $C$DW$65, DW_AT_low_pc(UCS_bypassXT1)
    1205                    .dwattr $C$DW$65, DW_AT_high_pc(0x00)
    1206                    .dwattr $C$DW$65, DW_AT_TI_symbol_name("UCS_bypassXT1")
    1207                    .dwattr $C$DW$65, DW_AT_external
    1208                    .dwattr $C$DW$65, DW_AT_TI_begin_file("../MSP430F5xx_6xx/ucs.c")
    1209                    .dwattr $C$DW$65, DW_AT_TI_begin_line(0x1c1)
    1210                    .dwattr $C$DW$65, DW_AT_TI_begin_column(0x06)
    1211                    .dwattr $C$DW$65, DW_AT_decl_file("../MSP430F5xx_6xx/ucs.c")
    1212                    .dwattr $C$DW$65, DW_AT_decl_line(0x1c1)
    1213                    .dwattr $C$DW$65, DW_AT_decl_column(0x06)
    1214                    .dwattr $C$DW$65, DW_AT_TI_max_frame_size(0x04)
    1215                    .dwpsn  file "../MSP430F5xx_6xx/ucs.c",line 450,column 1,is_stmt,address UCS_bypassXT1,isa 0
    1216            
    1217                    .dwfde $C$DW$CIE, UCS_bypassXT1
    1218            $C$DW$66        .dwtag  DW_TAG_formal_parameter
    1219                    .dwattr $C$DW$66, DW_AT_name("highOrLowFrequency")
    1220                    .dwattr $C$DW$66, DW_AT_TI_symbol_name("highOrLowFrequency")
    1221                    .dwattr $C$DW$66, DW_AT_type(*$C$DW$T$22)
    1222                    .dwattr $C$DW$66, DW_AT_location[DW_OP_reg12]
    1223            
    1224            
    1225            ;*****************************************************************************
    1226            ;* FUNCTION NAME: UCS_bypassXT1                                              *
    1227            ;*                                                                           *
    1228            ;*   Regs Modified     : SP,SR,r15                                           *
    1229            ;*   Regs Used         : SP,SR,r12,r15                                       *
    1230            ;*   Local Frame Size  : 0 Args + 0 Auto + 0 Save = 0 byte                   *
    1231            ;*****************************************************************************
    1232 000000       UCS_bypassXT1:
    1233            ;* --------------------------------------------------------------------------*
    1234                    .dwcfi  cfa_offset, 4
    1235                    .dwcfi  save_reg_to_mem, 16, -4
    1236            ;* r12   assigned to highOrLowFrequency
    1237            $C$DW$67        .dwtag  DW_TAG_variable
    1238                    .dwattr $C$DW$67, DW_AT_name("highOrLowFrequency")
    1239                    .dwattr $C$DW$67, DW_AT_TI_symbol_name("highOrLowFrequency")
    1240                    .dwattr $C$DW$67, DW_AT_type(*$C$DW$T$22)
    1241                    .dwattr $C$DW$67, DW_AT_location[DW_OP_reg12]
    1242            
    1243                    .dwpsn  file "../MSP430F5xx_6xx/ucs.c",line 456,column 5,is_stmt,isa 0
    1244 000000 F0B2          AND.W     #65503,&0x16c         ; [] |456| 
         000002 FFDF 
         000004 016C 
MSP430 Assembler PC v15.12.3 Wed Oct 12 11:20:24 2016

Tools Copyright (c) 2003-2015 Texas Instruments Incorporated
C:\Users\LokBok\AppData\Local\Temp\134442                            PAGE   26

    1245                    .dwpsn  file "../MSP430F5xx_6xx/ucs.c",line 457,column 5,is_stmt,isa 0
    1246 000006 4C4F          MOV.B     r12,r15               ; [] |457| 
    1247 000008 DF82          OR.W      r15,&0x16c            ; [] |457| 
         00000a 016C 
    1248                    .dwpsn  file "../MSP430F5xx_6xx/ucs.c",line 460,column 5,is_stmt,isa 0
    1249 00000c D0B2          OR.W      #17,&0x16c            ; [] |460| 
         00000e 0011 
         000010 016C 
    1250                    .dwpsn  file "../MSP430F5xx_6xx/ucs.c",line 462,column 5,is_stmt,isa 0
    1251 000012 934C          TST.B     r12                   ; [] |462| 
    1252 000014 200C          JNE       $C$L33                ; [] |462| 
    1253                                                      ; [] |462| 
    1254            ;* --------------------------------------------------------------------------*
    1255            ;*   BEGIN LOOP $C$L31
    1256            ;*
    1257            ;*   Loop source line                : 464
    1258            ;*   Loop closing brace source line  : 473
    1259            ;*   Known Minimum Trip Count        : 1
    1260            ;*   Known Maximum Trip Count        : 4294967295
    1261            ;*   Known Max Trip Count Factor     : 1
    1262            ;* --------------------------------------------------------------------------*
    1263 000016       $C$L31:    
    1264                    .dwpsn  file "../MSP430F5xx_6xx/ucs.c",line 474,column 5,is_stmt,isa 0
    1265 000016 B3E2          BIT.B     #2,&0x16e             ; [] |474| 
         000018 016E 
    1266 00001a 240C          JEQ       $C$L34                ; [] |474| 
    1267                                                      ; [] |474| 
    1268            ;* --------------------------------------------------------------------------*
    1269                    .dwpsn  file "../MSP430F5xx_6xx/ucs.c",line 467,column 13,is_stmt,isa 0
    1270 00001c C3E2          BIC.B     #2,&0x16e             ; [] |467| 
         00001e 016E 
    1271                    .dwpsn  file "../MSP430F5xx_6xx/ucs.c",line 472,column 13,is_stmt,isa 0
    1272 000020 C3E2          BIC.B     #2,&0x102             ; [] |472| 
         000022 0102 
    1273 000024 3FF8          JMP       $C$L31                ; [] |472| 
    1274                                                      ; [] |472| 
    1275            ;* --------------------------------------------------------------------------*
    1276            ;* --------------------------------------------------------------------------*
    1277 000026       $C$L32:    
    1278                    .dwpsn  file "../MSP430F5xx_6xx/ucs.c",line 480,column 13,is_stmt,isa 0
    1279 000026 C2E2          BIC.B     #4,&0x16e             ; [] |480| 
         000028 016E 
    1280                    .dwpsn  file "../MSP430F5xx_6xx/ucs.c",line 485,column 13,is_stmt,isa 0
    1281 00002a C3E2          BIC.B     #2,&0x102             ; [] |485| 
         00002c 0102 
    1282            ;* --------------------------------------------------------------------------*
    1283            ;*   BEGIN LOOP $C$L33
    1284            ;* --------------------------------------------------------------------------*
    1285 00002e       $C$L33:    
    1286                    .dwpsn  file "../MSP430F5xx_6xx/ucs.c",line 477,column 9,is_stmt,isa 0
    1287 00002e B2E2          BIT.B     #4,&0x16e             ; [] |477| 
         000030 016E 
    1288 000032 23F9          JNE       $C$L32                ; [] |477| 
    1289                                                      ; [] |477| 
    1290            ;* --------------------------------------------------------------------------*
MSP430 Assembler PC v15.12.3 Wed Oct 12 11:20:24 2016

Tools Copyright (c) 2003-2015 Texas Instruments Incorporated
C:\Users\LokBok\AppData\Local\Temp\134442                            PAGE   27

    1291 000034       $C$L34:    
    1292                    .dwpsn  file "../MSP430F5xx_6xx/ucs.c",line 488,column 1,is_stmt,isa 0
    1293            $C$DW$68        .dwtag  DW_TAG_TI_branch
    1294                    .dwattr $C$DW$68, DW_AT_low_pc(0x00)
    1295                    .dwattr $C$DW$68, DW_AT_TI_return
    1296            
    1297 000034 0110          RETA      ; [] 
    1298                    ; [] 
    1299                    .dwattr $C$DW$65, DW_AT_TI_end_file("../MSP430F5xx_6xx/ucs.c")
    1300                    .dwattr $C$DW$65, DW_AT_TI_end_line(0x1e8)
    1301                    .dwattr $C$DW$65, DW_AT_TI_end_column(0x01)
    1302                    .dwendentry
    1303                    .dwendtag $C$DW$65
    1304            
    1305 000000               .sect   ".text:UCS_turnOnLFXT1WithTimeout"
    1306                    .clink
    1307                    .global UCS_turnOnLFXT1WithTimeout
    1308            
    1309            $C$DW$69        .dwtag  DW_TAG_subprogram
    1310                    .dwattr $C$DW$69, DW_AT_name("UCS_turnOnLFXT1WithTimeout")
    1311                    .dwattr $C$DW$69, DW_AT_low_pc(UCS_turnOnLFXT1WithTimeout)
    1312                    .dwattr $C$DW$69, DW_AT_high_pc(0x00)
    1313                    .dwattr $C$DW$69, DW_AT_TI_symbol_name("UCS_turnOnLFXT1WithTimeout")
    1314                    .dwattr $C$DW$69, DW_AT_external
    1315                    .dwattr $C$DW$69, DW_AT_type(*$C$DW$T$82)
    1316                    .dwattr $C$DW$69, DW_AT_TI_begin_file("../MSP430F5xx_6xx/ucs.c")
    1317                    .dwattr $C$DW$69, DW_AT_TI_begin_line(0x1ea)
    1318                    .dwattr $C$DW$69, DW_AT_TI_begin_column(0x06)
    1319                    .dwattr $C$DW$69, DW_AT_decl_file("../MSP430F5xx_6xx/ucs.c")
    1320                    .dwattr $C$DW$69, DW_AT_decl_line(0x1ea)
    1321                    .dwattr $C$DW$69, DW_AT_decl_column(0x06)
    1322                    .dwattr $C$DW$69, DW_AT_TI_max_frame_size(0x04)
    1323                    .dwpsn  file "../MSP430F5xx_6xx/ucs.c",line 493,column 1,is_stmt,address UCS_turnOnLFXT1WithTi
    1324            
    1325                    .dwfde $C$DW$CIE, UCS_turnOnLFXT1WithTimeout
    1326            $C$DW$70        .dwtag  DW_TAG_formal_parameter
    1327                    .dwattr $C$DW$70, DW_AT_name("xt1drive")
    1328                    .dwattr $C$DW$70, DW_AT_TI_symbol_name("xt1drive")
    1329                    .dwattr $C$DW$70, DW_AT_type(*$C$DW$T$23)
    1330                    .dwattr $C$DW$70, DW_AT_location[DW_OP_reg12]
    1331            
    1332            $C$DW$71        .dwtag  DW_TAG_formal_parameter
    1333                    .dwattr $C$DW$71, DW_AT_name("xcap")
    1334                    .dwattr $C$DW$71, DW_AT_TI_symbol_name("xcap")
    1335                    .dwattr $C$DW$71, DW_AT_type(*$C$DW$T$22)
    1336                    .dwattr $C$DW$71, DW_AT_location[DW_OP_reg13]
    1337            
    1338            $C$DW$72        .dwtag  DW_TAG_formal_parameter
    1339                    .dwattr $C$DW$72, DW_AT_name("timeout")
    1340                    .dwattr $C$DW$72, DW_AT_TI_symbol_name("timeout")
    1341                    .dwattr $C$DW$72, DW_AT_type(*$C$DW$T$23)
    1342                    .dwattr $C$DW$72, DW_AT_location[DW_OP_reg14]
    1343            
    1344            
    1345            ;*****************************************************************************
MSP430 Assembler PC v15.12.3 Wed Oct 12 11:20:24 2016

Tools Copyright (c) 2003-2015 Texas Instruments Incorporated
C:\Users\LokBok\AppData\Local\Temp\134442                            PAGE   28

    1346            ;* FUNCTION NAME: UCS_turnOnLFXT1WithTimeout                                 *
    1347            ;*                                                                           *
    1348            ;*   Regs Modified     : SP,SR,r12,r13,r14,r15                               *
    1349            ;*   Regs Used         : SP,SR,r12,r13,r14,r15                               *
    1350            ;*   Local Frame Size  : 0 Args + 0 Auto + 0 Save = 0 byte                   *
    1351            ;*****************************************************************************
    1352 000000       UCS_turnOnLFXT1WithTimeout:
    1353            ;* --------------------------------------------------------------------------*
    1354                    .dwcfi  cfa_offset, 4
    1355                    .dwcfi  save_reg_to_mem, 16, -4
    1356            ;* r15   assigned to xt1drive
    1357            $C$DW$73        .dwtag  DW_TAG_variable
    1358                    .dwattr $C$DW$73, DW_AT_name("xt1drive")
    1359                    .dwattr $C$DW$73, DW_AT_TI_symbol_name("xt1drive")
    1360                    .dwattr $C$DW$73, DW_AT_type(*$C$DW$T$23)
    1361                    .dwattr $C$DW$73, DW_AT_location[DW_OP_reg15]
    1362            
    1363            ;* r13   assigned to xcap
    1364            $C$DW$74        .dwtag  DW_TAG_variable
    1365                    .dwattr $C$DW$74, DW_AT_name("xcap")
    1366                    .dwattr $C$DW$74, DW_AT_TI_symbol_name("xcap")
    1367                    .dwattr $C$DW$74, DW_AT_type(*$C$DW$T$22)
    1368                    .dwattr $C$DW$74, DW_AT_location[DW_OP_reg13]
    1369            
    1370            ;* r14   assigned to timeout
    1371            $C$DW$75        .dwtag  DW_TAG_variable
    1372                    .dwattr $C$DW$75, DW_AT_name("timeout")
    1373                    .dwattr $C$DW$75, DW_AT_TI_symbol_name("timeout")
    1374                    .dwattr $C$DW$75, DW_AT_type(*$C$DW$T$23)
    1375                    .dwattr $C$DW$75, DW_AT_location[DW_OP_reg14]
    1376            
    1377 000000 0CCF          MOVA      r12,r15               ; [] |493| 
    1378                    .dwpsn  file "../MSP430F5xx_6xx/ucs.c",line 507,column 5,is_stmt,isa 0
    1379 000002 C392          BIC.W     #1,&0x16c             ; [] |507| 
         000004 016C 
    1380                    .dwpsn  file "../MSP430F5xx_6xx/ucs.c",line 510,column 5,is_stmt,isa 0
    1381 000006 D0B2          OR.W      #192,&0x16c           ; [] |510| 
         000008 00C0 
         00000a 016C 
    1382                    .dwpsn  file "../MSP430F5xx_6xx/ucs.c",line 513,column 5,is_stmt,isa 0
    1383 00000c F0B2          AND.W     #65475,&0x16c         ; [] |513| 
         00000e FFC3 
         000010 016C 
    1384                    .dwpsn  file "../MSP430F5xx_6xx/ucs.c",line 514,column 5,is_stmt,isa 0
    1385 000012 4D4D          MOV.B     r13,r13               ; [] |514| 
    1386 000014 DD82          OR.W      r13,&0x16c            ; [] |514| 
         000016 016C 
    1387            ;* --------------------------------------------------------------------------*
    1388            ;*   BEGIN LOOP $C$L35
    1389            ;*
    1390            ;*   Loop source line                : 516
    1391            ;*   Loop closing brace source line  : 522
    1392            ;*   Known Minimum Trip Count        : 1
    1393            ;*   Known Maximum Trip Count        : 4294967295
    1394            ;*   Known Max Trip Count Factor     : 1
MSP430 Assembler PC v15.12.3 Wed Oct 12 11:20:24 2016

Tools Copyright (c) 2003-2015 Texas Instruments Incorporated
C:\Users\LokBok\AppData\Local\Temp\134442                            PAGE   29

    1395            ;* --------------------------------------------------------------------------*
    1396 000018       $C$L35:    
    1397                    .dwpsn  file "../MSP430F5xx_6xx/ucs.c",line 518,column 9,is_stmt,isa 0
    1398 000018 C3E2          BIC.B     #2,&0x16e             ; [] |518| 
         00001a 016E 
    1399                    .dwpsn  file "../MSP430F5xx_6xx/ucs.c",line 521,column 9,is_stmt,isa 0
    1400 00001c C3E2          BIC.B     #2,&0x102             ; [] |521| 
         00001e 0102 
    1401                    .dwpsn  file "../MSP430F5xx_6xx/ucs.c",line 523,column 11,is_stmt,isa 0
    1402 000020 B3E2          BIT.B     #2,&0x16e             ; [] |523| 
         000022 016E 
    1403 000024 2402          JEQ       $C$L36                ; [] |523| 
    1404                                                      ; [] |523| 
    1405            ;* --------------------------------------------------------------------------*
    1406 000026 831E          SUB.W     #1,r14                ; [] |523| 
    1407 000028 23F7          JNE       $C$L35                ; [] |523| 
    1408                                                      ; [] |523| 
    1409            ;* --------------------------------------------------------------------------*
    1410 00002a       $C$L36:    
    1411                    .dwpsn  file "../MSP430F5xx_6xx/ucs.c",line 525,column 5,is_stmt,isa 0
    1412 00002a 930E          TST.W     r14                   ; [] |525| 
    1413 00002c 2409          JEQ       $C$L37                ; [] |525| 
    1414                                                      ; [] |525| 
    1415            ;* --------------------------------------------------------------------------*
    1416                    .dwpsn  file "../MSP430F5xx_6xx/ucs.c",line 528,column 9,is_stmt,isa 0
    1417 00002e 403C          MOV.W     #65343,r12            ; [] |528| 
         000030 FF3F 
    1418 000032 F21C          AND.W     &0x16c,r12            ; [] |528| 
         000034 016C 
    1419 000036 DF0C          OR.W      r15,r12               ; [] |528| 
    1420 000038 4C82          MOV.W     r12,&0x16c            ; [] |528| 
         00003a 016C 
    1421                    .dwpsn  file "../MSP430F5xx_6xx/ucs.c",line 533,column 9,is_stmt,isa 0
    1422 00003c 435C          MOV.B     #1,r12                ; [] |533| 
    1423 00003e 3C01          JMP       $C$L38                ; [] |533| 
    1424                                                      ; [] |533| 
    1425            ;* --------------------------------------------------------------------------*
    1426 000040       $C$L37:    
    1427                    .dwpsn  file "../MSP430F5xx_6xx/ucs.c",line 537,column 9,is_stmt,isa 0
    1428 000040 434C          MOV.B     #0,r12                ; [] |537| 
    1429            ;* --------------------------------------------------------------------------*
    1430 000042       $C$L38:    
    1431                    .dwpsn  file "../MSP430F5xx_6xx/ucs.c",line 539,column 1,is_stmt,isa 0
    1432            $C$DW$76        .dwtag  DW_TAG_TI_branch
    1433                    .dwattr $C$DW$76, DW_AT_low_pc(0x00)
    1434                    .dwattr $C$DW$76, DW_AT_TI_return
    1435            
    1436 000042 0110          RETA      ; [] 
    1437                    ; [] 
    1438                    .dwattr $C$DW$69, DW_AT_TI_end_file("../MSP430F5xx_6xx/ucs.c")
    1439                    .dwattr $C$DW$69, DW_AT_TI_end_line(0x21b)
    1440                    .dwattr $C$DW$69, DW_AT_TI_end_column(0x01)
    1441                    .dwendentry
    1442                    .dwendtag $C$DW$69
    1443            
MSP430 Assembler PC v15.12.3 Wed Oct 12 11:20:24 2016

Tools Copyright (c) 2003-2015 Texas Instruments Incorporated
C:\Users\LokBok\AppData\Local\Temp\134442                            PAGE   30

    1444 000000               .sect   ".text:UCS_turnOnHFXT1WithTimeout"
    1445                    .clink
    1446                    .global UCS_turnOnHFXT1WithTimeout
    1447            
    1448            $C$DW$77        .dwtag  DW_TAG_subprogram
    1449                    .dwattr $C$DW$77, DW_AT_name("UCS_turnOnHFXT1WithTimeout")
    1450                    .dwattr $C$DW$77, DW_AT_low_pc(UCS_turnOnHFXT1WithTimeout)
    1451                    .dwattr $C$DW$77, DW_AT_high_pc(0x00)
    1452                    .dwattr $C$DW$77, DW_AT_TI_symbol_name("UCS_turnOnHFXT1WithTimeout")
    1453                    .dwattr $C$DW$77, DW_AT_external
    1454                    .dwattr $C$DW$77, DW_AT_type(*$C$DW$T$82)
    1455                    .dwattr $C$DW$77, DW_AT_TI_begin_file("../MSP430F5xx_6xx/ucs.c")
    1456                    .dwattr $C$DW$77, DW_AT_TI_begin_line(0x21d)
    1457                    .dwattr $C$DW$77, DW_AT_TI_begin_column(0x06)
    1458                    .dwattr $C$DW$77, DW_AT_decl_file("../MSP430F5xx_6xx/ucs.c")
    1459                    .dwattr $C$DW$77, DW_AT_decl_line(0x21d)
    1460                    .dwattr $C$DW$77, DW_AT_decl_column(0x06)
    1461                    .dwattr $C$DW$77, DW_AT_TI_max_frame_size(0x04)
    1462                    .dwpsn  file "../MSP430F5xx_6xx/ucs.c",line 543,column 1,is_stmt,address UCS_turnOnHFXT1WithTi
    1463            
    1464                    .dwfde $C$DW$CIE, UCS_turnOnHFXT1WithTimeout
    1465            $C$DW$78        .dwtag  DW_TAG_formal_parameter
    1466                    .dwattr $C$DW$78, DW_AT_name("xt1drive")
    1467                    .dwattr $C$DW$78, DW_AT_TI_symbol_name("xt1drive")
    1468                    .dwattr $C$DW$78, DW_AT_type(*$C$DW$T$23)
    1469                    .dwattr $C$DW$78, DW_AT_location[DW_OP_reg12]
    1470            
    1471            $C$DW$79        .dwtag  DW_TAG_formal_parameter
    1472                    .dwattr $C$DW$79, DW_AT_name("timeout")
    1473                    .dwattr $C$DW$79, DW_AT_TI_symbol_name("timeout")
    1474                    .dwattr $C$DW$79, DW_AT_type(*$C$DW$T$23)
    1475                    .dwattr $C$DW$79, DW_AT_location[DW_OP_reg13]
    1476            
    1477            
    1478            ;*****************************************************************************
    1479            ;* FUNCTION NAME: UCS_turnOnHFXT1WithTimeout                                 *
    1480            ;*                                                                           *
    1481            ;*   Regs Modified     : SP,SR,r12,r13,r15                                   *
    1482            ;*   Regs Used         : SP,SR,r12,r13,r15                                   *
    1483            ;*   Local Frame Size  : 0 Args + 0 Auto + 0 Save = 0 byte                   *
    1484            ;*****************************************************************************
    1485 000000       UCS_turnOnHFXT1WithTimeout:
    1486            ;* --------------------------------------------------------------------------*
    1487                    .dwcfi  cfa_offset, 4
    1488                    .dwcfi  save_reg_to_mem, 16, -4
    1489            ;* r12   assigned to xt1drive
    1490            $C$DW$80        .dwtag  DW_TAG_variable
    1491                    .dwattr $C$DW$80, DW_AT_name("xt1drive")
    1492                    .dwattr $C$DW$80, DW_AT_TI_symbol_name("xt1drive")
    1493                    .dwattr $C$DW$80, DW_AT_type(*$C$DW$T$23)
    1494                    .dwattr $C$DW$80, DW_AT_location[DW_OP_reg12]
    1495            
    1496            ;* r13   assigned to timeout
    1497            $C$DW$81        .dwtag  DW_TAG_variable
    1498                    .dwattr $C$DW$81, DW_AT_name("timeout")
MSP430 Assembler PC v15.12.3 Wed Oct 12 11:20:24 2016

Tools Copyright (c) 2003-2015 Texas Instruments Incorporated
C:\Users\LokBok\AppData\Local\Temp\134442                            PAGE   31

    1499                    .dwattr $C$DW$81, DW_AT_TI_symbol_name("timeout")
    1500                    .dwattr $C$DW$81, DW_AT_type(*$C$DW$T$23)
    1501                    .dwattr $C$DW$81, DW_AT_location[DW_OP_reg13]
    1502            
    1503                    .dwpsn  file "../MSP430F5xx_6xx/ucs.c",line 552,column 5,is_stmt,isa 0
    1504 000000 C392          BIC.W     #1,&0x16c             ; [] |552| 
         000002 016C 
    1505                    .dwpsn  file "../MSP430F5xx_6xx/ucs.c",line 555,column 5,is_stmt,isa 0
    1506 000004 403F          MOV.W     #192,r15              ; [] |555| 
         000006 00C0 
    1507 000008 F21F          AND.W     &0x16c,r15            ; [] |555| 
         00000a 016C 
    1508 00000c 9C0F          CMP.W     r12,r15               ; [] |555| 
    1509 00000e 2405          JEQ       $C$L39                ; [] |555| 
    1510                                                      ; [] |555| 
    1511            ;* --------------------------------------------------------------------------*
    1512                    .dwpsn  file "../MSP430F5xx_6xx/ucs.c",line 558,column 9,is_stmt,isa 0
    1513 000010 F0B2          AND.W     #65343,&0x16c         ; [] |558| 
         000012 FF3F 
         000014 016C 
    1514                    .dwpsn  file "../MSP430F5xx_6xx/ucs.c",line 561,column 9,is_stmt,isa 0
    1515 000016 DC82          OR.W      r12,&0x16c            ; [] |561| 
         000018 016C 
    1516            ;* --------------------------------------------------------------------------*
    1517 00001a       $C$L39:    
    1518                    .dwpsn  file "../MSP430F5xx_6xx/ucs.c",line 565,column 5,is_stmt,isa 0
    1519 00001a D0B2          OR.W      #32,&0x16c            ; [] |565| 
         00001c 0020 
         00001e 016C 
    1520                    .dwpsn  file "../MSP430F5xx_6xx/ucs.c",line 567,column 5,is_stmt,isa 0
    1521 000020 F0B2          AND.W     #65519,&0x16c         ; [] |567| 
         000022 FFEF 
         000024 016C 
    1522            ;* --------------------------------------------------------------------------*
    1523            ;*   BEGIN LOOP $C$L40
    1524            ;*
    1525            ;*   Loop source line                : 570
    1526            ;*   Loop closing brace source line  : 576
    1527            ;*   Known Minimum Trip Count        : 1
    1528            ;*   Known Maximum Trip Count        : 4294967295
    1529            ;*   Known Max Trip Count Factor     : 1
    1530            ;* --------------------------------------------------------------------------*
    1531 000026       $C$L40:    
    1532                    .dwpsn  file "../MSP430F5xx_6xx/ucs.c",line 572,column 9,is_stmt,isa 0
    1533 000026 C2E2          BIC.B     #4,&0x16e             ; [] |572| 
         000028 016E 
    1534                    .dwpsn  file "../MSP430F5xx_6xx/ucs.c",line 575,column 9,is_stmt,isa 0
    1535 00002a C3E2          BIC.B     #2,&0x102             ; [] |575| 
         00002c 0102 
    1536                    .dwpsn  file "../MSP430F5xx_6xx/ucs.c",line 577,column 11,is_stmt,isa 0
    1537 00002e B2E2          BIT.B     #4,&0x16e             ; [] |577| 
         000030 016E 
    1538 000032 2402          JEQ       $C$L41                ; [] |577| 
    1539                                                      ; [] |577| 
    1540            ;* --------------------------------------------------------------------------*
MSP430 Assembler PC v15.12.3 Wed Oct 12 11:20:24 2016

Tools Copyright (c) 2003-2015 Texas Instruments Incorporated
C:\Users\LokBok\AppData\Local\Temp\134442                            PAGE   32

    1541 000034 831D          SUB.W     #1,r13                ; [] |577| 
    1542 000036 23F7          JNE       $C$L40                ; [] |577| 
    1543                                                      ; [] |577| 
    1544            ;* --------------------------------------------------------------------------*
    1545 000038       $C$L41:    
    1546                    .dwpsn  file "../MSP430F5xx_6xx/ucs.c",line 582,column 9,is_stmt,isa 0
    1547 000038 434C          MOV.B     #0,r12                ; [] |582| 
    1548 00003a 930D          TST.W     r13                   ; [] |582| 
    1549 00003c 2401          JEQ       $C$L42                ; [] |582| 
    1550                                                      ; [] |582| 
    1551            ;* --------------------------------------------------------------------------*
    1552 00003e 435C          MOV.B     #1,r12                ; [] |582| 
    1553            ;* --------------------------------------------------------------------------*
    1554 000040       $C$L42:    
    1555                    .dwpsn  file "../MSP430F5xx_6xx/ucs.c",line 588,column 1,is_stmt,isa 0
    1556            $C$DW$82        .dwtag  DW_TAG_TI_branch
    1557                    .dwattr $C$DW$82, DW_AT_low_pc(0x00)
    1558                    .dwattr $C$DW$82, DW_AT_TI_return
    1559            
    1560 000040 0110          RETA      ; [] 
    1561                    ; [] 
    1562                    .dwattr $C$DW$77, DW_AT_TI_end_file("../MSP430F5xx_6xx/ucs.c")
    1563                    .dwattr $C$DW$77, DW_AT_TI_end_line(0x24c)
    1564                    .dwattr $C$DW$77, DW_AT_TI_end_column(0x01)
    1565                    .dwendentry
    1566                    .dwendtag $C$DW$77
    1567            
    1568 000000               .sect   ".text:UCS_bypassXT1WithTimeout"
    1569                    .clink
    1570                    .global UCS_bypassXT1WithTimeout
    1571            
    1572            $C$DW$83        .dwtag  DW_TAG_subprogram
    1573                    .dwattr $C$DW$83, DW_AT_name("UCS_bypassXT1WithTimeout")
    1574                    .dwattr $C$DW$83, DW_AT_low_pc(UCS_bypassXT1WithTimeout)
    1575                    .dwattr $C$DW$83, DW_AT_high_pc(0x00)
    1576                    .dwattr $C$DW$83, DW_AT_TI_symbol_name("UCS_bypassXT1WithTimeout")
    1577                    .dwattr $C$DW$83, DW_AT_external
    1578                    .dwattr $C$DW$83, DW_AT_type(*$C$DW$T$82)
    1579                    .dwattr $C$DW$83, DW_AT_TI_begin_file("../MSP430F5xx_6xx/ucs.c")
    1580                    .dwattr $C$DW$83, DW_AT_TI_begin_line(0x24e)
    1581                    .dwattr $C$DW$83, DW_AT_TI_begin_column(0x06)
    1582                    .dwattr $C$DW$83, DW_AT_decl_file("../MSP430F5xx_6xx/ucs.c")
    1583                    .dwattr $C$DW$83, DW_AT_decl_line(0x24e)
    1584                    .dwattr $C$DW$83, DW_AT_decl_column(0x06)
    1585                    .dwattr $C$DW$83, DW_AT_TI_max_frame_size(0x04)
    1586                    .dwpsn  file "../MSP430F5xx_6xx/ucs.c",line 592,column 1,is_stmt,address UCS_bypassXT1WithTime
    1587            
    1588                    .dwfde $C$DW$CIE, UCS_bypassXT1WithTimeout
    1589            $C$DW$84        .dwtag  DW_TAG_formal_parameter
    1590                    .dwattr $C$DW$84, DW_AT_name("highOrLowFrequency")
    1591                    .dwattr $C$DW$84, DW_AT_TI_symbol_name("highOrLowFrequency")
    1592                    .dwattr $C$DW$84, DW_AT_type(*$C$DW$T$22)
    1593                    .dwattr $C$DW$84, DW_AT_location[DW_OP_reg12]
    1594            
    1595            $C$DW$85        .dwtag  DW_TAG_formal_parameter
MSP430 Assembler PC v15.12.3 Wed Oct 12 11:20:24 2016

Tools Copyright (c) 2003-2015 Texas Instruments Incorporated
C:\Users\LokBok\AppData\Local\Temp\134442                            PAGE   33

    1596                    .dwattr $C$DW$85, DW_AT_name("timeout")
    1597                    .dwattr $C$DW$85, DW_AT_TI_symbol_name("timeout")
    1598                    .dwattr $C$DW$85, DW_AT_type(*$C$DW$T$23)
    1599                    .dwattr $C$DW$85, DW_AT_location[DW_OP_reg13]
    1600            
    1601            
    1602            ;*****************************************************************************
    1603            ;* FUNCTION NAME: UCS_bypassXT1WithTimeout                                   *
    1604            ;*                                                                           *
    1605            ;*   Regs Modified     : SP,SR,r12,r13,r15                                   *
    1606            ;*   Regs Used         : SP,SR,r12,r13,r15                                   *
    1607            ;*   Local Frame Size  : 0 Args + 0 Auto + 0 Save = 0 byte                   *
    1608            ;*****************************************************************************
    1609 000000       UCS_bypassXT1WithTimeout:
    1610            ;* --------------------------------------------------------------------------*
    1611                    .dwcfi  cfa_offset, 4
    1612                    .dwcfi  save_reg_to_mem, 16, -4
    1613            ;* r12   assigned to highOrLowFrequency
    1614            $C$DW$86        .dwtag  DW_TAG_variable
    1615                    .dwattr $C$DW$86, DW_AT_name("highOrLowFrequency")
    1616                    .dwattr $C$DW$86, DW_AT_TI_symbol_name("highOrLowFrequency")
    1617                    .dwattr $C$DW$86, DW_AT_type(*$C$DW$T$22)
    1618                    .dwattr $C$DW$86, DW_AT_location[DW_OP_reg12]
    1619            
    1620            ;* r13   assigned to timeout
    1621            $C$DW$87        .dwtag  DW_TAG_variable
    1622                    .dwattr $C$DW$87, DW_AT_name("timeout")
    1623                    .dwattr $C$DW$87, DW_AT_TI_symbol_name("timeout")
    1624                    .dwattr $C$DW$87, DW_AT_type(*$C$DW$T$23)
    1625                    .dwattr $C$DW$87, DW_AT_location[DW_OP_reg13]
    1626            
    1627                    .dwpsn  file "../MSP430F5xx_6xx/ucs.c",line 600,column 5,is_stmt,isa 0
    1628 000000 F0B2          AND.W     #65503,&0x16c         ; [] |600| 
         000002 FFDF 
         000004 016C 
    1629                    .dwpsn  file "../MSP430F5xx_6xx/ucs.c",line 601,column 5,is_stmt,isa 0
    1630 000006 4C4F          MOV.B     r12,r15               ; [] |601| 
    1631 000008 DF82          OR.W      r15,&0x16c            ; [] |601| 
         00000a 016C 
    1632                    .dwpsn  file "../MSP430F5xx_6xx/ucs.c",line 604,column 5,is_stmt,isa 0
    1633 00000c D0B2          OR.W      #17,&0x16c            ; [] |604| 
         00000e 0011 
         000010 016C 
    1634                    .dwpsn  file "../MSP430F5xx_6xx/ucs.c",line 606,column 5,is_stmt,isa 0
    1635 000012 934C          TST.B     r12                   ; [] |606| 
    1636 000014 200A          JNE       $C$L44                ; [] |606| 
    1637                                                      ; [] |606| 
    1638            ;* --------------------------------------------------------------------------*
    1639            ;*   BEGIN LOOP $C$L43
    1640            ;*
    1641            ;*   Loop source line                : 608
    1642            ;*   Loop closing brace source line  : 617
    1643            ;*   Known Minimum Trip Count        : 1
    1644            ;*   Known Maximum Trip Count        : 4294967295
    1645            ;*   Known Max Trip Count Factor     : 1
MSP430 Assembler PC v15.12.3 Wed Oct 12 11:20:24 2016

Tools Copyright (c) 2003-2015 Texas Instruments Incorporated
C:\Users\LokBok\AppData\Local\Temp\134442                            PAGE   34

    1646            ;* --------------------------------------------------------------------------*
    1647 000016       $C$L43:    
    1648                    .dwpsn  file "../MSP430F5xx_6xx/ucs.c",line 611,column 13,is_stmt,isa 0
    1649 000016 C3E2          BIC.B     #2,&0x16e             ; [] |611| 
         000018 016E 
    1650                    .dwpsn  file "../MSP430F5xx_6xx/ucs.c",line 616,column 13,is_stmt,isa 0
    1651 00001a C3E2          BIC.B     #2,&0x102             ; [] |616| 
         00001c 0102 
    1652                    .dwpsn  file "../MSP430F5xx_6xx/ucs.c",line 619,column 5,is_stmt,isa 0
    1653 00001e B3E2          BIT.B     #2,&0x16e             ; [] |619| 
         000020 016E 
    1654 000022 240C          JEQ       $C$L45                ; [] |619| 
    1655                                                      ; [] |619| 
    1656            ;* --------------------------------------------------------------------------*
    1657 000024 831D          SUB.W     #1,r13                ; [] |619| 
    1658 000026 23F7          JNE       $C$L43                ; [] |619| 
    1659                                                      ; [] |619| 
    1660            ;* --------------------------------------------------------------------------*
    1661 000028 3C09          JMP       $C$L45                ; [] |619| 
    1662                                                      ; [] |619| 
    1663            ;* --------------------------------------------------------------------------*
    1664            ;*   BEGIN LOOP $C$L44
    1665            ;*
    1666            ;*   Loop source line                : 622
    1667            ;*   Loop closing brace source line  : 631
    1668            ;*   Known Minimum Trip Count        : 1
    1669            ;*   Known Maximum Trip Count        : 4294967295
    1670            ;*   Known Max Trip Count Factor     : 1
    1671            ;* --------------------------------------------------------------------------*
    1672 00002a       $C$L44:    
    1673                    .dwpsn  file "../MSP430F5xx_6xx/ucs.c",line 625,column 13,is_stmt,isa 0
    1674 00002a C2E2          BIC.B     #4,&0x16e             ; [] |625| 
         00002c 016E 
    1675                    .dwpsn  file "../MSP430F5xx_6xx/ucs.c",line 630,column 13,is_stmt,isa 0
    1676 00002e C3E2          BIC.B     #2,&0x102             ; [] |630| 
         000030 0102 
    1677                    .dwpsn  file "../MSP430F5xx_6xx/ucs.c",line 632,column 15,is_stmt,isa 0
    1678 000032 B2E2          BIT.B     #4,&0x16e             ; [] |632| 
         000034 016E 
    1679 000036 2402          JEQ       $C$L45                ; [] |632| 
    1680                                                      ; [] |632| 
    1681            ;* --------------------------------------------------------------------------*
    1682 000038 831D          SUB.W     #1,r13                ; [] |632| 
    1683 00003a 23F7          JNE       $C$L44                ; [] |632| 
    1684                                                      ; [] |632| 
    1685            ;* --------------------------------------------------------------------------*
    1686 00003c       $C$L45:    
    1687                    .dwpsn  file "../MSP430F5xx_6xx/ucs.c",line 637,column 9,is_stmt,isa 0
    1688 00003c 434C          MOV.B     #0,r12                ; [] |637| 
    1689 00003e 930D          TST.W     r13                   ; [] |637| 
    1690 000040 2401          JEQ       $C$L46                ; [] |637| 
    1691                                                      ; [] |637| 
    1692            ;* --------------------------------------------------------------------------*
    1693 000042 435C          MOV.B     #1,r12                ; [] |637| 
    1694            ;* --------------------------------------------------------------------------*
MSP430 Assembler PC v15.12.3 Wed Oct 12 11:20:24 2016

Tools Copyright (c) 2003-2015 Texas Instruments Incorporated
C:\Users\LokBok\AppData\Local\Temp\134442                            PAGE   35

    1695 000044       $C$L46:    
    1696                    .dwpsn  file "../MSP430F5xx_6xx/ucs.c",line 643,column 1,is_stmt,isa 0
    1697            $C$DW$88        .dwtag  DW_TAG_TI_branch
    1698                    .dwattr $C$DW$88, DW_AT_low_pc(0x00)
    1699                    .dwattr $C$DW$88, DW_AT_TI_return
    1700            
    1701 000044 0110          RETA      ; [] 
    1702                    ; [] 
    1703                    .dwattr $C$DW$83, DW_AT_TI_end_file("../MSP430F5xx_6xx/ucs.c")
    1704                    .dwattr $C$DW$83, DW_AT_TI_end_line(0x283)
    1705                    .dwattr $C$DW$83, DW_AT_TI_end_column(0x01)
    1706                    .dwendentry
    1707                    .dwendtag $C$DW$83
    1708            
    1709 000000               .sect   ".text:UCS_turnOffXT1"
    1710                    .clink
    1711                    .global UCS_turnOffXT1
    1712            
    1713            $C$DW$89        .dwtag  DW_TAG_subprogram
    1714                    .dwattr $C$DW$89, DW_AT_name("UCS_turnOffXT1")
    1715                    .dwattr $C$DW$89, DW_AT_low_pc(UCS_turnOffXT1)
    1716                    .dwattr $C$DW$89, DW_AT_high_pc(0x00)
    1717                    .dwattr $C$DW$89, DW_AT_TI_symbol_name("UCS_turnOffXT1")
    1718                    .dwattr $C$DW$89, DW_AT_external
    1719                    .dwattr $C$DW$89, DW_AT_TI_begin_file("../MSP430F5xx_6xx/ucs.c")
    1720                    .dwattr $C$DW$89, DW_AT_TI_begin_line(0x285)
    1721                    .dwattr $C$DW$89, DW_AT_TI_begin_column(0x06)
    1722                    .dwattr $C$DW$89, DW_AT_decl_file("../MSP430F5xx_6xx/ucs.c")
    1723                    .dwattr $C$DW$89, DW_AT_decl_line(0x285)
    1724                    .dwattr $C$DW$89, DW_AT_decl_column(0x06)
    1725                    .dwattr $C$DW$89, DW_AT_TI_max_frame_size(0x04)
    1726                    .dwpsn  file "../MSP430F5xx_6xx/ucs.c",line 646,column 1,is_stmt,address UCS_turnOffXT1,isa 0
    1727            
    1728                    .dwfde $C$DW$CIE, UCS_turnOffXT1
    1729            
    1730            ;*****************************************************************************
    1731            ;* FUNCTION NAME: UCS_turnOffXT1                                             *
    1732            ;*                                                                           *
    1733            ;*   Regs Modified     : SP                                                  *
    1734            ;*   Regs Used         : SP                                                  *
    1735            ;*   Local Frame Size  : 0 Args + 0 Auto + 0 Save = 0 byte                   *
    1736            ;*****************************************************************************
    1737 000000       UCS_turnOffXT1:
    1738            ;* --------------------------------------------------------------------------*
    1739                    .dwcfi  cfa_offset, 4
    1740                    .dwcfi  save_reg_to_mem, 16, -4
    1741                    .dwpsn  file "../MSP430F5xx_6xx/ucs.c",line 648,column 5,is_stmt,isa 0
    1742 000000 D392          OR.W      #1,&0x16c             ; [] |648| 
         000002 016C 
    1743                    .dwpsn  file "../MSP430F5xx_6xx/ucs.c",line 649,column 1,is_stmt,isa 0
    1744            $C$DW$90        .dwtag  DW_TAG_TI_branch
    1745                    .dwattr $C$DW$90, DW_AT_low_pc(0x00)
    1746                    .dwattr $C$DW$90, DW_AT_TI_return
    1747            
    1748 000004 0110          RETA      ; [] 
MSP430 Assembler PC v15.12.3 Wed Oct 12 11:20:24 2016

Tools Copyright (c) 2003-2015 Texas Instruments Incorporated
C:\Users\LokBok\AppData\Local\Temp\134442                            PAGE   36

    1749                    ; [] 
    1750                    .dwattr $C$DW$89, DW_AT_TI_end_file("../MSP430F5xx_6xx/ucs.c")
    1751                    .dwattr $C$DW$89, DW_AT_TI_end_line(0x289)
    1752                    .dwattr $C$DW$89, DW_AT_TI_end_column(0x01)
    1753                    .dwendentry
    1754                    .dwendtag $C$DW$89
    1755            
    1756 000000               .sect   ".text:UCS_turnOnXT2"
    1757                    .clink
    1758                    .global UCS_turnOnXT2
    1759            
    1760            $C$DW$91        .dwtag  DW_TAG_subprogram
    1761                    .dwattr $C$DW$91, DW_AT_name("UCS_turnOnXT2")
    1762                    .dwattr $C$DW$91, DW_AT_low_pc(UCS_turnOnXT2)
    1763                    .dwattr $C$DW$91, DW_AT_high_pc(0x00)
    1764                    .dwattr $C$DW$91, DW_AT_TI_symbol_name("UCS_turnOnXT2")
    1765                    .dwattr $C$DW$91, DW_AT_external
    1766                    .dwattr $C$DW$91, DW_AT_TI_begin_file("../MSP430F5xx_6xx/ucs.c")
    1767                    .dwattr $C$DW$91, DW_AT_TI_begin_line(0x28b)
    1768                    .dwattr $C$DW$91, DW_AT_TI_begin_column(0x06)
    1769                    .dwattr $C$DW$91, DW_AT_decl_file("../MSP430F5xx_6xx/ucs.c")
    1770                    .dwattr $C$DW$91, DW_AT_decl_line(0x28b)
    1771                    .dwattr $C$DW$91, DW_AT_decl_column(0x06)
    1772                    .dwattr $C$DW$91, DW_AT_TI_max_frame_size(0x04)
    1773                    .dwpsn  file "../MSP430F5xx_6xx/ucs.c",line 652,column 1,is_stmt,address UCS_turnOnXT2,isa 0
    1774            
    1775                    .dwfde $C$DW$CIE, UCS_turnOnXT2
    1776            $C$DW$92        .dwtag  DW_TAG_formal_parameter
    1777                    .dwattr $C$DW$92, DW_AT_name("xt2drive")
    1778                    .dwattr $C$DW$92, DW_AT_TI_symbol_name("xt2drive")
    1779                    .dwattr $C$DW$92, DW_AT_type(*$C$DW$T$23)
    1780                    .dwattr $C$DW$92, DW_AT_location[DW_OP_reg12]
    1781            
    1782            
    1783            ;*****************************************************************************
    1784            ;* FUNCTION NAME: UCS_turnOnXT2                                              *
    1785            ;*                                                                           *
    1786            ;*   Regs Modified     : SP,SR,r15                                           *
    1787            ;*   Regs Used         : SP,SR,r12,r15                                       *
    1788            ;*   Local Frame Size  : 0 Args + 0 Auto + 0 Save = 0 byte                   *
    1789            ;*****************************************************************************
    1790 000000       UCS_turnOnXT2:
    1791            ;* --------------------------------------------------------------------------*
    1792                    .dwcfi  cfa_offset, 4
    1793                    .dwcfi  save_reg_to_mem, 16, -4
    1794            ;* r12   assigned to xt2drive
    1795            $C$DW$93        .dwtag  DW_TAG_variable
    1796                    .dwattr $C$DW$93, DW_AT_name("xt2drive")
    1797                    .dwattr $C$DW$93, DW_AT_TI_symbol_name("xt2drive")
    1798                    .dwattr $C$DW$93, DW_AT_type(*$C$DW$T$23)
    1799                    .dwattr $C$DW$93, DW_AT_location[DW_OP_reg12]
    1800            
    1801                    .dwpsn  file "../MSP430F5xx_6xx/ucs.c",line 656,column 5,is_stmt,isa 0
    1802 000000 403F          MOV.W     #49152,r15            ; [] |656| 
         000002 C000 
MSP430 Assembler PC v15.12.3 Wed Oct 12 11:20:24 2016

Tools Copyright (c) 2003-2015 Texas Instruments Incorporated
C:\Users\LokBok\AppData\Local\Temp\134442                            PAGE   37

    1803 000004 F21F          AND.W     &0x16c,r15            ; [] |656| 
         000006 016C 
    1804 000008 9C0F          CMP.W     r12,r15               ; [] |656| 
    1805 00000a 2405          JEQ       $C$L47                ; [] |656| 
    1806                                                      ; [] |656| 
    1807            ;* --------------------------------------------------------------------------*
    1808                    .dwpsn  file "../MSP430F5xx_6xx/ucs.c",line 659,column 9,is_stmt,isa 0
    1809 00000c F0B2          AND.W     #16383,&0x16c         ; [] |659| 
         00000e 3FFF 
         000010 016C 
    1810                    .dwpsn  file "../MSP430F5xx_6xx/ucs.c",line 662,column 9,is_stmt,isa 0
    1811 000012 DC82          OR.W      r12,&0x16c            ; [] |662| 
         000014 016C 
    1812            ;* --------------------------------------------------------------------------*
    1813 000016       $C$L47:    
    1814                    .dwpsn  file "../MSP430F5xx_6xx/ucs.c",line 665,column 5,is_stmt,isa 0
    1815 000016 F0B2          AND.W     #61439,&0x16c         ; [] |665| 
         000018 EFFF 
         00001a 016C 
    1816                    .dwpsn  file "../MSP430F5xx_6xx/ucs.c",line 669,column 5,is_stmt,isa 0
    1817 00001c F0B2          AND.W     #65279,&0x16c         ; [] |669| 
         00001e FEFF 
         000020 016C 
    1818                    .dwpsn  file "../MSP430F5xx_6xx/ucs.c",line 671,column 5,is_stmt,isa 0
    1819 000022 3C04          JMP       $C$L49                ; [] |671| 
    1820                                                      ; [] |671| 
    1821            ;* --------------------------------------------------------------------------*
    1822 000024       $C$L48:    
    1823                    .dwpsn  file "../MSP430F5xx_6xx/ucs.c",line 674,column 9,is_stmt,isa 0
    1824 000024 C2F2          BIC.B     #8,&0x16e             ; [] |674| 
         000026 016E 
    1825                    .dwpsn  file "../MSP430F5xx_6xx/ucs.c",line 684,column 9,is_stmt,isa 0
    1826 000028 C3E2          BIC.B     #2,&0x102             ; [] |684| 
         00002a 0102 
    1827            ;* --------------------------------------------------------------------------*
    1828            ;*   BEGIN LOOP $C$L49
    1829            ;* --------------------------------------------------------------------------*
    1830 00002c       $C$L49:    
    1831                    .dwpsn  file "../MSP430F5xx_6xx/ucs.c",line 671,column 5,is_stmt,isa 0
    1832 00002c B2F2          BIT.B     #8,&0x16e             ; [] |671| 
         00002e 016E 
    1833 000030 23F9          JNE       $C$L48                ; [] |671| 
    1834                                                      ; [] |671| 
    1835            ;* --------------------------------------------------------------------------*
    1836                    .dwpsn  file "../MSP430F5xx_6xx/ucs.c",line 686,column 1,is_stmt,isa 0
    1837            $C$DW$94        .dwtag  DW_TAG_TI_branch
    1838                    .dwattr $C$DW$94, DW_AT_low_pc(0x00)
    1839                    .dwattr $C$DW$94, DW_AT_TI_return
    1840            
    1841 000032 0110          RETA      ; [] 
    1842                    ; [] 
    1843                    .dwattr $C$DW$91, DW_AT_TI_end_file("../MSP430F5xx_6xx/ucs.c")
    1844                    .dwattr $C$DW$91, DW_AT_TI_end_line(0x2ae)
    1845                    .dwattr $C$DW$91, DW_AT_TI_end_column(0x01)
    1846                    .dwendentry
MSP430 Assembler PC v15.12.3 Wed Oct 12 11:20:24 2016

Tools Copyright (c) 2003-2015 Texas Instruments Incorporated
C:\Users\LokBok\AppData\Local\Temp\134442                            PAGE   38

    1847                    .dwendtag $C$DW$91
    1848            
    1849 000000               .sect   ".text:UCS_bypassXT2"
    1850                    .clink
    1851                    .global UCS_bypassXT2
    1852            
    1853            $C$DW$95        .dwtag  DW_TAG_subprogram
    1854                    .dwattr $C$DW$95, DW_AT_name("UCS_bypassXT2")
    1855                    .dwattr $C$DW$95, DW_AT_low_pc(UCS_bypassXT2)
    1856                    .dwattr $C$DW$95, DW_AT_high_pc(0x00)
    1857                    .dwattr $C$DW$95, DW_AT_TI_symbol_name("UCS_bypassXT2")
    1858                    .dwattr $C$DW$95, DW_AT_external
    1859                    .dwattr $C$DW$95, DW_AT_TI_begin_file("../MSP430F5xx_6xx/ucs.c")
    1860                    .dwattr $C$DW$95, DW_AT_TI_begin_line(0x2b0)
    1861                    .dwattr $C$DW$95, DW_AT_TI_begin_column(0x06)
    1862                    .dwattr $C$DW$95, DW_AT_decl_file("../MSP430F5xx_6xx/ucs.c")
    1863                    .dwattr $C$DW$95, DW_AT_decl_line(0x2b0)
    1864                    .dwattr $C$DW$95, DW_AT_decl_column(0x06)
    1865                    .dwattr $C$DW$95, DW_AT_TI_max_frame_size(0x04)
    1866                    .dwpsn  file "../MSP430F5xx_6xx/ucs.c",line 689,column 1,is_stmt,address UCS_bypassXT2,isa 0
    1867            
    1868                    .dwfde $C$DW$CIE, UCS_bypassXT2
    1869            
    1870            ;*****************************************************************************
    1871            ;* FUNCTION NAME: UCS_bypassXT2                                              *
    1872            ;*                                                                           *
    1873            ;*   Regs Modified     : SP,SR                                               *
    1874            ;*   Regs Used         : SP,SR                                               *
    1875            ;*   Local Frame Size  : 0 Args + 0 Auto + 0 Save = 0 byte                   *
    1876            ;*****************************************************************************
    1877 000000       UCS_bypassXT2:
    1878            ;* --------------------------------------------------------------------------*
    1879                    .dwcfi  cfa_offset, 4
    1880                    .dwcfi  save_reg_to_mem, 16, -4
    1881                    .dwpsn  file "../MSP430F5xx_6xx/ucs.c",line 692,column 5,is_stmt,isa 0
    1882 000000 D0B2          OR.W      #4096,&0x16c          ; [] |692| 
         000002 1000 
         000004 016C 
    1883                    .dwpsn  file "../MSP430F5xx_6xx/ucs.c",line 694,column 5,is_stmt,isa 0
    1884 000006 D0B2          OR.W      #256,&0x16c           ; [] |694| 
         000008 0100 
         00000a 016C 
    1885                    .dwpsn  file "../MSP430F5xx_6xx/ucs.c",line 696,column 5,is_stmt,isa 0
    1886 00000c 3C04          JMP       $C$L51                ; [] |696| 
    1887                                                      ; [] |696| 
    1888            ;* --------------------------------------------------------------------------*
    1889 00000e       $C$L50:    
    1890                    .dwpsn  file "../MSP430F5xx_6xx/ucs.c",line 699,column 9,is_stmt,isa 0
    1891 00000e C2F2          BIC.B     #8,&0x16e             ; [] |699| 
         000010 016E 
    1892                    .dwpsn  file "../MSP430F5xx_6xx/ucs.c",line 709,column 9,is_stmt,isa 0
    1893 000012 C3E2          BIC.B     #2,&0x102             ; [] |709| 
         000014 0102 
    1894            ;* --------------------------------------------------------------------------*
    1895            ;*   BEGIN LOOP $C$L51
MSP430 Assembler PC v15.12.3 Wed Oct 12 11:20:24 2016

Tools Copyright (c) 2003-2015 Texas Instruments Incorporated
C:\Users\LokBok\AppData\Local\Temp\134442                            PAGE   39

    1896            ;* --------------------------------------------------------------------------*
    1897 000016       $C$L51:    
    1898                    .dwpsn  file "../MSP430F5xx_6xx/ucs.c",line 696,column 5,is_stmt,isa 0
    1899 000016 B2F2          BIT.B     #8,&0x16e             ; [] |696| 
         000018 016E 
    1900 00001a 23F9          JNE       $C$L50                ; [] |696| 
    1901                                                      ; [] |696| 
    1902            ;* --------------------------------------------------------------------------*
    1903                    .dwpsn  file "../MSP430F5xx_6xx/ucs.c",line 711,column 1,is_stmt,isa 0
    1904            $C$DW$96        .dwtag  DW_TAG_TI_branch
    1905                    .dwattr $C$DW$96, DW_AT_low_pc(0x00)
    1906                    .dwattr $C$DW$96, DW_AT_TI_return
    1907            
    1908 00001c 0110          RETA      ; [] 
    1909                    ; [] 
    1910                    .dwattr $C$DW$95, DW_AT_TI_end_file("../MSP430F5xx_6xx/ucs.c")
    1911                    .dwattr $C$DW$95, DW_AT_TI_end_line(0x2c7)
    1912                    .dwattr $C$DW$95, DW_AT_TI_end_column(0x01)
    1913                    .dwendentry
    1914                    .dwendtag $C$DW$95
    1915            
    1916 000000               .sect   ".text:UCS_turnOnXT2WithTimeout"
    1917                    .clink
    1918                    .global UCS_turnOnXT2WithTimeout
    1919            
    1920            $C$DW$97        .dwtag  DW_TAG_subprogram
    1921                    .dwattr $C$DW$97, DW_AT_name("UCS_turnOnXT2WithTimeout")
    1922                    .dwattr $C$DW$97, DW_AT_low_pc(UCS_turnOnXT2WithTimeout)
    1923                    .dwattr $C$DW$97, DW_AT_high_pc(0x00)
    1924                    .dwattr $C$DW$97, DW_AT_TI_symbol_name("UCS_turnOnXT2WithTimeout")
    1925                    .dwattr $C$DW$97, DW_AT_external
    1926                    .dwattr $C$DW$97, DW_AT_type(*$C$DW$T$82)
    1927                    .dwattr $C$DW$97, DW_AT_TI_begin_file("../MSP430F5xx_6xx/ucs.c")
    1928                    .dwattr $C$DW$97, DW_AT_TI_begin_line(0x2c9)
    1929                    .dwattr $C$DW$97, DW_AT_TI_begin_column(0x06)
    1930                    .dwattr $C$DW$97, DW_AT_decl_file("../MSP430F5xx_6xx/ucs.c")
    1931                    .dwattr $C$DW$97, DW_AT_decl_line(0x2c9)
    1932                    .dwattr $C$DW$97, DW_AT_decl_column(0x06)
    1933                    .dwattr $C$DW$97, DW_AT_TI_max_frame_size(0x04)
    1934                    .dwpsn  file "../MSP430F5xx_6xx/ucs.c",line 715,column 1,is_stmt,address UCS_turnOnXT2WithTime
    1935            
    1936                    .dwfde $C$DW$CIE, UCS_turnOnXT2WithTimeout
    1937            $C$DW$98        .dwtag  DW_TAG_formal_parameter
    1938                    .dwattr $C$DW$98, DW_AT_name("xt2drive")
    1939                    .dwattr $C$DW$98, DW_AT_TI_symbol_name("xt2drive")
    1940                    .dwattr $C$DW$98, DW_AT_type(*$C$DW$T$23)
    1941                    .dwattr $C$DW$98, DW_AT_location[DW_OP_reg12]
    1942            
    1943            $C$DW$99        .dwtag  DW_TAG_formal_parameter
    1944                    .dwattr $C$DW$99, DW_AT_name("timeout")
    1945                    .dwattr $C$DW$99, DW_AT_TI_symbol_name("timeout")
    1946                    .dwattr $C$DW$99, DW_AT_type(*$C$DW$T$23)
    1947                    .dwattr $C$DW$99, DW_AT_location[DW_OP_reg13]
    1948            
    1949            
MSP430 Assembler PC v15.12.3 Wed Oct 12 11:20:24 2016

Tools Copyright (c) 2003-2015 Texas Instruments Incorporated
C:\Users\LokBok\AppData\Local\Temp\134442                            PAGE   40

    1950            ;*****************************************************************************
    1951            ;* FUNCTION NAME: UCS_turnOnXT2WithTimeout                                   *
    1952            ;*                                                                           *
    1953            ;*   Regs Modified     : SP,SR,r12,r13,r15                                   *
    1954            ;*   Regs Used         : SP,SR,r12,r13,r15                                   *
    1955            ;*   Local Frame Size  : 0 Args + 0 Auto + 0 Save = 0 byte                   *
    1956            ;*****************************************************************************
    1957 000000       UCS_turnOnXT2WithTimeout:
    1958            ;* --------------------------------------------------------------------------*
    1959                    .dwcfi  cfa_offset, 4
    1960                    .dwcfi  save_reg_to_mem, 16, -4
    1961            ;* r12   assigned to xt2drive
    1962            $C$DW$100       .dwtag  DW_TAG_variable
    1963                    .dwattr $C$DW$100, DW_AT_name("xt2drive")
    1964                    .dwattr $C$DW$100, DW_AT_TI_symbol_name("xt2drive")
    1965                    .dwattr $C$DW$100, DW_AT_type(*$C$DW$T$23)
    1966                    .dwattr $C$DW$100, DW_AT_location[DW_OP_reg12]
    1967            
    1968            ;* r13   assigned to timeout
    1969            $C$DW$101       .dwtag  DW_TAG_variable
    1970                    .dwattr $C$DW$101, DW_AT_name("timeout")
    1971                    .dwattr $C$DW$101, DW_AT_TI_symbol_name("timeout")
    1972                    .dwattr $C$DW$101, DW_AT_type(*$C$DW$T$23)
    1973                    .dwattr $C$DW$101, DW_AT_location[DW_OP_reg13]
    1974            
    1975                    .dwpsn  file "../MSP430F5xx_6xx/ucs.c",line 720,column 5,is_stmt,isa 0
    1976 000000 403F          MOV.W     #49152,r15            ; [] |720| 
         000002 C000 
    1977 000004 F21F          AND.W     &0x16c,r15            ; [] |720| 
         000006 016C 
    1978 000008 9C0F          CMP.W     r12,r15               ; [] |720| 
    1979 00000a 2405          JEQ       $C$L52                ; [] |720| 
    1980                                                      ; [] |720| 
    1981            ;* --------------------------------------------------------------------------*
    1982                    .dwpsn  file "../MSP430F5xx_6xx/ucs.c",line 723,column 9,is_stmt,isa 0
    1983 00000c F0B2          AND.W     #16383,&0x16c         ; [] |723| 
         00000e 3FFF 
         000010 016C 
    1984                    .dwpsn  file "../MSP430F5xx_6xx/ucs.c",line 726,column 9,is_stmt,isa 0
    1985 000012 DC82          OR.W      r12,&0x16c            ; [] |726| 
         000014 016C 
    1986            ;* --------------------------------------------------------------------------*
    1987 000016       $C$L52:    
    1988                    .dwpsn  file "../MSP430F5xx_6xx/ucs.c",line 729,column 5,is_stmt,isa 0
    1989 000016 F0B2          AND.W     #61439,&0x16c         ; [] |729| 
         000018 EFFF 
         00001a 016C 
    1990                    .dwpsn  file "../MSP430F5xx_6xx/ucs.c",line 733,column 5,is_stmt,isa 0
    1991 00001c F0B2          AND.W     #65279,&0x16c         ; [] |733| 
         00001e FEFF 
         000020 016C 
    1992            ;* --------------------------------------------------------------------------*
    1993            ;*   BEGIN LOOP $C$L53
    1994            ;*
    1995            ;*   Loop source line                : 735
MSP430 Assembler PC v15.12.3 Wed Oct 12 11:20:24 2016

Tools Copyright (c) 2003-2015 Texas Instruments Incorporated
C:\Users\LokBok\AppData\Local\Temp\134442                            PAGE   41

    1996            ;*   Loop closing brace source line  : 749
    1997            ;*   Known Minimum Trip Count        : 1
    1998            ;*   Known Maximum Trip Count        : 4294967295
    1999            ;*   Known Max Trip Count Factor     : 1
    2000            ;* --------------------------------------------------------------------------*
    2001 000022       $C$L53:    
    2002                    .dwpsn  file "../MSP430F5xx_6xx/ucs.c",line 738,column 9,is_stmt,isa 0
    2003 000022 C2F2          BIC.B     #8,&0x16e             ; [] |738| 
         000024 016E 
    2004                    .dwpsn  file "../MSP430F5xx_6xx/ucs.c",line 748,column 9,is_stmt,isa 0
    2005 000026 C3E2          BIC.B     #2,&0x102             ; [] |748| 
         000028 0102 
    2006                    .dwpsn  file "../MSP430F5xx_6xx/ucs.c",line 750,column 11,is_stmt,isa 0
    2007 00002a B2F2          BIT.B     #8,&0x16e             ; [] |750| 
         00002c 016E 
    2008 00002e 2402          JEQ       $C$L54                ; [] |750| 
    2009                                                      ; [] |750| 
    2010            ;* --------------------------------------------------------------------------*
    2011 000030 831D          SUB.W     #1,r13                ; [] |750| 
    2012 000032 23F7          JNE       $C$L53                ; [] |750| 
    2013                                                      ; [] |750| 
    2014            ;* --------------------------------------------------------------------------*
    2015 000034       $C$L54:    
    2016                    .dwpsn  file "../MSP430F5xx_6xx/ucs.c",line 754,column 9,is_stmt,isa 0
    2017 000034 434C          MOV.B     #0,r12                ; [] |754| 
    2018 000036 930D          TST.W     r13                   ; [] |754| 
    2019 000038 2401          JEQ       $C$L55                ; [] |754| 
    2020                                                      ; [] |754| 
    2021            ;* --------------------------------------------------------------------------*
    2022 00003a 435C          MOV.B     #1,r12                ; [] |754| 
    2023            ;* --------------------------------------------------------------------------*
    2024 00003c       $C$L55:    
    2025                    .dwpsn  file "../MSP430F5xx_6xx/ucs.c",line 760,column 1,is_stmt,isa 0
    2026            $C$DW$102       .dwtag  DW_TAG_TI_branch
    2027                    .dwattr $C$DW$102, DW_AT_low_pc(0x00)
    2028                    .dwattr $C$DW$102, DW_AT_TI_return
    2029            
    2030 00003c 0110          RETA      ; [] 
    2031                    ; [] 
    2032                    .dwattr $C$DW$97, DW_AT_TI_end_file("../MSP430F5xx_6xx/ucs.c")
    2033                    .dwattr $C$DW$97, DW_AT_TI_end_line(0x2f8)
    2034                    .dwattr $C$DW$97, DW_AT_TI_end_column(0x01)
    2035                    .dwendentry
    2036                    .dwendtag $C$DW$97
    2037            
    2038 000000               .sect   ".text:UCS_bypassXT2WithTimeout"
    2039                    .clink
    2040                    .global UCS_bypassXT2WithTimeout
    2041            
    2042            $C$DW$103       .dwtag  DW_TAG_subprogram
    2043                    .dwattr $C$DW$103, DW_AT_name("UCS_bypassXT2WithTimeout")
    2044                    .dwattr $C$DW$103, DW_AT_low_pc(UCS_bypassXT2WithTimeout)
    2045                    .dwattr $C$DW$103, DW_AT_high_pc(0x00)
    2046                    .dwattr $C$DW$103, DW_AT_TI_symbol_name("UCS_bypassXT2WithTimeout")
    2047                    .dwattr $C$DW$103, DW_AT_external
MSP430 Assembler PC v15.12.3 Wed Oct 12 11:20:24 2016

Tools Copyright (c) 2003-2015 Texas Instruments Incorporated
C:\Users\LokBok\AppData\Local\Temp\134442                            PAGE   42

    2048                    .dwattr $C$DW$103, DW_AT_type(*$C$DW$T$82)
    2049                    .dwattr $C$DW$103, DW_AT_TI_begin_file("../MSP430F5xx_6xx/ucs.c")
    2050                    .dwattr $C$DW$103, DW_AT_TI_begin_line(0x2fa)
    2051                    .dwattr $C$DW$103, DW_AT_TI_begin_column(0x06)
    2052                    .dwattr $C$DW$103, DW_AT_decl_file("../MSP430F5xx_6xx/ucs.c")
    2053                    .dwattr $C$DW$103, DW_AT_decl_line(0x2fa)
    2054                    .dwattr $C$DW$103, DW_AT_decl_column(0x06)
    2055                    .dwattr $C$DW$103, DW_AT_TI_max_frame_size(0x04)
    2056                    .dwpsn  file "../MSP430F5xx_6xx/ucs.c",line 763,column 1,is_stmt,address UCS_bypassXT2WithTime
    2057            
    2058                    .dwfde $C$DW$CIE, UCS_bypassXT2WithTimeout
    2059            $C$DW$104       .dwtag  DW_TAG_formal_parameter
    2060                    .dwattr $C$DW$104, DW_AT_name("timeout")
    2061                    .dwattr $C$DW$104, DW_AT_TI_symbol_name("timeout")
    2062                    .dwattr $C$DW$104, DW_AT_type(*$C$DW$T$23)
    2063                    .dwattr $C$DW$104, DW_AT_location[DW_OP_reg12]
    2064            
    2065            
    2066            ;*****************************************************************************
    2067            ;* FUNCTION NAME: UCS_bypassXT2WithTimeout                                   *
    2068            ;*                                                                           *
    2069            ;*   Regs Modified     : SP,SR,r12,r15                                       *
    2070            ;*   Regs Used         : SP,SR,r12,r15                                       *
    2071            ;*   Local Frame Size  : 0 Args + 0 Auto + 0 Save = 0 byte                   *
    2072            ;*****************************************************************************
    2073 000000       UCS_bypassXT2WithTimeout:
    2074            ;* --------------------------------------------------------------------------*
    2075                    .dwcfi  cfa_offset, 4
    2076                    .dwcfi  save_reg_to_mem, 16, -4
    2077            ;* r12   assigned to timeout
    2078            $C$DW$105       .dwtag  DW_TAG_variable
    2079                    .dwattr $C$DW$105, DW_AT_name("timeout")
    2080                    .dwattr $C$DW$105, DW_AT_TI_symbol_name("timeout")
    2081                    .dwattr $C$DW$105, DW_AT_type(*$C$DW$T$23)
    2082                    .dwattr $C$DW$105, DW_AT_location[DW_OP_reg12]
    2083            
    2084                    .dwpsn  file "../MSP430F5xx_6xx/ucs.c",line 768,column 5,is_stmt,isa 0
    2085 000000 D0B2          OR.W      #4096,&0x16c          ; [] |768| 
         000002 1000 
         000004 016C 
    2086                    .dwpsn  file "../MSP430F5xx_6xx/ucs.c",line 770,column 5,is_stmt,isa 0
    2087 000006 D0B2          OR.W      #256,&0x16c           ; [] |770| 
         000008 0100 
         00000a 016C 
    2088            ;* --------------------------------------------------------------------------*
    2089            ;*   BEGIN LOOP $C$L56
    2090            ;*
    2091            ;*   Loop source line                : 772
    2092            ;*   Loop closing brace source line  : 786
    2093            ;*   Known Minimum Trip Count        : 1
    2094            ;*   Known Maximum Trip Count        : 4294967295
    2095            ;*   Known Max Trip Count Factor     : 1
    2096            ;* --------------------------------------------------------------------------*
    2097 00000c       $C$L56:    
    2098                    .dwpsn  file "../MSP430F5xx_6xx/ucs.c",line 775,column 9,is_stmt,isa 0
MSP430 Assembler PC v15.12.3 Wed Oct 12 11:20:24 2016

Tools Copyright (c) 2003-2015 Texas Instruments Incorporated
C:\Users\LokBok\AppData\Local\Temp\134442                            PAGE   43

    2099 00000c C2F2          BIC.B     #8,&0x16e             ; [] |775| 
         00000e 016E 
    2100                    .dwpsn  file "../MSP430F5xx_6xx/ucs.c",line 785,column 9,is_stmt,isa 0
    2101 000010 C3E2          BIC.B     #2,&0x102             ; [] |785| 
         000012 0102 
    2102                    .dwpsn  file "../MSP430F5xx_6xx/ucs.c",line 787,column 11,is_stmt,isa 0
    2103 000014 B2F2          BIT.B     #8,&0x16e             ; [] |787| 
         000016 016E 
    2104 000018 2402          JEQ       $C$L57                ; [] |787| 
    2105                                                      ; [] |787| 
    2106            ;* --------------------------------------------------------------------------*
    2107 00001a 831C          SUB.W     #1,r12                ; [] |787| 
    2108 00001c 23F7          JNE       $C$L56                ; [] |787| 
    2109                                                      ; [] |787| 
    2110            ;* --------------------------------------------------------------------------*
    2111 00001e       $C$L57:    
    2112                    .dwpsn  file "../MSP430F5xx_6xx/ucs.c",line 791,column 9,is_stmt,isa 0
    2113 00001e 434F          MOV.B     #0,r15                ; [] |791| 
    2114 000020 930C          TST.W     r12                   ; [] |791| 
    2115 000022 2401          JEQ       $C$L58                ; [] |791| 
    2116                                                      ; [] |791| 
    2117            ;* --------------------------------------------------------------------------*
    2118 000024 435F          MOV.B     #1,r15                ; [] |791| 
    2119            ;* --------------------------------------------------------------------------*
    2120 000026       $C$L58:    
    2121 000026 0FCC          MOVA      r15,r12               ; [] |791| 
    2122                    .dwpsn  file "../MSP430F5xx_6xx/ucs.c",line 797,column 1,is_stmt,isa 0
    2123            $C$DW$106       .dwtag  DW_TAG_TI_branch
    2124                    .dwattr $C$DW$106, DW_AT_low_pc(0x00)
    2125                    .dwattr $C$DW$106, DW_AT_TI_return
    2126            
    2127 000028 0110          RETA      ; [] 
    2128                    ; [] 
    2129                    .dwattr $C$DW$103, DW_AT_TI_end_file("../MSP430F5xx_6xx/ucs.c")
    2130                    .dwattr $C$DW$103, DW_AT_TI_end_line(0x31d)
    2131                    .dwattr $C$DW$103, DW_AT_TI_end_column(0x01)
    2132                    .dwendentry
    2133                    .dwendtag $C$DW$103
    2134            
    2135 000000               .sect   ".text:UCS_turnOffXT2"
    2136                    .clink
    2137                    .global UCS_turnOffXT2
    2138            
    2139            $C$DW$107       .dwtag  DW_TAG_subprogram
    2140                    .dwattr $C$DW$107, DW_AT_name("UCS_turnOffXT2")
    2141                    .dwattr $C$DW$107, DW_AT_low_pc(UCS_turnOffXT2)
    2142                    .dwattr $C$DW$107, DW_AT_high_pc(0x00)
    2143                    .dwattr $C$DW$107, DW_AT_TI_symbol_name("UCS_turnOffXT2")
    2144                    .dwattr $C$DW$107, DW_AT_external
    2145                    .dwattr $C$DW$107, DW_AT_TI_begin_file("../MSP430F5xx_6xx/ucs.c")
    2146                    .dwattr $C$DW$107, DW_AT_TI_begin_line(0x31f)
    2147                    .dwattr $C$DW$107, DW_AT_TI_begin_column(0x06)
    2148                    .dwattr $C$DW$107, DW_AT_decl_file("../MSP430F5xx_6xx/ucs.c")
    2149                    .dwattr $C$DW$107, DW_AT_decl_line(0x31f)
    2150                    .dwattr $C$DW$107, DW_AT_decl_column(0x06)
MSP430 Assembler PC v15.12.3 Wed Oct 12 11:20:24 2016

Tools Copyright (c) 2003-2015 Texas Instruments Incorporated
C:\Users\LokBok\AppData\Local\Temp\134442                            PAGE   44

    2151                    .dwattr $C$DW$107, DW_AT_TI_max_frame_size(0x04)
    2152                    .dwpsn  file "../MSP430F5xx_6xx/ucs.c",line 800,column 1,is_stmt,address UCS_turnOffXT2,isa 0
    2153            
    2154                    .dwfde $C$DW$CIE, UCS_turnOffXT2
    2155            
    2156            ;*****************************************************************************
    2157            ;* FUNCTION NAME: UCS_turnOffXT2                                             *
    2158            ;*                                                                           *
    2159            ;*   Regs Modified     : SP                                                  *
    2160            ;*   Regs Used         : SP                                                  *
    2161            ;*   Local Frame Size  : 0 Args + 0 Auto + 0 Save = 0 byte                   *
    2162            ;*****************************************************************************
    2163 000000       UCS_turnOffXT2:
    2164            ;* --------------------------------------------------------------------------*
    2165                    .dwcfi  cfa_offset, 4
    2166                    .dwcfi  save_reg_to_mem, 16, -4
    2167                    .dwpsn  file "../MSP430F5xx_6xx/ucs.c",line 802,column 5,is_stmt,isa 0
    2168 000000 D0B2          OR.W      #256,&0x16c           ; [] |802| 
         000002 0100 
         000004 016C 
    2169                    .dwpsn  file "../MSP430F5xx_6xx/ucs.c",line 803,column 1,is_stmt,isa 0
    2170            $C$DW$108       .dwtag  DW_TAG_TI_branch
    2171                    .dwattr $C$DW$108, DW_AT_low_pc(0x00)
    2172                    .dwattr $C$DW$108, DW_AT_TI_return
    2173            
    2174 000006 0110          RETA      ; [] 
    2175                    ; [] 
    2176                    .dwattr $C$DW$107, DW_AT_TI_end_file("../MSP430F5xx_6xx/ucs.c")
    2177                    .dwattr $C$DW$107, DW_AT_TI_end_line(0x323)
    2178                    .dwattr $C$DW$107, DW_AT_TI_end_column(0x01)
    2179                    .dwendentry
    2180                    .dwendtag $C$DW$107
    2181            
    2182 000000               .sect   ".text:UCS_initFLLSettle"
    2183                    .clink
    2184                    .global UCS_initFLLSettle
    2185            
    2186            $C$DW$109       .dwtag  DW_TAG_subprogram
    2187                    .dwattr $C$DW$109, DW_AT_name("UCS_initFLLSettle")
    2188                    .dwattr $C$DW$109, DW_AT_low_pc(UCS_initFLLSettle)
    2189                    .dwattr $C$DW$109, DW_AT_high_pc(0x00)
    2190                    .dwattr $C$DW$109, DW_AT_TI_symbol_name("UCS_initFLLSettle")
    2191                    .dwattr $C$DW$109, DW_AT_external
    2192                    .dwattr $C$DW$109, DW_AT_TI_begin_file("../MSP430F5xx_6xx/ucs.c")
    2193                    .dwattr $C$DW$109, DW_AT_TI_begin_line(0x325)
    2194                    .dwattr $C$DW$109, DW_AT_TI_begin_column(0x06)
    2195                    .dwattr $C$DW$109, DW_AT_decl_file("../MSP430F5xx_6xx/ucs.c")
    2196                    .dwattr $C$DW$109, DW_AT_decl_line(0x325)
    2197                    .dwattr $C$DW$109, DW_AT_decl_column(0x06)
    2198                    .dwattr $C$DW$109, DW_AT_TI_max_frame_size(0x06)
    2199                    .dwpsn  file "../MSP430F5xx_6xx/ucs.c",line 807,column 1,is_stmt,address UCS_initFLLSettle,isa
    2200            
    2201                    .dwfde $C$DW$CIE, UCS_initFLLSettle
    2202            $C$DW$110       .dwtag  DW_TAG_formal_parameter
    2203                    .dwattr $C$DW$110, DW_AT_name("fsystem")
MSP430 Assembler PC v15.12.3 Wed Oct 12 11:20:24 2016

Tools Copyright (c) 2003-2015 Texas Instruments Incorporated
C:\Users\LokBok\AppData\Local\Temp\134442                            PAGE   45

    2204                    .dwattr $C$DW$110, DW_AT_TI_symbol_name("fsystem")
    2205                    .dwattr $C$DW$110, DW_AT_type(*$C$DW$T$23)
    2206                    .dwattr $C$DW$110, DW_AT_location[DW_OP_reg12]
    2207            
    2208            $C$DW$111       .dwtag  DW_TAG_formal_parameter
    2209                    .dwattr $C$DW$111, DW_AT_name("ratio")
    2210                    .dwattr $C$DW$111, DW_AT_TI_symbol_name("ratio")
    2211                    .dwattr $C$DW$111, DW_AT_type(*$C$DW$T$23)
    2212                    .dwattr $C$DW$111, DW_AT_location[DW_OP_reg13]
    2213            
    2214            
    2215            ;*****************************************************************************
    2216            ;* FUNCTION NAME: UCS_initFLLSettle                                          *
    2217            ;*                                                                           *
    2218            ;*   Regs Modified     : SP,SR,r11,r12,r13,r14,r15                           *
    2219            ;*   Regs Used         : SP,SR,r11,r12,r13,r14,r15                           *
    2220            ;*   Local Frame Size  : 0 Args + 2 Auto + 0 Save = 2 byte                   *
    2221            ;*****************************************************************************
    2222 000000       UCS_initFLLSettle:
    2223            ;* --------------------------------------------------------------------------*
    2224                    .dwcfi  cfa_offset, 4
    2225                    .dwcfi  save_reg_to_mem, 16, -4
    2226 000000 03F1          SUBA      #2,SP                 ; [] 
    2227                    .dwcfi  cfa_offset, 6
    2228            ;* r13   assigned to ratio
    2229            $C$DW$112       .dwtag  DW_TAG_variable
    2230                    .dwattr $C$DW$112, DW_AT_name("ratio")
    2231                    .dwattr $C$DW$112, DW_AT_TI_symbol_name("ratio")
    2232                    .dwattr $C$DW$112, DW_AT_type(*$C$DW$T$23)
    2233                    .dwattr $C$DW$112, DW_AT_location[DW_OP_reg13]
    2234            
    2235            $C$DW$113       .dwtag  DW_TAG_variable
    2236                    .dwattr $C$DW$113, DW_AT_name("x")
    2237                    .dwattr $C$DW$113, DW_AT_TI_symbol_name("x")
    2238                    .dwattr $C$DW$113, DW_AT_type(*$C$DW$T$55)
    2239                    .dwattr $C$DW$113, DW_AT_location[DW_OP_breg1 0]
    2240            
    2241                    .dwpsn  file "../MSP430F5xx_6xx/ucs.c",line 808,column 25,is_stmt,isa 0
    2242 000002 0DCF          MOVA      r13,r15               ; [] |808| 
    2243 000004 1844          RPT #5 || RLAX.W r15 ; [] |808| 
         000006 5F0F 
    2244 000008 4F81          MOV.W     r15,0(SP)             ; [] |808| 
         00000a 0000 
    2245                    .dwpsn  file "../MSP430F5xx_6xx/ucs.c",line 810,column 5,is_stmt,isa 0
    2246            $C$DW$114       .dwtag  DW_TAG_TI_branch
    2247                    .dwattr $C$DW$114, DW_AT_low_pc(0x00)
    2248                    .dwattr $C$DW$114, DW_AT_name("UCS_initFLL")
    2249                    .dwattr $C$DW$114, DW_AT_TI_call
    2250            
    2251 00000c 13B0!         CALLA     #UCS_initFLL          ; [] |810| 
         00000e 0000 
    2252                                                      ; [] |810| 
    2253                    .dwpsn  file "../MSP430F5xx_6xx/ucs.c",line 812,column 5,is_stmt,isa 0
    2254 000010 8391          SUB.W     #1,0(SP)              ; [] |812| 
         000012 0000 
MSP430 Assembler PC v15.12.3 Wed Oct 12 11:20:24 2016

Tools Copyright (c) 2003-2015 Texas Instruments Incorporated
C:\Users\LokBok\AppData\Local\Temp\134442                            PAGE   46

    2255 000014 412F          MOV.W     0(SP),r15             ; [] |812| 
    2256 000016 933F          CMP.W     #65535,r15            ; [] |812| 
    2257 000018 240C          JEQ       $C$L60                ; [] |812| 
    2258                                                      ; [] |812| 
    2259            ;* --------------------------------------------------------------------------*
    2260            ;*   BEGIN LOOP $C$L59
    2261            ;*
    2262            ;*   Loop source line                : 812
    2263            ;*   Loop closing brace source line  : 815
    2264            ;*   Known Minimum Trip Count        : 1
    2265            ;*   Known Maximum Trip Count        : 4294967295
    2266            ;*   Known Max Trip Count Factor     : 1
    2267            ;* --------------------------------------------------------------------------*
    2268 00001a       $C$L59:    
    2269                    .dwpsn  file "../MSP430F5xx_6xx/ucs.c",line 814,column 9,is_stmt,isa 0
    2270                    ; Begin 30 cycle delay
    2271                    .newblock
    2272 00001a 140D          PUSHM.A  #1, r13
    2273 00001c 403D          MOV.W    #6, r13
         00001e 0006 
    2274 000020 831D  $1:     SUB.W    #1, r13
    2275 000022 23FE          JNE      $1
    2276 000024 160D          POPM.A   #1, r13
    2277 000026 3C00          JMP ($ + 2)
    2278                    ; End 30 cycle delay ; [] |814| 
    2279                    .dwpsn  file "../MSP430F5xx_6xx/ucs.c",line 812,column 5,is_stmt,isa 0
    2280 000028 8391          SUB.W     #1,0(SP)              ; [] |812| 
         00002a 0000 
    2281 00002c 412F          MOV.W     0(SP),r15             ; [] |812| 
    2282 00002e 933F          CMP.W     #65535,r15            ; [] |812| 
    2283 000030 23F4          JNE       $C$L59                ; [] |812| 
    2284                                                      ; [] |812| 
    2285            ;* --------------------------------------------------------------------------*
    2286 000032       $C$L60:    
    2287                    .dwpsn  file "../MSP430F5xx_6xx/ucs.c",line 816,column 1,is_stmt,isa 0
    2288 000032 03E1          ADDA      #2,SP                 ; [] 
    2289                    .dwcfi  cfa_offset, 4
    2290            $C$DW$115       .dwtag  DW_TAG_TI_branch
    2291                    .dwattr $C$DW$115, DW_AT_low_pc(0x00)
    2292                    .dwattr $C$DW$115, DW_AT_TI_return
    2293            
    2294 000034 0110          RETA      ; [] 
    2295                    ; [] 
    2296                    .dwattr $C$DW$109, DW_AT_TI_end_file("../MSP430F5xx_6xx/ucs.c")
    2297                    .dwattr $C$DW$109, DW_AT_TI_end_line(0x330)
    2298                    .dwattr $C$DW$109, DW_AT_TI_end_column(0x01)
    2299                    .dwendentry
    2300                    .dwendtag $C$DW$109
    2301            
    2302 000000               .sect   ".text:UCS_initFLL"
    2303                    .clink
    2304                    .global UCS_initFLL
    2305            
    2306            $C$DW$116       .dwtag  DW_TAG_subprogram
    2307                    .dwattr $C$DW$116, DW_AT_name("UCS_initFLL")
MSP430 Assembler PC v15.12.3 Wed Oct 12 11:20:24 2016

Tools Copyright (c) 2003-2015 Texas Instruments Incorporated
C:\Users\LokBok\AppData\Local\Temp\134442                            PAGE   47

    2308                    .dwattr $C$DW$116, DW_AT_low_pc(UCS_initFLL)
    2309                    .dwattr $C$DW$116, DW_AT_high_pc(0x00)
    2310                    .dwattr $C$DW$116, DW_AT_TI_symbol_name("UCS_initFLL")
    2311                    .dwattr $C$DW$116, DW_AT_external
    2312                    .dwattr $C$DW$116, DW_AT_TI_begin_file("../MSP430F5xx_6xx/ucs.c")
    2313                    .dwattr $C$DW$116, DW_AT_TI_begin_line(0x332)
    2314                    .dwattr $C$DW$116, DW_AT_TI_begin_column(0x06)
    2315                    .dwattr $C$DW$116, DW_AT_decl_file("../MSP430F5xx_6xx/ucs.c")
    2316                    .dwattr $C$DW$116, DW_AT_decl_line(0x332)
    2317                    .dwattr $C$DW$116, DW_AT_decl_column(0x06)
    2318                    .dwattr $C$DW$116, DW_AT_TI_max_frame_size(0x04)
    2319                    .dwpsn  file "../MSP430F5xx_6xx/ucs.c",line 820,column 1,is_stmt,address UCS_initFLL,isa 0
    2320            
    2321                    .dwfde $C$DW$CIE, UCS_initFLL
    2322            $C$DW$117       .dwtag  DW_TAG_formal_parameter
    2323                    .dwattr $C$DW$117, DW_AT_name("fsystem")
    2324                    .dwattr $C$DW$117, DW_AT_TI_symbol_name("fsystem")
    2325                    .dwattr $C$DW$117, DW_AT_type(*$C$DW$T$23)
    2326                    .dwattr $C$DW$117, DW_AT_location[DW_OP_reg12]
    2327            
    2328            $C$DW$118       .dwtag  DW_TAG_formal_parameter
    2329                    .dwattr $C$DW$118, DW_AT_name("ratio")
    2330                    .dwattr $C$DW$118, DW_AT_TI_symbol_name("ratio")
    2331                    .dwattr $C$DW$118, DW_AT_type(*$C$DW$T$23)
    2332                    .dwattr $C$DW$118, DW_AT_location[DW_OP_reg13]
    2333            
    2334            
    2335            ;*****************************************************************************
    2336            ;* FUNCTION NAME: UCS_initFLL                                                *
    2337            ;*                                                                           *
    2338            ;*   Regs Modified     : SP,SR,r11,r12,r13,r14,r15                           *
    2339            ;*   Regs Used         : SP,SR,r11,r12,r13,r14,r15                           *
    2340            ;*   Local Frame Size  : 0 Args + 0 Auto + 0 Save = 0 byte                   *
    2341            ;*****************************************************************************
    2342 000000       UCS_initFLL:
    2343            ;* --------------------------------------------------------------------------*
    2344                    .dwcfi  cfa_offset, 4
    2345                    .dwcfi  save_reg_to_mem, 16, -4
    2346            ;* r12   assigned to fsystem
    2347            $C$DW$119       .dwtag  DW_TAG_variable
    2348                    .dwattr $C$DW$119, DW_AT_name("fsystem")
    2349                    .dwattr $C$DW$119, DW_AT_TI_symbol_name("fsystem")
    2350                    .dwattr $C$DW$119, DW_AT_type(*$C$DW$T$23)
    2351                    .dwattr $C$DW$119, DW_AT_location[DW_OP_reg12]
    2352            
    2353            ;* r13   assigned to d
    2354            $C$DW$120       .dwtag  DW_TAG_variable
    2355                    .dwattr $C$DW$120, DW_AT_name("d")
    2356                    .dwattr $C$DW$120, DW_AT_TI_symbol_name("d")
    2357                    .dwattr $C$DW$120, DW_AT_type(*$C$DW$T$23)
    2358                    .dwattr $C$DW$120, DW_AT_location[DW_OP_reg13]
    2359            
    2360            ;* r15   assigned to dco_div_bits
    2361            $C$DW$121       .dwtag  DW_TAG_variable
    2362                    .dwattr $C$DW$121, DW_AT_name("dco_div_bits")
MSP430 Assembler PC v15.12.3 Wed Oct 12 11:20:24 2016

Tools Copyright (c) 2003-2015 Texas Instruments Incorporated
C:\Users\LokBok\AppData\Local\Temp\134442                            PAGE   48

    2363                    .dwattr $C$DW$121, DW_AT_TI_symbol_name("dco_div_bits")
    2364                    .dwattr $C$DW$121, DW_AT_type(*$C$DW$T$23)
    2365                    .dwattr $C$DW$121, DW_AT_location[DW_OP_reg15]
    2366            
    2367            ;* r11   assigned to mode
    2368            $C$DW$122       .dwtag  DW_TAG_variable
    2369                    .dwattr $C$DW$122, DW_AT_name("mode")
    2370                    .dwattr $C$DW$122, DW_AT_TI_symbol_name("mode")
    2371                    .dwattr $C$DW$122, DW_AT_type(*$C$DW$T$23)
    2372                    .dwattr $C$DW$122, DW_AT_location[DW_OP_reg11]
    2373            
    2374            ;* r14   assigned to srRegisterState
    2375            $C$DW$123       .dwtag  DW_TAG_variable
    2376                    .dwattr $C$DW$123, DW_AT_name("srRegisterState")
    2377                    .dwattr $C$DW$123, DW_AT_TI_symbol_name("srRegisterState")
    2378                    .dwattr $C$DW$123, DW_AT_type(*$C$DW$T$23)
    2379                    .dwattr $C$DW$123, DW_AT_location[DW_OP_reg14]
    2380            
    2381                    .dwpsn  file "../MSP430F5xx_6xx/ucs.c",line 822,column 19,is_stmt,isa 0
    2382 000000 430B          MOV.W     #0,r11                ; [] |822| 
    2383                    .dwpsn  file "../MSP430F5xx_6xx/ucs.c",line 827,column 30,is_stmt,isa 0
    2384 000002 420E          MOV.W     SR,r14                ; [] |827| 
    2385 000004 F03E          AND.W     #64,r14               ; [] |827| 
         000006 0040 
    2386                    .dwpsn  file "../MSP430F5xx_6xx/ucs.c",line 829,column 5,is_stmt,isa 0
    2387                    .dwpsn  file "../MSP430F5xx_6xx/ucs.c",line 831,column 5,is_stmt,isa 0
    2388 000008 403F          MOV.W     #4096,r15             ; [] |831| 
         00000a 1000 
    2389                    .dwpsn  file "../MSP430F5xx_6xx/ucs.c",line 833,column 5,is_stmt,isa 0
    2390 00000c 903C          CMP.W     #16001,r12            ; [] |833| 
         00000e 3E81 
    2391 000010 2C02          JHS       $C$L61                ; [] |833| 
    2392                                                      ; [] |833| 
    2393            ;* --------------------------------------------------------------------------*
    2394                    .dwpsn  file "../MSP430F5xx_6xx/ucs.c",line 841,column 9,is_stmt,isa 0
    2395 000012 025C          RLAM.W    #1,r12                ; [] |841| 
    2396 000014 3C02          JMP       $C$L62                ; [] |841| 
    2397                                                      ; [] |841| 
    2398            ;* --------------------------------------------------------------------------*
    2399 000016       $C$L61:    
    2400                    .dwpsn  file "../MSP430F5xx_6xx/ucs.c",line 835,column 9,is_stmt,isa 0
    2401 000016 035D          RRUM.W    #1,r13                ; [] |835| 
    2402                    .dwpsn  file "../MSP430F5xx_6xx/ucs.c",line 836,column 9,is_stmt,isa 0
    2403 000018 431B          MOV.W     #1,r11                ; [] |836| 
    2404            ;* --------------------------------------------------------------------------*
    2405 00001a       $C$L62:    
    2406                    .dwpsn  file "../MSP430F5xx_6xx/ucs.c",line 844,column 11,is_stmt,isa 0
    2407 00001a 903D          CMP.W     #513,r13              ; [] |844| 
         00001c 0201 
    2408 00001e 2806          JLO       $C$L64                ; [] |844| 
    2409                                                      ; [] |844| 
    2410            ;* --------------------------------------------------------------------------*
    2411            ;*   BEGIN LOOP $C$L63
    2412            ;*
    2413            ;*   Loop source line                : 844
MSP430 Assembler PC v15.12.3 Wed Oct 12 11:20:24 2016

Tools Copyright (c) 2003-2015 Texas Instruments Incorporated
C:\Users\LokBok\AppData\Local\Temp\134442                            PAGE   49

    2414            ;*   Loop closing brace source line  : 849
    2415            ;*   Known Minimum Trip Count        : 1
    2416            ;*   Known Maximum Trip Count        : 4294967295
    2417            ;*   Known Max Trip Count Factor     : 1
    2418            ;* --------------------------------------------------------------------------*
    2419 000020       $C$L63:    
    2420                    .dwpsn  file "../MSP430F5xx_6xx/ucs.c",line 847,column 9,is_stmt,isa 0
    2421 000020 503F          ADD.W     #4096,r15             ; [] |847| 
         000022 1000 
    2422                    .dwpsn  file "../MSP430F5xx_6xx/ucs.c",line 848,column 9,is_stmt,isa 0
    2423 000024 035D          RRUM.W    #1,r13                ; [] |848| 
    2424 000026 903D          CMP.W     #513,r13              ; [] |848| 
         000028 0201 
    2425 00002a 2FFA          JHS       $C$L63                ; [] |848| 
    2426                                                      ; [] |848| 
    2427            ;* --------------------------------------------------------------------------*
    2428 00002c       $C$L64:    
    2429                    .dwpsn  file "../MSP430F5xx_6xx/ucs.c",line 852,column 5,is_stmt,isa 0
    2430 00002c D032          BIS.W     #64,SR                ; [] |852| 
         00002e 0040 
    2431                    .dwpsn  file "../MSP430F5xx_6xx/ucs.c",line 855,column 5,is_stmt,isa 0
    2432 000030 43C2          MOV.B     #0,&0x161             ; [] |855| 
         000032 0161 
    2433                    .dwpsn  file "../MSP430F5xx_6xx/ucs.c",line 858,column 5,is_stmt,isa 0
    2434 000034 F0B2          AND.W     #64512,&0x164         ; [] |858| 
         000036 FC00 
         000038 0164 
    2435                    .dwpsn  file "../MSP430F5xx_6xx/ucs.c",line 859,column 5,is_stmt,isa 0
    2436 00003a 831D          SUB.W     #1,r13                ; [] |859| 
    2437 00003c DF0D          OR.W      r15,r13               ; [] |859| 
    2438 00003e 4D82          MOV.W     r13,&0x164            ; [] |859| 
         000040 0164 
    2439                    .dwpsn  file "../MSP430F5xx_6xx/ucs.c",line 861,column 5,is_stmt,isa 0
    2440 000042 903C          CMP.W     #631,r12              ; [] |861| 
         000044 0277 
    2441 000046 282E          JLO       $C$L71                ; [] |861| 
    2442                                                      ; [] |861| 
    2443            ;* --------------------------------------------------------------------------*
    2444                    .dwpsn  file "../MSP430F5xx_6xx/ucs.c",line 865,column 10,is_stmt,isa 0
    2445 000048 903C          CMP.W     #1250,r12             ; [] |865| 
         00004a 04E2 
    2446 00004c 2827          JLO       $C$L70                ; [] |865| 
    2447                                                      ; [] |865| 
    2448            ;* --------------------------------------------------------------------------*
    2449                    .dwpsn  file "../MSP430F5xx_6xx/ucs.c",line 869,column 10,is_stmt,isa 0
    2450 00004e 903C          CMP.W     #2500,r12             ; [] |869| 
         000050 09C4 
    2451 000052 2820          JLO       $C$L69                ; [] |869| 
    2452                                                      ; [] |869| 
    2453            ;* --------------------------------------------------------------------------*
    2454                    .dwpsn  file "../MSP430F5xx_6xx/ucs.c",line 873,column 10,is_stmt,isa 0
    2455 000054 903C          CMP.W     #5000,r12             ; [] |873| 
         000056 1388 
    2456 000058 2819          JLO       $C$L68                ; [] |873| 
    2457                                                      ; [] |873| 
MSP430 Assembler PC v15.12.3 Wed Oct 12 11:20:24 2016

Tools Copyright (c) 2003-2015 Texas Instruments Incorporated
C:\Users\LokBok\AppData\Local\Temp\134442                            PAGE   50

    2458            ;* --------------------------------------------------------------------------*
    2459                    .dwpsn  file "../MSP430F5xx_6xx/ucs.c",line 877,column 10,is_stmt,isa 0
    2460 00005a 903C          CMP.W     #10000,r12            ; [] |877| 
         00005c 2710 
    2461 00005e 2812          JLO       $C$L67                ; [] |877| 
    2462                                                      ; [] |877| 
    2463            ;* --------------------------------------------------------------------------*
    2464                    .dwpsn  file "../MSP430F5xx_6xx/ucs.c",line 881,column 10,is_stmt,isa 0
    2465 000060 903C          CMP.W     #20000,r12            ; [] |881| 
         000062 4E20 
    2466 000064 280B          JLO       $C$L66                ; [] |881| 
    2467                                                      ; [] |881| 
    2468            ;* --------------------------------------------------------------------------*
    2469                    .dwpsn  file "../MSP430F5xx_6xx/ucs.c",line 885,column 10,is_stmt,isa 0
    2470 000066 903C          CMP.W     #40000,r12            ; [] |885| 
         000068 9C40 
    2471 00006a 2804          JLO       $C$L65                ; [] |885| 
    2472                                                      ; [] |885| 
    2473            ;* --------------------------------------------------------------------------*
    2474                    .dwpsn  file "../MSP430F5xx_6xx/ucs.c",line 891,column 9,is_stmt,isa 0
    2475 00006c 40F2          MOV.B     #112,&0x162           ; [] |891| 
         00006e 0070 
         000070 0162 
    2476 000072 3C1A          JMP       $C$L72                ; [] |891| 
    2477                                                      ; [] |891| 
    2478            ;* --------------------------------------------------------------------------*
    2479 000074       $C$L65:    
    2480                    .dwpsn  file "../MSP430F5xx_6xx/ucs.c",line 887,column 9,is_stmt,isa 0
    2481 000074 40F2          MOV.B     #96,&0x162            ; [] |887| 
         000076 0060 
         000078 0162 
    2482                    .dwpsn  file "../MSP430F5xx_6xx/ucs.c",line 888,column 5,is_stmt,isa 0
    2483 00007a 3C16          JMP       $C$L72                ; [] |888| 
    2484                                                      ; [] |888| 
    2485            ;* --------------------------------------------------------------------------*
    2486 00007c       $C$L66:    
    2487                    .dwpsn  file "../MSP430F5xx_6xx/ucs.c",line 883,column 9,is_stmt,isa 0
    2488 00007c 40F2          MOV.B     #80,&0x162            ; [] |883| 
         00007e 0050 
         000080 0162 
    2489                    .dwpsn  file "../MSP430F5xx_6xx/ucs.c",line 884,column 5,is_stmt,isa 0
    2490 000082 3C12          JMP       $C$L72                ; [] |884| 
    2491                                                      ; [] |884| 
    2492            ;* --------------------------------------------------------------------------*
    2493 000084       $C$L67:    
    2494                    .dwpsn  file "../MSP430F5xx_6xx/ucs.c",line 879,column 9,is_stmt,isa 0
    2495 000084 40F2          MOV.B     #64,&0x162            ; [] |879| 
         000086 0040 
         000088 0162 
    2496                    .dwpsn  file "../MSP430F5xx_6xx/ucs.c",line 880,column 5,is_stmt,isa 0
    2497 00008a 3C0E          JMP       $C$L72                ; [] |880| 
    2498                                                      ; [] |880| 
    2499            ;* --------------------------------------------------------------------------*
    2500 00008c       $C$L68:    
    2501                    .dwpsn  file "../MSP430F5xx_6xx/ucs.c",line 875,column 9,is_stmt,isa 0
MSP430 Assembler PC v15.12.3 Wed Oct 12 11:20:24 2016

Tools Copyright (c) 2003-2015 Texas Instruments Incorporated
C:\Users\LokBok\AppData\Local\Temp\134442                            PAGE   51

    2502 00008c 40F2          MOV.B     #48,&0x162            ; [] |875| 
         00008e 0030 
         000090 0162 
    2503                    .dwpsn  file "../MSP430F5xx_6xx/ucs.c",line 876,column 5,is_stmt,isa 0
    2504 000092 3C0A          JMP       $C$L72                ; [] |876| 
    2505                                                      ; [] |876| 
    2506            ;* --------------------------------------------------------------------------*
    2507 000094       $C$L69:    
    2508                    .dwpsn  file "../MSP430F5xx_6xx/ucs.c",line 871,column 9,is_stmt,isa 0
    2509 000094 40F2          MOV.B     #32,&0x162            ; [] |871| 
         000096 0020 
         000098 0162 
    2510                    .dwpsn  file "../MSP430F5xx_6xx/ucs.c",line 872,column 5,is_stmt,isa 0
    2511 00009a 3C06          JMP       $C$L72                ; [] |872| 
    2512                                                      ; [] |872| 
    2513            ;* --------------------------------------------------------------------------*
    2514 00009c       $C$L70:    
    2515                    .dwpsn  file "../MSP430F5xx_6xx/ucs.c",line 867,column 9,is_stmt,isa 0
    2516 00009c 40F2          MOV.B     #16,&0x162            ; [] |867| 
         00009e 0010 
         0000a0 0162 
    2517                    .dwpsn  file "../MSP430F5xx_6xx/ucs.c",line 868,column 5,is_stmt,isa 0
    2518 0000a2 3C02          JMP       $C$L72                ; [] |868| 
    2519                                                      ; [] |868| 
    2520            ;* --------------------------------------------------------------------------*
    2521 0000a4       $C$L71:    
    2522                    .dwpsn  file "../MSP430F5xx_6xx/ucs.c",line 863,column 9,is_stmt,isa 0
    2523 0000a4 43C2          MOV.B     #0,&0x162             ; [] |863| 
         0000a6 0162 
    2524            ;* --------------------------------------------------------------------------*
    2525 0000a8       $C$L72:    
    2526                    .dwpsn  file "../MSP430F5xx_6xx/ucs.c",line 895,column 5,is_stmt,isa 0
    2527 0000a8 C032          BIC.W     #64,SR                ; [] |895| 
         0000aa 0040 
    2528                    .dwpsn  file "../MSP430F5xx_6xx/ucs.c",line 897,column 5,is_stmt,isa 0
    2529 0000ac 3C04          JMP       $C$L74                ; [] |897| 
    2530                                                      ; [] |897| 
    2531            ;* --------------------------------------------------------------------------*
    2532 0000ae       $C$L73:    
    2533                    .dwpsn  file "../MSP430F5xx_6xx/ucs.c",line 900,column 9,is_stmt,isa 0
    2534 0000ae C3D2          BIC.B     #1,&0x16e             ; [] |900| 
         0000b0 016E 
    2535                    .dwpsn  file "../MSP430F5xx_6xx/ucs.c",line 903,column 9,is_stmt,isa 0
    2536 0000b2 C3E2          BIC.B     #2,&0x102             ; [] |903| 
         0000b4 0102 
    2537            ;* --------------------------------------------------------------------------*
    2538            ;*   BEGIN LOOP $C$L74
    2539            ;* --------------------------------------------------------------------------*
    2540 0000b6       $C$L74:    
    2541                    .dwpsn  file "../MSP430F5xx_6xx/ucs.c",line 897,column 5,is_stmt,isa 0
    2542 0000b6 B3D2          BIT.B     #1,&0x16e             ; [] |897| 
         0000b8 016E 
    2543 0000ba 23F9          JNE       $C$L73                ; [] |897| 
    2544                                                      ; [] |897| 
    2545            ;* --------------------------------------------------------------------------*
MSP430 Assembler PC v15.12.3 Wed Oct 12 11:20:24 2016

Tools Copyright (c) 2003-2015 Texas Instruments Incorporated
C:\Users\LokBok\AppData\Local\Temp\134442                            PAGE   52

    2546                    .dwpsn  file "../MSP430F5xx_6xx/ucs.c",line 907,column 5,is_stmt,isa 0
    2547 0000bc 4303          NOP
    2548 0000be DE02          BIS.W    r14,SR
    2549 0000c0 4303          NOP      ; [] |907| 
    2550                    .dwpsn  file "../MSP430F5xx_6xx/ucs.c",line 909,column 5,is_stmt,isa 0
    2551 0000c2 931B          CMP.W     #1,r11                ; [] |909| 
    2552 0000c4 2407          JEQ       $C$L75                ; [] |909| 
    2553                                                      ; [] |909| 
    2554            ;* --------------------------------------------------------------------------*
    2555                    .dwpsn  file "../MSP430F5xx_6xx/ucs.c",line 919,column 9,is_stmt,isa 0
    2556 0000c6 F0B2          AND.W     #65416,&0x168         ; [] |919| 
         0000c8 FF88 
         0000ca 0168 
    2557                    .dwpsn  file "../MSP430F5xx_6xx/ucs.c",line 920,column 9,is_stmt,isa 0
    2558 0000cc D0B2          OR.W      #68,&0x168            ; [] |920| 
         0000ce 0044 
         0000d0 0168 
    2559 0000d2 3C06          JMP       $C$L76                ; [] |920| 
    2560                                                      ; [] |920| 
    2561            ;* --------------------------------------------------------------------------*
    2562 0000d4       $C$L75:    
    2563                    .dwpsn  file "../MSP430F5xx_6xx/ucs.c",line 913,column 9,is_stmt,isa 0
    2564 0000d4 F0B2          AND.W     #65416,&0x168         ; [] |913| 
         0000d6 FF88 
         0000d8 0168 
    2565                    .dwpsn  file "../MSP430F5xx_6xx/ucs.c",line 914,column 9,is_stmt,isa 0
    2566 0000da D0B2          OR.W      #51,&0x168            ; [] |914| 
         0000dc 0033 
         0000de 0168 
    2567            ;* --------------------------------------------------------------------------*
    2568 0000e0       $C$L76:    
    2569                    .dwpsn  file "../MSP430F5xx_6xx/ucs.c",line 922,column 1,is_stmt,isa 0
    2570            $C$DW$124       .dwtag  DW_TAG_TI_branch
    2571                    .dwattr $C$DW$124, DW_AT_low_pc(0x00)
    2572                    .dwattr $C$DW$124, DW_AT_TI_return
    2573            
    2574 0000e0 0110          RETA      ; [] 
    2575                    ; [] 
    2576                    .dwattr $C$DW$116, DW_AT_TI_end_file("../MSP430F5xx_6xx/ucs.c")
    2577                    .dwattr $C$DW$116, DW_AT_TI_end_line(0x39a)
    2578                    .dwattr $C$DW$116, DW_AT_TI_end_column(0x01)
    2579                    .dwendentry
    2580                    .dwendtag $C$DW$116
    2581            
    2582 000000               .sect   ".text:UCS_enableClockRequest"
    2583                    .clink
    2584                    .global UCS_enableClockRequest
    2585            
    2586            $C$DW$125       .dwtag  DW_TAG_subprogram
    2587                    .dwattr $C$DW$125, DW_AT_name("UCS_enableClockRequest")
    2588                    .dwattr $C$DW$125, DW_AT_low_pc(UCS_enableClockRequest)
    2589                    .dwattr $C$DW$125, DW_AT_high_pc(0x00)
    2590                    .dwattr $C$DW$125, DW_AT_TI_symbol_name("UCS_enableClockRequest")
    2591                    .dwattr $C$DW$125, DW_AT_external
    2592                    .dwattr $C$DW$125, DW_AT_TI_begin_file("../MSP430F5xx_6xx/ucs.c")
MSP430 Assembler PC v15.12.3 Wed Oct 12 11:20:24 2016

Tools Copyright (c) 2003-2015 Texas Instruments Incorporated
C:\Users\LokBok\AppData\Local\Temp\134442                            PAGE   53

    2593                    .dwattr $C$DW$125, DW_AT_TI_begin_line(0x39c)
    2594                    .dwattr $C$DW$125, DW_AT_TI_begin_column(0x06)
    2595                    .dwattr $C$DW$125, DW_AT_decl_file("../MSP430F5xx_6xx/ucs.c")
    2596                    .dwattr $C$DW$125, DW_AT_decl_line(0x39c)
    2597                    .dwattr $C$DW$125, DW_AT_decl_column(0x06)
    2598                    .dwattr $C$DW$125, DW_AT_TI_max_frame_size(0x04)
    2599                    .dwpsn  file "../MSP430F5xx_6xx/ucs.c",line 925,column 1,is_stmt,address UCS_enableClockReques
    2600            
    2601                    .dwfde $C$DW$CIE, UCS_enableClockRequest
    2602            $C$DW$126       .dwtag  DW_TAG_formal_parameter
    2603                    .dwattr $C$DW$126, DW_AT_name("selectClock")
    2604                    .dwattr $C$DW$126, DW_AT_TI_symbol_name("selectClock")
    2605                    .dwattr $C$DW$126, DW_AT_type(*$C$DW$T$22)
    2606                    .dwattr $C$DW$126, DW_AT_location[DW_OP_reg12]
    2607            
    2608            
    2609            ;*****************************************************************************
    2610            ;* FUNCTION NAME: UCS_enableClockRequest                                     *
    2611            ;*                                                                           *
    2612            ;*   Regs Modified     : SP                                                  *
    2613            ;*   Regs Used         : SP,r12                                              *
    2614            ;*   Local Frame Size  : 0 Args + 0 Auto + 0 Save = 0 byte                   *
    2615            ;*****************************************************************************
    2616 000000       UCS_enableClockRequest:
    2617            ;* --------------------------------------------------------------------------*
    2618                    .dwcfi  cfa_offset, 4
    2619                    .dwcfi  save_reg_to_mem, 16, -4
    2620            ;* r12   assigned to selectClock
    2621            $C$DW$127       .dwtag  DW_TAG_variable
    2622                    .dwattr $C$DW$127, DW_AT_name("selectClock")
    2623                    .dwattr $C$DW$127, DW_AT_TI_symbol_name("selectClock")
    2624                    .dwattr $C$DW$127, DW_AT_type(*$C$DW$T$22)
    2625                    .dwattr $C$DW$127, DW_AT_location[DW_OP_reg12]
    2626            
    2627                    .dwpsn  file "../MSP430F5xx_6xx/ucs.c",line 926,column 5,is_stmt,isa 0
    2628 000000 DCC2          OR.B      r12,&0x170            ; [] |926| 
         000002 0170 
    2629                    .dwpsn  file "../MSP430F5xx_6xx/ucs.c",line 927,column 1,is_stmt,isa 0
    2630            $C$DW$128       .dwtag  DW_TAG_TI_branch
    2631                    .dwattr $C$DW$128, DW_AT_low_pc(0x00)
    2632                    .dwattr $C$DW$128, DW_AT_TI_return
    2633            
    2634 000004 0110          RETA      ; [] 
    2635                    ; [] 
    2636                    .dwattr $C$DW$125, DW_AT_TI_end_file("../MSP430F5xx_6xx/ucs.c")
    2637                    .dwattr $C$DW$125, DW_AT_TI_end_line(0x39f)
    2638                    .dwattr $C$DW$125, DW_AT_TI_end_column(0x01)
    2639                    .dwendentry
    2640                    .dwendtag $C$DW$125
    2641            
    2642 000000               .sect   ".text:UCS_disableClockRequest"
    2643                    .clink
    2644                    .global UCS_disableClockRequest
    2645            
    2646            $C$DW$129       .dwtag  DW_TAG_subprogram
MSP430 Assembler PC v15.12.3 Wed Oct 12 11:20:24 2016

Tools Copyright (c) 2003-2015 Texas Instruments Incorporated
C:\Users\LokBok\AppData\Local\Temp\134442                            PAGE   54

    2647                    .dwattr $C$DW$129, DW_AT_name("UCS_disableClockRequest")
    2648                    .dwattr $C$DW$129, DW_AT_low_pc(UCS_disableClockRequest)
    2649                    .dwattr $C$DW$129, DW_AT_high_pc(0x00)
    2650                    .dwattr $C$DW$129, DW_AT_TI_symbol_name("UCS_disableClockRequest")
    2651                    .dwattr $C$DW$129, DW_AT_external
    2652                    .dwattr $C$DW$129, DW_AT_TI_begin_file("../MSP430F5xx_6xx/ucs.c")
    2653                    .dwattr $C$DW$129, DW_AT_TI_begin_line(0x3a1)
    2654                    .dwattr $C$DW$129, DW_AT_TI_begin_column(0x06)
    2655                    .dwattr $C$DW$129, DW_AT_decl_file("../MSP430F5xx_6xx/ucs.c")
    2656                    .dwattr $C$DW$129, DW_AT_decl_line(0x3a1)
    2657                    .dwattr $C$DW$129, DW_AT_decl_column(0x06)
    2658                    .dwattr $C$DW$129, DW_AT_TI_max_frame_size(0x04)
    2659                    .dwpsn  file "../MSP430F5xx_6xx/ucs.c",line 930,column 1,is_stmt,address UCS_disableClockReque
    2660            
    2661                    .dwfde $C$DW$CIE, UCS_disableClockRequest
    2662            $C$DW$130       .dwtag  DW_TAG_formal_parameter
    2663                    .dwattr $C$DW$130, DW_AT_name("selectClock")
    2664                    .dwattr $C$DW$130, DW_AT_TI_symbol_name("selectClock")
    2665                    .dwattr $C$DW$130, DW_AT_type(*$C$DW$T$22)
    2666                    .dwattr $C$DW$130, DW_AT_location[DW_OP_reg12]
    2667            
    2668            
    2669            ;*****************************************************************************
    2670            ;* FUNCTION NAME: UCS_disableClockRequest                                    *
    2671            ;*                                                                           *
    2672            ;*   Regs Modified     : SP                                                  *
    2673            ;*   Regs Used         : SP,r12                                              *
    2674            ;*   Local Frame Size  : 0 Args + 0 Auto + 0 Save = 0 byte                   *
    2675            ;*****************************************************************************
    2676 000000       UCS_disableClockRequest:
    2677            ;* --------------------------------------------------------------------------*
    2678                    .dwcfi  cfa_offset, 4
    2679                    .dwcfi  save_reg_to_mem, 16, -4
    2680            ;* r12   assigned to selectClock
    2681            $C$DW$131       .dwtag  DW_TAG_variable
    2682                    .dwattr $C$DW$131, DW_AT_name("selectClock")
    2683                    .dwattr $C$DW$131, DW_AT_TI_symbol_name("selectClock")
    2684                    .dwattr $C$DW$131, DW_AT_type(*$C$DW$T$22)
    2685                    .dwattr $C$DW$131, DW_AT_location[DW_OP_reg12]
    2686            
    2687                    .dwpsn  file "../MSP430F5xx_6xx/ucs.c",line 931,column 5,is_stmt,isa 0
    2688 000000 CCC2          BIC.B     r12,&0x170            ; [] |931| 
         000002 0170 
    2689                    .dwpsn  file "../MSP430F5xx_6xx/ucs.c",line 932,column 1,is_stmt,isa 0
    2690            $C$DW$132       .dwtag  DW_TAG_TI_branch
    2691                    .dwattr $C$DW$132, DW_AT_low_pc(0x00)
    2692                    .dwattr $C$DW$132, DW_AT_TI_return
    2693            
    2694 000004 0110          RETA      ; [] 
    2695                    ; [] 
    2696                    .dwattr $C$DW$129, DW_AT_TI_end_file("../MSP430F5xx_6xx/ucs.c")
    2697                    .dwattr $C$DW$129, DW_AT_TI_end_line(0x3a4)
    2698                    .dwattr $C$DW$129, DW_AT_TI_end_column(0x01)
    2699                    .dwendentry
    2700                    .dwendtag $C$DW$129
MSP430 Assembler PC v15.12.3 Wed Oct 12 11:20:24 2016

Tools Copyright (c) 2003-2015 Texas Instruments Incorporated
C:\Users\LokBok\AppData\Local\Temp\134442                            PAGE   55

    2701            
    2702 000000               .sect   ".text:UCS_getFaultFlagStatus"
    2703                    .clink
    2704                    .global UCS_getFaultFlagStatus
    2705            
    2706            $C$DW$133       .dwtag  DW_TAG_subprogram
    2707                    .dwattr $C$DW$133, DW_AT_name("UCS_getFaultFlagStatus")
    2708                    .dwattr $C$DW$133, DW_AT_low_pc(UCS_getFaultFlagStatus)
    2709                    .dwattr $C$DW$133, DW_AT_high_pc(0x00)
    2710                    .dwattr $C$DW$133, DW_AT_TI_symbol_name("UCS_getFaultFlagStatus")
    2711                    .dwattr $C$DW$133, DW_AT_external
    2712                    .dwattr $C$DW$133, DW_AT_type(*$C$DW$T$22)
    2713                    .dwattr $C$DW$133, DW_AT_TI_begin_file("../MSP430F5xx_6xx/ucs.c")
    2714                    .dwattr $C$DW$133, DW_AT_TI_begin_line(0x3a6)
    2715                    .dwattr $C$DW$133, DW_AT_TI_begin_column(0x09)
    2716                    .dwattr $C$DW$133, DW_AT_decl_file("../MSP430F5xx_6xx/ucs.c")
    2717                    .dwattr $C$DW$133, DW_AT_decl_line(0x3a6)
    2718                    .dwattr $C$DW$133, DW_AT_decl_column(0x09)
    2719                    .dwattr $C$DW$133, DW_AT_TI_max_frame_size(0x04)
    2720                    .dwpsn  file "../MSP430F5xx_6xx/ucs.c",line 935,column 1,is_stmt,address UCS_getFaultFlagStatu
    2721            
    2722                    .dwfde $C$DW$CIE, UCS_getFaultFlagStatus
    2723            $C$DW$134       .dwtag  DW_TAG_formal_parameter
    2724                    .dwattr $C$DW$134, DW_AT_name("mask")
    2725                    .dwattr $C$DW$134, DW_AT_TI_symbol_name("mask")
    2726                    .dwattr $C$DW$134, DW_AT_type(*$C$DW$T$22)
    2727                    .dwattr $C$DW$134, DW_AT_location[DW_OP_reg12]
    2728            
    2729            
    2730            ;*****************************************************************************
    2731            ;* FUNCTION NAME: UCS_getFaultFlagStatus                                     *
    2732            ;*                                                                           *
    2733            ;*   Regs Modified     : SP,SR,r12,r15                                       *
    2734            ;*   Regs Used         : SP,SR,r12,r15                                       *
    2735            ;*   Local Frame Size  : 0 Args + 0 Auto + 0 Save = 0 byte                   *
    2736            ;*****************************************************************************
    2737 000000       UCS_getFaultFlagStatus:
    2738            ;* --------------------------------------------------------------------------*
    2739                    .dwcfi  cfa_offset, 4
    2740                    .dwcfi  save_reg_to_mem, 16, -4
    2741                    .dwpsn  file "../MSP430F5xx_6xx/ucs.c",line 937,column 5,is_stmt,isa 0
    2742 000000 425F          MOV.B     &0x16e,r15            ; [] |937| 
         000002 016E 
    2743 000004 FF4C          AND.B     r15,r12               ; [] |937| 
    2744                    .dwpsn  file "../MSP430F5xx_6xx/ucs.c",line 938,column 1,is_stmt,isa 0
    2745            $C$DW$135       .dwtag  DW_TAG_TI_branch
    2746                    .dwattr $C$DW$135, DW_AT_low_pc(0x00)
    2747                    .dwattr $C$DW$135, DW_AT_TI_return
    2748            
    2749 000006 0110          RETA      ; [] 
    2750                    ; [] 
    2751                    .dwattr $C$DW$133, DW_AT_TI_end_file("../MSP430F5xx_6xx/ucs.c")
    2752                    .dwattr $C$DW$133, DW_AT_TI_end_line(0x3aa)
    2753                    .dwattr $C$DW$133, DW_AT_TI_end_column(0x01)
    2754                    .dwendentry
MSP430 Assembler PC v15.12.3 Wed Oct 12 11:20:24 2016

Tools Copyright (c) 2003-2015 Texas Instruments Incorporated
C:\Users\LokBok\AppData\Local\Temp\134442                            PAGE   56

    2755                    .dwendtag $C$DW$133
    2756            
    2757 000000               .sect   ".text:UCS_clearFaultFlag"
    2758                    .clink
    2759                    .global UCS_clearFaultFlag
    2760            
    2761            $C$DW$136       .dwtag  DW_TAG_subprogram
    2762                    .dwattr $C$DW$136, DW_AT_name("UCS_clearFaultFlag")
    2763                    .dwattr $C$DW$136, DW_AT_low_pc(UCS_clearFaultFlag)
    2764                    .dwattr $C$DW$136, DW_AT_high_pc(0x00)
    2765                    .dwattr $C$DW$136, DW_AT_TI_symbol_name("UCS_clearFaultFlag")
    2766                    .dwattr $C$DW$136, DW_AT_external
    2767                    .dwattr $C$DW$136, DW_AT_TI_begin_file("../MSP430F5xx_6xx/ucs.c")
    2768                    .dwattr $C$DW$136, DW_AT_TI_begin_line(0x3ac)
    2769                    .dwattr $C$DW$136, DW_AT_TI_begin_column(0x06)
    2770                    .dwattr $C$DW$136, DW_AT_decl_file("../MSP430F5xx_6xx/ucs.c")
    2771                    .dwattr $C$DW$136, DW_AT_decl_line(0x3ac)
    2772                    .dwattr $C$DW$136, DW_AT_decl_column(0x06)
    2773                    .dwattr $C$DW$136, DW_AT_TI_max_frame_size(0x04)
    2774                    .dwpsn  file "../MSP430F5xx_6xx/ucs.c",line 941,column 1,is_stmt,address UCS_clearFaultFlag,is
    2775            
    2776                    .dwfde $C$DW$CIE, UCS_clearFaultFlag
    2777            $C$DW$137       .dwtag  DW_TAG_formal_parameter
    2778                    .dwattr $C$DW$137, DW_AT_name("mask")
    2779                    .dwattr $C$DW$137, DW_AT_TI_symbol_name("mask")
    2780                    .dwattr $C$DW$137, DW_AT_type(*$C$DW$T$22)
    2781                    .dwattr $C$DW$137, DW_AT_location[DW_OP_reg12]
    2782            
    2783            
    2784            ;*****************************************************************************
    2785            ;* FUNCTION NAME: UCS_clearFaultFlag                                         *
    2786            ;*                                                                           *
    2787            ;*   Regs Modified     : SP                                                  *
    2788            ;*   Regs Used         : SP,r12                                              *
    2789            ;*   Local Frame Size  : 0 Args + 0 Auto + 0 Save = 0 byte                   *
    2790            ;*****************************************************************************
    2791 000000       UCS_clearFaultFlag:
    2792            ;* --------------------------------------------------------------------------*
    2793                    .dwcfi  cfa_offset, 4
    2794                    .dwcfi  save_reg_to_mem, 16, -4
    2795            ;* r12   assigned to mask
    2796            $C$DW$138       .dwtag  DW_TAG_variable
    2797                    .dwattr $C$DW$138, DW_AT_name("mask")
    2798                    .dwattr $C$DW$138, DW_AT_TI_symbol_name("mask")
    2799                    .dwattr $C$DW$138, DW_AT_type(*$C$DW$T$22)
    2800                    .dwattr $C$DW$138, DW_AT_location[DW_OP_reg12]
    2801            
    2802                    .dwpsn  file "../MSP430F5xx_6xx/ucs.c",line 943,column 5,is_stmt,isa 0
    2803 000000 CCC2          BIC.B     r12,&0x16e            ; [] |943| 
         000002 016E 
    2804                    .dwpsn  file "../MSP430F5xx_6xx/ucs.c",line 944,column 1,is_stmt,isa 0
    2805            $C$DW$139       .dwtag  DW_TAG_TI_branch
    2806                    .dwattr $C$DW$139, DW_AT_low_pc(0x00)
    2807                    .dwattr $C$DW$139, DW_AT_TI_return
    2808            
MSP430 Assembler PC v15.12.3 Wed Oct 12 11:20:24 2016

Tools Copyright (c) 2003-2015 Texas Instruments Incorporated
C:\Users\LokBok\AppData\Local\Temp\134442                            PAGE   57

    2809 000004 0110          RETA      ; [] 
    2810                    ; [] 
    2811                    .dwattr $C$DW$136, DW_AT_TI_end_file("../MSP430F5xx_6xx/ucs.c")
    2812                    .dwattr $C$DW$136, DW_AT_TI_end_line(0x3b0)
    2813                    .dwattr $C$DW$136, DW_AT_TI_end_column(0x01)
    2814                    .dwendentry
    2815                    .dwendtag $C$DW$136
    2816            
    2817 000000               .sect   ".text:UCS_turnOffSMCLK"
    2818                    .clink
    2819                    .global UCS_turnOffSMCLK
    2820            
    2821            $C$DW$140       .dwtag  DW_TAG_subprogram
    2822                    .dwattr $C$DW$140, DW_AT_name("UCS_turnOffSMCLK")
    2823                    .dwattr $C$DW$140, DW_AT_low_pc(UCS_turnOffSMCLK)
    2824                    .dwattr $C$DW$140, DW_AT_high_pc(0x00)
    2825                    .dwattr $C$DW$140, DW_AT_TI_symbol_name("UCS_turnOffSMCLK")
    2826                    .dwattr $C$DW$140, DW_AT_external
    2827                    .dwattr $C$DW$140, DW_AT_TI_begin_file("../MSP430F5xx_6xx/ucs.c")
    2828                    .dwattr $C$DW$140, DW_AT_TI_begin_line(0x3b2)
    2829                    .dwattr $C$DW$140, DW_AT_TI_begin_column(0x06)
    2830                    .dwattr $C$DW$140, DW_AT_decl_file("../MSP430F5xx_6xx/ucs.c")
    2831                    .dwattr $C$DW$140, DW_AT_decl_line(0x3b2)
    2832                    .dwattr $C$DW$140, DW_AT_decl_column(0x06)
    2833                    .dwattr $C$DW$140, DW_AT_TI_max_frame_size(0x04)
    2834                    .dwpsn  file "../MSP430F5xx_6xx/ucs.c",line 947,column 1,is_stmt,address UCS_turnOffSMCLK,isa 
    2835            
    2836                    .dwfde $C$DW$CIE, UCS_turnOffSMCLK
    2837            
    2838            ;*****************************************************************************
    2839            ;* FUNCTION NAME: UCS_turnOffSMCLK                                           *
    2840            ;*                                                                           *
    2841            ;*   Regs Modified     : SP                                                  *
    2842            ;*   Regs Used         : SP                                                  *
    2843            ;*   Local Frame Size  : 0 Args + 0 Auto + 0 Save = 0 byte                   *
    2844            ;*****************************************************************************
    2845 000000       UCS_turnOffSMCLK:
    2846            ;* --------------------------------------------------------------------------*
    2847                    .dwcfi  cfa_offset, 4
    2848                    .dwcfi  save_reg_to_mem, 16, -4
    2849                    .dwpsn  file "../MSP430F5xx_6xx/ucs.c",line 948,column 5,is_stmt,isa 0
    2850 000000 D3A2          OR.W      #2,&0x16c             ; [] |948| 
         000002 016C 
    2851                    .dwpsn  file "../MSP430F5xx_6xx/ucs.c",line 949,column 1,is_stmt,isa 0
    2852            $C$DW$141       .dwtag  DW_TAG_TI_branch
    2853                    .dwattr $C$DW$141, DW_AT_low_pc(0x00)
    2854                    .dwattr $C$DW$141, DW_AT_TI_return
    2855            
    2856 000004 0110          RETA      ; [] 
    2857                    ; [] 
    2858                    .dwattr $C$DW$140, DW_AT_TI_end_file("../MSP430F5xx_6xx/ucs.c")
    2859                    .dwattr $C$DW$140, DW_AT_TI_end_line(0x3b5)
    2860                    .dwattr $C$DW$140, DW_AT_TI_end_column(0x01)
    2861                    .dwendentry
    2862                    .dwendtag $C$DW$140
MSP430 Assembler PC v15.12.3 Wed Oct 12 11:20:24 2016

Tools Copyright (c) 2003-2015 Texas Instruments Incorporated
C:\Users\LokBok\AppData\Local\Temp\134442                            PAGE   58

    2863            
    2864 000000               .sect   ".text:UCS_turnOnSMCLK"
    2865                    .clink
    2866                    .global UCS_turnOnSMCLK
    2867            
    2868            $C$DW$142       .dwtag  DW_TAG_subprogram
    2869                    .dwattr $C$DW$142, DW_AT_name("UCS_turnOnSMCLK")
    2870                    .dwattr $C$DW$142, DW_AT_low_pc(UCS_turnOnSMCLK)
    2871                    .dwattr $C$DW$142, DW_AT_high_pc(0x00)
    2872                    .dwattr $C$DW$142, DW_AT_TI_symbol_name("UCS_turnOnSMCLK")
    2873                    .dwattr $C$DW$142, DW_AT_external
    2874                    .dwattr $C$DW$142, DW_AT_TI_begin_file("../MSP430F5xx_6xx/ucs.c")
    2875                    .dwattr $C$DW$142, DW_AT_TI_begin_line(0x3b7)
    2876                    .dwattr $C$DW$142, DW_AT_TI_begin_column(0x06)
    2877                    .dwattr $C$DW$142, DW_AT_decl_file("../MSP430F5xx_6xx/ucs.c")
    2878                    .dwattr $C$DW$142, DW_AT_decl_line(0x3b7)
    2879                    .dwattr $C$DW$142, DW_AT_decl_column(0x06)
    2880                    .dwattr $C$DW$142, DW_AT_TI_max_frame_size(0x04)
    2881                    .dwpsn  file "../MSP430F5xx_6xx/ucs.c",line 952,column 1,is_stmt,address UCS_turnOnSMCLK,isa 0
    2882            
    2883                    .dwfde $C$DW$CIE, UCS_turnOnSMCLK
    2884            
    2885            ;*****************************************************************************
    2886            ;* FUNCTION NAME: UCS_turnOnSMCLK                                            *
    2887            ;*                                                                           *
    2888            ;*   Regs Modified     : SP                                                  *
    2889            ;*   Regs Used         : SP                                                  *
    2890            ;*   Local Frame Size  : 0 Args + 0 Auto + 0 Save = 0 byte                   *
    2891            ;*****************************************************************************
    2892 000000       UCS_turnOnSMCLK:
    2893            ;* --------------------------------------------------------------------------*
    2894                    .dwcfi  cfa_offset, 4
    2895                    .dwcfi  save_reg_to_mem, 16, -4
    2896                    .dwpsn  file "../MSP430F5xx_6xx/ucs.c",line 953,column 5,is_stmt,isa 0
    2897 000000 C3A2          BIC.W     #2,&0x16c             ; [] |953| 
         000002 016C 
    2898                    .dwpsn  file "../MSP430F5xx_6xx/ucs.c",line 954,column 1,is_stmt,isa 0
    2899            $C$DW$143       .dwtag  DW_TAG_TI_branch
    2900                    .dwattr $C$DW$143, DW_AT_low_pc(0x00)
    2901                    .dwattr $C$DW$143, DW_AT_TI_return
    2902            
    2903 000004 0110          RETA      ; [] 
    2904                    ; [] 
    2905                    .dwattr $C$DW$142, DW_AT_TI_end_file("../MSP430F5xx_6xx/ucs.c")
    2906                    .dwattr $C$DW$142, DW_AT_TI_end_line(0x3ba)
    2907                    .dwattr $C$DW$142, DW_AT_TI_end_column(0x01)
    2908                    .dwendentry
    2909                    .dwendtag $C$DW$142
    2910            
    2911 000000               .sect   ".text:UCS_getACLK"
    2912                    .clink
    2913                    .global UCS_getACLK
    2914            
    2915            $C$DW$144       .dwtag  DW_TAG_subprogram
    2916                    .dwattr $C$DW$144, DW_AT_name("UCS_getACLK")
MSP430 Assembler PC v15.12.3 Wed Oct 12 11:20:24 2016

Tools Copyright (c) 2003-2015 Texas Instruments Incorporated
C:\Users\LokBok\AppData\Local\Temp\134442                            PAGE   59

    2917                    .dwattr $C$DW$144, DW_AT_low_pc(UCS_getACLK)
    2918                    .dwattr $C$DW$144, DW_AT_high_pc(0x00)
    2919                    .dwattr $C$DW$144, DW_AT_TI_symbol_name("UCS_getACLK")
    2920                    .dwattr $C$DW$144, DW_AT_external
    2921                    .dwattr $C$DW$144, DW_AT_type(*$C$DW$T$20)
    2922                    .dwattr $C$DW$144, DW_AT_TI_begin_file("../MSP430F5xx_6xx/ucs.c")
    2923                    .dwattr $C$DW$144, DW_AT_TI_begin_line(0x3bc)
    2924                    .dwattr $C$DW$144, DW_AT_TI_begin_column(0x0a)
    2925                    .dwattr $C$DW$144, DW_AT_decl_file("../MSP430F5xx_6xx/ucs.c")
    2926                    .dwattr $C$DW$144, DW_AT_decl_line(0x3bc)
    2927                    .dwattr $C$DW$144, DW_AT_decl_column(0x0a)
    2928                    .dwattr $C$DW$144, DW_AT_TI_max_frame_size(0x04)
    2929                    .dwpsn  file "../MSP430F5xx_6xx/ucs.c",line 957,column 1,is_stmt,address UCS_getACLK,isa 0
    2930            
    2931                    .dwfde $C$DW$CIE, UCS_getACLK
    2932            
    2933            ;*****************************************************************************
    2934            ;* FUNCTION NAME: UCS_getACLK                                                *
    2935            ;*                                                                           *
    2936            ;*   Regs Modified     : SP,SR,r11,r12,r13,r14,r15                           *
    2937            ;*   Regs Used         : SP,SR,r11,r12,r13,r14,r15                           *
    2938            ;*   Local Frame Size  : 0 Args + 0 Auto + 0 Save = 0 byte                   *
    2939            ;*****************************************************************************
    2940 000000       UCS_getACLK:
    2941            ;* --------------------------------------------------------------------------*
    2942                    .dwcfi  cfa_offset, 4
    2943                    .dwcfi  save_reg_to_mem, 16, -4
    2944            ;* r12   assigned to ACLKSource
    2945            $C$DW$145       .dwtag  DW_TAG_variable
    2946                    .dwattr $C$DW$145, DW_AT_name("ACLKSource")
    2947                    .dwattr $C$DW$145, DW_AT_TI_symbol_name("ACLKSource")
    2948                    .dwattr $C$DW$145, DW_AT_type(*$C$DW$T$23)
    2949                    .dwattr $C$DW$145, DW_AT_location[DW_OP_reg12]
    2950            
    2951            ;* r13   assigned to ACLKSourceDivider
    2952            $C$DW$146       .dwtag  DW_TAG_variable
    2953                    .dwattr $C$DW$146, DW_AT_name("ACLKSourceDivider")
    2954                    .dwattr $C$DW$146, DW_AT_TI_symbol_name("ACLKSourceDivider")
    2955                    .dwattr $C$DW$146, DW_AT_type(*$C$DW$T$23)
    2956                    .dwattr $C$DW$146, DW_AT_location[DW_OP_reg13]
    2957            
    2958                    .dwpsn  file "../MSP430F5xx_6xx/ucs.c",line 959,column 25,is_stmt,isa 0
    2959 000000 403C          MOV.W     #1792,r12             ; [] |959| 
         000002 0700 
    2960 000004 F21C          AND.W     &0x168,r12            ; [] |959| 
         000006 0168 
    2961                    .dwpsn  file "../MSP430F5xx_6xx/ucs.c",line 963,column 32,is_stmt,isa 0
    2962 000008 403D          MOV.W     #1792,r13             ; [] |963| 
         00000a 0700 
    2963 00000c F21D          AND.W     &0x16a,r13            ; [] |963| 
         00000e 016A 
    2964                    .dwpsn  file "../MSP430F5xx_6xx/ucs.c",line 966,column 5,is_stmt,isa 0
    2965 000010 108C          SWPB      r12                   ; [] |966| 
    2966 000012 4C4C          MOV.B     r12,r12               ; [] |966| 
    2967 000014 108D          SWPB      r13                   ; [] |966| 
MSP430 Assembler PC v15.12.3 Wed Oct 12 11:20:24 2016

Tools Copyright (c) 2003-2015 Texas Instruments Incorporated
C:\Users\LokBok\AppData\Local\Temp\134442                            PAGE   60

    2968 000016 4D4D          MOV.B     r13,r13               ; [] |966| 
    2969            $C$DW$147       .dwtag  DW_TAG_TI_branch
    2970                    .dwattr $C$DW$147, DW_AT_low_pc(0x00)
    2971                    .dwattr $C$DW$147, DW_AT_name("privateUCSComputeCLKFrequency")
    2972                    .dwattr $C$DW$147, DW_AT_TI_call
    2973            
    2974 000018 13B0!         CALLA     #privateUCSComputeCLKFrequency ; [] |966| 
         00001a 0000 
    2975                                                      ; [] |966| 
    2976                    .dwpsn  file "../MSP430F5xx_6xx/ucs.c",line 970,column 1,is_stmt,isa 0
    2977            $C$DW$148       .dwtag  DW_TAG_TI_branch
    2978                    .dwattr $C$DW$148, DW_AT_low_pc(0x00)
    2979                    .dwattr $C$DW$148, DW_AT_TI_return
    2980            
    2981 00001c 0110          RETA      ; [] 
    2982                    ; [] 
    2983                    .dwattr $C$DW$144, DW_AT_TI_end_file("../MSP430F5xx_6xx/ucs.c")
    2984                    .dwattr $C$DW$144, DW_AT_TI_end_line(0x3ca)
    2985                    .dwattr $C$DW$144, DW_AT_TI_end_column(0x01)
    2986                    .dwendentry
    2987                    .dwendtag $C$DW$144
    2988            
    2989 000000               .sect   ".text:UCS_getSMCLK"
    2990                    .clink
    2991                    .global UCS_getSMCLK
    2992            
    2993            $C$DW$149       .dwtag  DW_TAG_subprogram
    2994                    .dwattr $C$DW$149, DW_AT_name("UCS_getSMCLK")
    2995                    .dwattr $C$DW$149, DW_AT_low_pc(UCS_getSMCLK)
    2996                    .dwattr $C$DW$149, DW_AT_high_pc(0x00)
    2997                    .dwattr $C$DW$149, DW_AT_TI_symbol_name("UCS_getSMCLK")
    2998                    .dwattr $C$DW$149, DW_AT_external
    2999                    .dwattr $C$DW$149, DW_AT_type(*$C$DW$T$20)
    3000                    .dwattr $C$DW$149, DW_AT_TI_begin_file("../MSP430F5xx_6xx/ucs.c")
    3001                    .dwattr $C$DW$149, DW_AT_TI_begin_line(0x3cc)
    3002                    .dwattr $C$DW$149, DW_AT_TI_begin_column(0x0a)
    3003                    .dwattr $C$DW$149, DW_AT_decl_file("../MSP430F5xx_6xx/ucs.c")
    3004                    .dwattr $C$DW$149, DW_AT_decl_line(0x3cc)
    3005                    .dwattr $C$DW$149, DW_AT_decl_column(0x0a)
    3006                    .dwattr $C$DW$149, DW_AT_TI_max_frame_size(0x04)
    3007                    .dwpsn  file "../MSP430F5xx_6xx/ucs.c",line 973,column 1,is_stmt,address UCS_getSMCLK,isa 0
    3008            
    3009                    .dwfde $C$DW$CIE, UCS_getSMCLK
    3010            
    3011            ;*****************************************************************************
    3012            ;* FUNCTION NAME: UCS_getSMCLK                                               *
    3013            ;*                                                                           *
    3014            ;*   Regs Modified     : SP,SR,r11,r12,r13,r14,r15                           *
    3015            ;*   Regs Used         : SP,SR,r11,r12,r13,r14,r15                           *
    3016            ;*   Local Frame Size  : 0 Args + 0 Auto + 0 Save = 0 byte                   *
    3017            ;*****************************************************************************
    3018 000000       UCS_getSMCLK:
    3019            ;* --------------------------------------------------------------------------*
    3020                    .dwcfi  cfa_offset, 4
    3021                    .dwcfi  save_reg_to_mem, 16, -4
MSP430 Assembler PC v15.12.3 Wed Oct 12 11:20:24 2016

Tools Copyright (c) 2003-2015 Texas Instruments Incorporated
C:\Users\LokBok\AppData\Local\Temp\134442                            PAGE   61

    3022            ;* r12   assigned to SMCLKSource
    3023            $C$DW$150       .dwtag  DW_TAG_variable
    3024                    .dwattr $C$DW$150, DW_AT_name("SMCLKSource")
    3025                    .dwattr $C$DW$150, DW_AT_TI_symbol_name("SMCLKSource")
    3026                    .dwattr $C$DW$150, DW_AT_type(*$C$DW$T$23)
    3027                    .dwattr $C$DW$150, DW_AT_location[DW_OP_reg12]
    3028            
    3029            ;* r13   assigned to SMCLKSourceDivider
    3030            $C$DW$151       .dwtag  DW_TAG_variable
    3031                    .dwattr $C$DW$151, DW_AT_name("SMCLKSourceDivider")
    3032                    .dwattr $C$DW$151, DW_AT_TI_symbol_name("SMCLKSourceDivider")
    3033                    .dwattr $C$DW$151, DW_AT_type(*$C$DW$T$23)
    3034                    .dwattr $C$DW$151, DW_AT_location[DW_OP_reg13]
    3035            
    3036                    .dwpsn  file "../MSP430F5xx_6xx/ucs.c",line 974,column 26,is_stmt,isa 0
    3037 000000 425C          MOV.B     &0x168,r12            ; [] |974| 
         000002 0168 
    3038 000004 F03C          AND.W     #112,r12              ; [] |974| 
         000006 0070 
    3039                    .dwpsn  file "../MSP430F5xx_6xx/ucs.c",line 978,column 33,is_stmt,isa 0
    3040 000008 403D          MOV.W     #112,r13              ; [] |978| 
         00000a 0070 
    3041 00000c F21D          AND.W     &0x16a,r13            ; [] |978| 
         00000e 016A 
    3042                    .dwpsn  file "../MSP430F5xx_6xx/ucs.c",line 982,column 5,is_stmt,isa 0
    3043 000010 0F5C          RRUM.W    #4,r12                ; [] |982| 
    3044 000012 0F5D          RRUM.W    #4,r13                ; [] |982| 
    3045            $C$DW$152       .dwtag  DW_TAG_TI_branch
    3046                    .dwattr $C$DW$152, DW_AT_low_pc(0x00)
    3047                    .dwattr $C$DW$152, DW_AT_name("privateUCSComputeCLKFrequency")
    3048                    .dwattr $C$DW$152, DW_AT_TI_call
    3049            
    3050 000014 13B0!         CALLA     #privateUCSComputeCLKFrequency ; [] |982| 
         000016 0000 
    3051                                                      ; [] |982| 
    3052                    .dwpsn  file "../MSP430F5xx_6xx/ucs.c",line 986,column 1,is_stmt,isa 0
    3053            $C$DW$153       .dwtag  DW_TAG_TI_branch
    3054                    .dwattr $C$DW$153, DW_AT_low_pc(0x00)
    3055                    .dwattr $C$DW$153, DW_AT_TI_return
    3056            
    3057 000018 0110          RETA      ; [] 
    3058                    ; [] 
    3059                    .dwattr $C$DW$149, DW_AT_TI_end_file("../MSP430F5xx_6xx/ucs.c")
    3060                    .dwattr $C$DW$149, DW_AT_TI_end_line(0x3da)
    3061                    .dwattr $C$DW$149, DW_AT_TI_end_column(0x01)
    3062                    .dwendentry
    3063                    .dwendtag $C$DW$149
    3064            
    3065 000000               .sect   ".text:UCS_getMCLK"
    3066                    .clink
    3067                    .global UCS_getMCLK
    3068            
    3069            $C$DW$154       .dwtag  DW_TAG_subprogram
    3070                    .dwattr $C$DW$154, DW_AT_name("UCS_getMCLK")
    3071                    .dwattr $C$DW$154, DW_AT_low_pc(UCS_getMCLK)
MSP430 Assembler PC v15.12.3 Wed Oct 12 11:20:24 2016

Tools Copyright (c) 2003-2015 Texas Instruments Incorporated
C:\Users\LokBok\AppData\Local\Temp\134442                            PAGE   62

    3072                    .dwattr $C$DW$154, DW_AT_high_pc(0x00)
    3073                    .dwattr $C$DW$154, DW_AT_TI_symbol_name("UCS_getMCLK")
    3074                    .dwattr $C$DW$154, DW_AT_external
    3075                    .dwattr $C$DW$154, DW_AT_type(*$C$DW$T$20)
    3076                    .dwattr $C$DW$154, DW_AT_TI_begin_file("../MSP430F5xx_6xx/ucs.c")
    3077                    .dwattr $C$DW$154, DW_AT_TI_begin_line(0x3dc)
    3078                    .dwattr $C$DW$154, DW_AT_TI_begin_column(0x0a)
    3079                    .dwattr $C$DW$154, DW_AT_decl_file("../MSP430F5xx_6xx/ucs.c")
    3080                    .dwattr $C$DW$154, DW_AT_decl_line(0x3dc)
    3081                    .dwattr $C$DW$154, DW_AT_decl_column(0x0a)
    3082                    .dwattr $C$DW$154, DW_AT_TI_max_frame_size(0x04)
    3083                    .dwpsn  file "../MSP430F5xx_6xx/ucs.c",line 989,column 1,is_stmt,address UCS_getMCLK,isa 0
    3084            
    3085                    .dwfde $C$DW$CIE, UCS_getMCLK
    3086            
    3087            ;*****************************************************************************
    3088            ;* FUNCTION NAME: UCS_getMCLK                                                *
    3089            ;*                                                                           *
    3090            ;*   Regs Modified     : SP,SR,r11,r12,r13,r14,r15                           *
    3091            ;*   Regs Used         : SP,SR,r11,r12,r13,r14,r15                           *
    3092            ;*   Local Frame Size  : 0 Args + 0 Auto + 0 Save = 0 byte                   *
    3093            ;*****************************************************************************
    3094 000000       UCS_getMCLK:
    3095            ;* --------------------------------------------------------------------------*
    3096                    .dwcfi  cfa_offset, 4
    3097                    .dwcfi  save_reg_to_mem, 16, -4
    3098                    .dwpsn  file "../MSP430F5xx_6xx/ucs.c",line 991,column 25,is_stmt,isa 0
    3099 000000 403C          MOV.W     #7,r12                ; [] |991| 
         000002 0007 
    3100 000004 F21C          AND.W     &0x168,r12            ; [] |991| 
         000006 0168 
    3101                    .dwpsn  file "../MSP430F5xx_6xx/ucs.c",line 993,column 32,is_stmt,isa 0
    3102 000008 403D          MOV.W     #7,r13                ; [] |993| 
         00000a 0007 
    3103 00000c F21D          AND.W     &0x16a,r13            ; [] |993| 
         00000e 016A 
    3104                    .dwpsn  file "../MSP430F5xx_6xx/ucs.c",line 995,column 5,is_stmt,isa 0
    3105            $C$DW$155       .dwtag  DW_TAG_TI_branch
    3106                    .dwattr $C$DW$155, DW_AT_low_pc(0x00)
    3107                    .dwattr $C$DW$155, DW_AT_name("privateUCSComputeCLKFrequency")
    3108                    .dwattr $C$DW$155, DW_AT_TI_call
    3109            
    3110 000010 13B0!         CALLA     #privateUCSComputeCLKFrequency ; [] |995| 
         000012 0000 
    3111                                                      ; [] |995| 
    3112                    .dwpsn  file "../MSP430F5xx_6xx/ucs.c",line 999,column 1,is_stmt,isa 0
    3113            $C$DW$156       .dwtag  DW_TAG_TI_branch
    3114                    .dwattr $C$DW$156, DW_AT_low_pc(0x00)
    3115                    .dwattr $C$DW$156, DW_AT_TI_return
    3116            
    3117 000014 0110          RETA      ; [] 
    3118                    ; [] 
    3119                    .dwattr $C$DW$154, DW_AT_TI_end_file("../MSP430F5xx_6xx/ucs.c")
    3120                    .dwattr $C$DW$154, DW_AT_TI_end_line(0x3e7)
    3121                    .dwattr $C$DW$154, DW_AT_TI_end_column(0x01)
MSP430 Assembler PC v15.12.3 Wed Oct 12 11:20:24 2016

Tools Copyright (c) 2003-2015 Texas Instruments Incorporated
C:\Users\LokBok\AppData\Local\Temp\134442                            PAGE   63

    3122                    .dwendentry
    3123                    .dwendtag $C$DW$154
    3124            
    3125 000000               .sect   ".text:UCS_clearAllOscFlagsWithTimeout"
    3126                    .clink
    3127                    .global UCS_clearAllOscFlagsWithTimeout
    3128            
    3129            $C$DW$157       .dwtag  DW_TAG_subprogram
    3130                    .dwattr $C$DW$157, DW_AT_name("UCS_clearAllOscFlagsWithTimeout")
    3131                    .dwattr $C$DW$157, DW_AT_low_pc(UCS_clearAllOscFlagsWithTimeout)
    3132                    .dwattr $C$DW$157, DW_AT_high_pc(0x00)
    3133                    .dwattr $C$DW$157, DW_AT_TI_symbol_name("UCS_clearAllOscFlagsWithTimeout")
    3134                    .dwattr $C$DW$157, DW_AT_external
    3135                    .dwattr $C$DW$157, DW_AT_type(*$C$DW$T$23)
    3136                    .dwattr $C$DW$157, DW_AT_TI_begin_file("../MSP430F5xx_6xx/ucs.c")
    3137                    .dwattr $C$DW$157, DW_AT_TI_begin_line(0x3e9)
    3138                    .dwattr $C$DW$157, DW_AT_TI_begin_column(0x0a)
    3139                    .dwattr $C$DW$157, DW_AT_decl_file("../MSP430F5xx_6xx/ucs.c")
    3140                    .dwattr $C$DW$157, DW_AT_decl_line(0x3e9)
    3141                    .dwattr $C$DW$157, DW_AT_decl_column(0x0a)
    3142                    .dwattr $C$DW$157, DW_AT_TI_max_frame_size(0x04)
    3143                    .dwpsn  file "../MSP430F5xx_6xx/ucs.c",line 1002,column 1,is_stmt,address UCS_clearAllOscFlags
    3144            
    3145                    .dwfde $C$DW$CIE, UCS_clearAllOscFlagsWithTimeout
    3146            $C$DW$158       .dwtag  DW_TAG_formal_parameter
    3147                    .dwattr $C$DW$158, DW_AT_name("timeout")
    3148                    .dwattr $C$DW$158, DW_AT_TI_symbol_name("timeout")
    3149                    .dwattr $C$DW$158, DW_AT_type(*$C$DW$T$23)
    3150                    .dwattr $C$DW$158, DW_AT_location[DW_OP_reg12]
    3151            
    3152            
    3153            ;*****************************************************************************
    3154            ;* FUNCTION NAME: UCS_clearAllOscFlagsWithTimeout                            *
    3155            ;*                                                                           *
    3156            ;*   Regs Modified     : SP,SR,r12                                           *
    3157            ;*   Regs Used         : SP,SR,r12                                           *
    3158            ;*   Local Frame Size  : 0 Args + 0 Auto + 0 Save = 0 byte                   *
    3159            ;*****************************************************************************
    3160 000000       UCS_clearAllOscFlagsWithTimeout:
    3161            ;* --------------------------------------------------------------------------*
    3162                    .dwcfi  cfa_offset, 4
    3163                    .dwcfi  save_reg_to_mem, 16, -4
    3164            ;* r12   assigned to timeout
    3165            $C$DW$159       .dwtag  DW_TAG_variable
    3166                    .dwattr $C$DW$159, DW_AT_name("timeout")
    3167                    .dwattr $C$DW$159, DW_AT_TI_symbol_name("timeout")
    3168                    .dwattr $C$DW$159, DW_AT_type(*$C$DW$T$23)
    3169                    .dwattr $C$DW$159, DW_AT_location[DW_OP_reg12]
    3170            
    3171            ;* --------------------------------------------------------------------------*
    3172            ;*   BEGIN LOOP $C$L77
    3173            ;*
    3174            ;*   Loop source line                : 1005
    3175            ;*   Loop closing brace source line  : 1025
    3176            ;*   Known Minimum Trip Count        : 1
MSP430 Assembler PC v15.12.3 Wed Oct 12 11:20:24 2016

Tools Copyright (c) 2003-2015 Texas Instruments Incorporated
C:\Users\LokBok\AppData\Local\Temp\134442                            PAGE   64

    3177            ;*   Known Maximum Trip Count        : 4294967295
    3178            ;*   Known Max Trip Count Factor     : 1
    3179            ;* --------------------------------------------------------------------------*
    3180 000000       $C$L77:    
    3181                    .dwpsn  file "../MSP430F5xx_6xx/ucs.c",line 1008,column 9,is_stmt,isa 0
    3182 000000 F0F2          AND.B     #240,&0x16e           ; [] |1008| 
         000002 00F0 
         000004 016E 
    3183                    .dwpsn  file "../MSP430F5xx_6xx/ucs.c",line 1022,column 9,is_stmt,isa 0
    3184 000006 C3E2          BIC.B     #2,&0x102             ; [] |1022| 
         000008 0102 
    3185                    .dwpsn  file "../MSP430F5xx_6xx/ucs.c",line 1026,column 11,is_stmt,isa 0
    3186 00000a B3E2          BIT.B     #2,&0x102             ; [] |1026| 
         00000c 0102 
    3187 00000e 2402          JEQ       $C$L78                ; [] |1026| 
    3188                                                      ; [] |1026| 
    3189            ;* --------------------------------------------------------------------------*
    3190 000010 831C          SUB.W     #1,r12                ; [] |1026| 
    3191 000012 23F6          JNE       $C$L77                ; [] |1026| 
    3192                                                      ; [] |1026| 
    3193            ;* --------------------------------------------------------------------------*
    3194 000014       $C$L78:    
    3195                    .dwpsn  file "../MSP430F5xx_6xx/ucs.c",line 1028,column 5,is_stmt,isa 0
    3196 000014 425C          MOV.B     &0x16e,r12            ; [] |1028| 
         000016 016E 
    3197 000018 F03C          AND.W     #15,r12               ; [] |1028| 
         00001a 000F 
    3198                    .dwpsn  file "../MSP430F5xx_6xx/ucs.c",line 1033,column 1,is_stmt,isa 0
    3199            $C$DW$160       .dwtag  DW_TAG_TI_branch
    3200                    .dwattr $C$DW$160, DW_AT_low_pc(0x00)
    3201                    .dwattr $C$DW$160, DW_AT_TI_return
    3202            
    3203 00001c 0110          RETA      ; [] 
    3204                    ; [] 
    3205                    .dwattr $C$DW$157, DW_AT_TI_end_file("../MSP430F5xx_6xx/ucs.c")
    3206                    .dwattr $C$DW$157, DW_AT_TI_end_line(0x409)
    3207                    .dwattr $C$DW$157, DW_AT_TI_end_column(0x01)
    3208                    .dwendentry
    3209                    .dwendtag $C$DW$157
    3210            
    3211            ;*****************************************************************************
    3212            ;* UNDEFINED EXTERNAL REFERENCES                                             *
    3213            ;*****************************************************************************
    3214                    .global __mspabi_slli
    3215                    .global __mspabi_divul
    3216                    .global __mspabi_mpyl
    3217                    .global __mspabi_divli
    3218                    .global __mspabi_divi
    3219            
    3220            ;******************************************************************************
    3221            ;* BUILD ATTRIBUTES                                                           *
    3222            ;******************************************************************************
    3223                    .battr "TI", Tag_File, 1, Tag_LPM_INFO(2)
    3224                    .battr "TI", Tag_File, 1, Tag_PORTS_INIT_INFO("012345678901ABCDEFGHIJ0000000000001111000000000
    3225                    .battr "TI", Tag_File, 1, Tag_HW_MPY32_INFO(2)
MSP430 Assembler PC v15.12.3 Wed Oct 12 11:20:24 2016

Tools Copyright (c) 2003-2015 Texas Instruments Incorporated
C:\Users\LokBok\AppData\Local\Temp\134442                            PAGE   65

    3226                    .battr "TI", Tag_File, 1, Tag_HW_MPY_ISR_INFO(1)
    3227                    .battr "TI", Tag_File, 1, Tag_HW_MPY_INLINE_INFO(1)
    3228                    .battr "mspabi", Tag_File, 1, Tag_enum_size(3)
    3229            
    3230            ;******************************************************************************
    3231            ;* TYPE INFORMATION                                                           *
    3232            ;******************************************************************************
    3233            $C$DW$T$2       .dwtag  DW_TAG_unspecified_type
    3234                    .dwattr $C$DW$T$2, DW_AT_name("void")
    3235            
    3236            
    3237            $C$DW$T$31      .dwtag  DW_TAG_subroutine_type
    3238                    .dwattr $C$DW$T$31, DW_AT_language(DW_LANG_C)
    3239                    .dwendtag $C$DW$T$31
    3240            
    3241            $C$DW$T$32      .dwtag  DW_TAG_pointer_type
    3242                    .dwattr $C$DW$T$32, DW_AT_type(*$C$DW$T$31)
    3243                    .dwattr $C$DW$T$32, DW_AT_address_class(0x14)
    3244            
    3245            $C$DW$T$33      .dwtag  DW_TAG_typedef
    3246                    .dwattr $C$DW$T$33, DW_AT_name("__SFR_FARPTR")
    3247                    .dwattr $C$DW$T$33, DW_AT_type(*$C$DW$T$32)
    3248                    .dwattr $C$DW$T$33, DW_AT_language(DW_LANG_C)
    3249                    .dwattr $C$DW$T$33, DW_AT_decl_file("D:\Program Files\TI CCSv6\ccsv6\ccs_base\msp430\include\m
    3250                    .dwattr $C$DW$T$33, DW_AT_decl_line(0x47)
    3251                    .dwattr $C$DW$T$33, DW_AT_decl_column(0x11)
    3252            
    3253            $C$DW$T$4       .dwtag  DW_TAG_base_type
    3254                    .dwattr $C$DW$T$4, DW_AT_encoding(DW_ATE_boolean)
    3255                    .dwattr $C$DW$T$4, DW_AT_name("bool")
