MSP430 Assembler PC v15.12.3 Mon Oct 17 14:33:14 2016

Tools Copyright (c) 2003-2015 Texas Instruments Incorporated
C:\Users\madis\AppData\Local\Temp\015282                             PAGE    1

       1            ;******************************************************************************
       2            ;* MSP430 C/C++ Codegen                                       PC v15.12.3.LTS *
       3            ;* Date/Time created: Mon Oct 17 14:33:14 2016                                *
       4            ;******************************************************************************
       5                    .compiler_opts --abi=eabi --diag_wrap=off --hll_source=on --mem_model:code=large --mem_model:d
       6            
       7            $C$DW$CU        .dwtag  DW_TAG_compile_unit
       8                    .dwattr $C$DW$CU, DW_AT_name("../MSP430F5xx_6xx/usci_a_spi.c")
       9                    .dwattr $C$DW$CU, DW_AT_producer("TI MSP430 C/C++ Codegen PC v15.12.3.LTS Copyright (c) 2003-2
      10                    .dwattr $C$DW$CU, DW_AT_TI_version(0x01)
      11                    .dwattr $C$DW$CU, DW_AT_comp_dir("D:\CodeComposerProj\CardReader001\src\Debug")
      12            ;       D:\ti\ccsv6\tools\compiler\msp430_15.12.3.LTS\bin\opt430.exe D:/CodeComposerProj/CardReader001
      13 000000               .sect   ".text:USCI_A_SPI_initMaster"
      14                    .clink
      15                    .global USCI_A_SPI_initMaster
      16            
      17            $C$DW$1 .dwtag  DW_TAG_subprogram
      18                    .dwattr $C$DW$1, DW_AT_name("USCI_A_SPI_initMaster")
      19                    .dwattr $C$DW$1, DW_AT_low_pc(USCI_A_SPI_initMaster)
      20                    .dwattr $C$DW$1, DW_AT_high_pc(0x00)
      21                    .dwattr $C$DW$1, DW_AT_TI_symbol_name("USCI_A_SPI_initMaster")
      22                    .dwattr $C$DW$1, DW_AT_external
      23                    .dwattr $C$DW$1, DW_AT_type(*$C$DW$T$74)
      24                    .dwattr $C$DW$1, DW_AT_TI_begin_file("../MSP430F5xx_6xx/usci_a_spi.c")
      25                    .dwattr $C$DW$1, DW_AT_TI_begin_line(0x34)
      26                    .dwattr $C$DW$1, DW_AT_TI_begin_column(0x06)
      27                    .dwattr $C$DW$1, DW_AT_decl_file("../MSP430F5xx_6xx/usci_a_spi.c")
      28                    .dwattr $C$DW$1, DW_AT_decl_line(0x34)
      29                    .dwattr $C$DW$1, DW_AT_decl_column(0x06)
      30                    .dwattr $C$DW$1, DW_AT_TI_max_frame_size(0x0c)
      31                    .dwpsn  file "../MSP430F5xx_6xx/usci_a_spi.c",line 54,column 1,is_stmt,address USCI_A_SPI_init
      32            
      33                    .dwfde $C$DW$CIE, USCI_A_SPI_initMaster
      34            $C$DW$2 .dwtag  DW_TAG_formal_parameter
      35                    .dwattr $C$DW$2, DW_AT_name("baseAddress")
      36                    .dwattr $C$DW$2, DW_AT_TI_symbol_name("baseAddress")
      37                    .dwattr $C$DW$2, DW_AT_type(*$C$DW$T$29)
      38                    .dwattr $C$DW$2, DW_AT_location[DW_OP_reg12]
      39            
      40            $C$DW$3 .dwtag  DW_TAG_formal_parameter
      41                    .dwattr $C$DW$3, DW_AT_name("param")
      42                    .dwattr $C$DW$3, DW_AT_TI_symbol_name("param")
      43                    .dwattr $C$DW$3, DW_AT_type(*$C$DW$T$27)
      44                    .dwattr $C$DW$3, DW_AT_location[DW_OP_reg13]
      45            
      46            
      47            ;*****************************************************************************
      48            ;* FUNCTION NAME: USCI_A_SPI_initMaster                                      *
      49            ;*                                                                           *
      50            ;*   Regs Modified     : SP,SR,r9,r10,r11,r12,r13,r14,r15                    *
      51            ;*   Regs Used         : SP,SR,r9,r10,r11,r12,r13,r14,r15                    *
      52            ;*   Local Frame Size  : 0 Args + 0 Auto + 8 Save = 8 byte                   *
      53            ;*****************************************************************************
      54 000000       USCI_A_SPI_initMaster:
      55            ;* --------------------------------------------------------------------------*
MSP430 Assembler PC v15.12.3 Mon Oct 17 14:33:14 2016

Tools Copyright (c) 2003-2015 Texas Instruments Incorporated
C:\Users\madis\AppData\Local\Temp\015282                             PAGE    2

      56                    .dwcfi  cfa_offset, 4
      57                    .dwcfi  save_reg_to_mem, 16, -4
      58 000000 141A          PUSHM.A   #2,r10                ; [] 
      59                    .dwcfi  save_reg_to_mem, 10, -8
      60                    .dwcfi  save_reg_to_mem, 9, -12
      61                    .dwcfi  cfa_offset, 12
      62            ;* r10   assigned to baseAddress
      63            $C$DW$4 .dwtag  DW_TAG_variable
      64                    .dwattr $C$DW$4, DW_AT_name("baseAddress")
      65                    .dwattr $C$DW$4, DW_AT_TI_symbol_name("baseAddress")
      66                    .dwattr $C$DW$4, DW_AT_type(*$C$DW$T$29)
      67                    .dwattr $C$DW$4, DW_AT_location[DW_OP_reg10]
      68            
      69            ;* r9    assigned to param
      70            $C$DW$5 .dwtag  DW_TAG_variable
      71                    .dwattr $C$DW$5, DW_AT_name("param")
      72                    .dwattr $C$DW$5, DW_AT_TI_symbol_name("param")
      73                    .dwattr $C$DW$5, DW_AT_type(*$C$DW$T$27)
      74                    .dwattr $C$DW$5, DW_AT_location[DW_OP_reg9]
      75            
      76 000002 0DC9          MOVA      r13,r9                ; [] |54| 
      77 000004 0CCA          MOVA      r12,r10               ; [] |54| 
      78                    .dwpsn  file "../MSP430F5xx_6xx/usci_a_spi.c",line 56,column 5,is_stmt,isa 0
      79 000006 D3DA          OR.B      #1,0(r10)             ; [] |56| 
         000008 0000 
      80                    .dwpsn  file "../MSP430F5xx_6xx/usci_a_spi.c",line 59,column 5,is_stmt,isa 0
      81 00000a 0ACF          MOVA      r10,r15               ; [] |59| 
      82 00000c 531F          ADD.W     #1,r15                ; [] |59| 
      83 00000e 4F0F          MOV.W     r15,r15               ; [] |59| 
      84 000010 4F6E          MOV.B     @r15,r14              ; [] |59| 
      85 000012 43CF          MOV.B     #0,0(r15)             ; [] |59| 
         000014 0000 
      86                    .dwpsn  file "../MSP430F5xx_6xx/usci_a_spi.c",line 63,column 5,is_stmt,isa 0
      87 000016 F0FA          AND.B     #63,0(r10)            ; [] |63| 
         000018 003F 
         00001a 0000 
      88                    .dwpsn  file "../MSP430F5xx_6xx/usci_a_spi.c",line 66,column 5,is_stmt,isa 0
      89 00001c D9EA          OR.B      @r9,0(r10)            ; [] |66| 
         00001e 0000 
      90                    .dwpsn  file "../MSP430F5xx_6xx/usci_a_spi.c",line 68,column 5,is_stmt,isa 0
      91 000020 491C          MOV.W     2(r9),r12             ; [] |68| 
         000022 0002 
      92 000024 491D          MOV.W     4(r9),r13             ; [] |68| 
         000026 0004 
      93 000028 491E          MOV.W     6(r9),r14             ; [] |68| 
         00002a 0006 
      94 00002c 491F          MOV.W     8(r9),r15             ; [] |68| 
         00002e 0008 
      95            $C$DW$6 .dwtag  DW_TAG_TI_branch
      96                    .dwattr $C$DW$6, DW_AT_low_pc(0x00)
      97                    .dwattr $C$DW$6, DW_AT_name("__mspabi_divul")
      98                    .dwattr $C$DW$6, DW_AT_TI_call
      99            
     100 000030 13B0!         CALLA     #__mspabi_divul       ; [] |68| 
         000032 0000 
MSP430 Assembler PC v15.12.3 Mon Oct 17 14:33:14 2016

Tools Copyright (c) 2003-2015 Texas Instruments Incorporated
C:\Users\madis\AppData\Local\Temp\015282                             PAGE    3

     101                                                      ; [] |68| 
     102 000034 0ACF          MOVA      r10,r15               ; [] |68| 
     103 000036 503F          ADD.W     #6,r15                ; [] |68| 
         000038 0006 
     104 00003a 4C8F          MOV.W     r12,0(r15)            ; [] |68| 
         00003c 0000 
     105                    .dwpsn  file "../MSP430F5xx_6xx/usci_a_spi.c",line 78,column 5,is_stmt,isa 0
     106 00003e 0ACF          MOVA      r10,r15               ; [] |78| 
     107 000040 531F          ADD.W     #1,r15                ; [] |78| 
     108 000042 4F0E          MOV.W     r15,r14               ; [] |78| 
     109 000044 495F          MOV.B     11(r9),r15            ; [] |78| 
         000046 000B 
     110 000048 595F          ADD.B     10(r9),r15            ; [] |78| 
         00004a 000A 
     111 00004c 595F          ADD.B     12(r9),r15            ; [] |78| 
         00004e 000C 
     112 000050 507F          ADD.B     #9,r15                ; [] |78| 
         000052 0009 
     113 000054 DFCE          OR.B      r15,0(r14)            ; [] |78| 
         000056 0000 
     114                    .dwpsn  file "../MSP430F5xx_6xx/usci_a_spi.c",line 87,column 5,is_stmt,isa 0
     115 000058 523A          ADD.W     #8,r10                ; [] |87| 
     116 00005a 43CA          MOV.B     #0,0(r10)             ; [] |87| 
         00005c 0000 
     117                    .dwpsn  file "../MSP430F5xx_6xx/usci_a_spi.c",line 89,column 5,is_stmt,isa 0
     118 00005e 435C          MOV.B     #1,r12                ; [] |89| 
     119                    .dwpsn  file "../MSP430F5xx_6xx/usci_a_spi.c",line 90,column 1,is_stmt,isa 0
     120 000060 1619          POPM.A    #2,r10                ; [] 
     121                    .dwcfi  restore_reg, 9
     122                    .dwcfi  restore_reg, 10
     123                    .dwcfi  cfa_offset, 4
     124            $C$DW$7 .dwtag  DW_TAG_TI_branch
     125                    .dwattr $C$DW$7, DW_AT_low_pc(0x00)
     126                    .dwattr $C$DW$7, DW_AT_TI_return
     127            
     128 000062 0110          RETA      ; [] 
     129                    ; [] 
     130                    .dwattr $C$DW$1, DW_AT_TI_end_file("../MSP430F5xx_6xx/usci_a_spi.c")
     131                    .dwattr $C$DW$1, DW_AT_TI_end_line(0x5a)
     132                    .dwattr $C$DW$1, DW_AT_TI_end_column(0x01)
     133                    .dwendentry
     134                    .dwendtag $C$DW$1
     135            
     136 000000               .sect   ".text:USCI_A_SPI_changeMasterClock"
     137                    .clink
     138                    .global USCI_A_SPI_changeMasterClock
     139            
     140            $C$DW$8 .dwtag  DW_TAG_subprogram
     141                    .dwattr $C$DW$8, DW_AT_name("USCI_A_SPI_changeMasterClock")
     142                    .dwattr $C$DW$8, DW_AT_low_pc(USCI_A_SPI_changeMasterClock)
     143                    .dwattr $C$DW$8, DW_AT_high_pc(0x00)
     144                    .dwattr $C$DW$8, DW_AT_TI_symbol_name("USCI_A_SPI_changeMasterClock")
     145                    .dwattr $C$DW$8, DW_AT_external
     146                    .dwattr $C$DW$8, DW_AT_TI_begin_file("../MSP430F5xx_6xx/usci_a_spi.c")
     147                    .dwattr $C$DW$8, DW_AT_TI_begin_line(0x5c)
MSP430 Assembler PC v15.12.3 Mon Oct 17 14:33:14 2016

Tools Copyright (c) 2003-2015 Texas Instruments Incorporated
C:\Users\madis\AppData\Local\Temp\015282                             PAGE    4

     148                    .dwattr $C$DW$8, DW_AT_TI_begin_column(0x06)
     149                    .dwattr $C$DW$8, DW_AT_decl_file("../MSP430F5xx_6xx/usci_a_spi.c")
     150                    .dwattr $C$DW$8, DW_AT_decl_line(0x5c)
     151                    .dwattr $C$DW$8, DW_AT_decl_column(0x06)
     152                    .dwattr $C$DW$8, DW_AT_TI_max_frame_size(0x08)
     153                    .dwpsn  file "../MSP430F5xx_6xx/usci_a_spi.c",line 94,column 1,is_stmt,address USCI_A_SPI_chan
     154            
     155                    .dwfde $C$DW$CIE, USCI_A_SPI_changeMasterClock
     156            $C$DW$9 .dwtag  DW_TAG_formal_parameter
     157                    .dwattr $C$DW$9, DW_AT_name("baseAddress")
     158                    .dwattr $C$DW$9, DW_AT_TI_symbol_name("baseAddress")
     159                    .dwattr $C$DW$9, DW_AT_type(*$C$DW$T$29)
     160                    .dwattr $C$DW$9, DW_AT_location[DW_OP_reg12]
     161            
     162            $C$DW$10        .dwtag  DW_TAG_formal_parameter
     163                    .dwattr $C$DW$10, DW_AT_name("param")
     164                    .dwattr $C$DW$10, DW_AT_TI_symbol_name("param")
     165                    .dwattr $C$DW$10, DW_AT_type(*$C$DW$T$24)
     166                    .dwattr $C$DW$10, DW_AT_location[DW_OP_reg13]
     167            
     168            
     169            ;*****************************************************************************
     170            ;* FUNCTION NAME: USCI_A_SPI_changeMasterClock                               *
     171            ;*                                                                           *
     172            ;*   Regs Modified     : SP,SR,r10,r11,r12,r13,r14,r15                       *
     173            ;*   Regs Used         : SP,SR,r10,r11,r12,r13,r14,r15                       *
     174            ;*   Local Frame Size  : 0 Args + 0 Auto + 4 Save = 4 byte                   *
     175            ;*****************************************************************************
     176 000000       USCI_A_SPI_changeMasterClock:
     177            ;* --------------------------------------------------------------------------*
     178                    .dwcfi  cfa_offset, 4
     179                    .dwcfi  save_reg_to_mem, 16, -4
     180 000000 140A          PUSHM.A   #1,r10                ; [] 
     181                    .dwcfi  save_reg_to_mem, 10, -8
     182                    .dwcfi  cfa_offset, 8
     183            ;* r10   assigned to baseAddress
     184            $C$DW$11        .dwtag  DW_TAG_variable
     185                    .dwattr $C$DW$11, DW_AT_name("baseAddress")
     186                    .dwattr $C$DW$11, DW_AT_TI_symbol_name("baseAddress")
     187                    .dwattr $C$DW$11, DW_AT_type(*$C$DW$T$29)
     188                    .dwattr $C$DW$11, DW_AT_location[DW_OP_reg10]
     189            
     190            ;* r15   assigned to param
     191            $C$DW$12        .dwtag  DW_TAG_variable
     192                    .dwattr $C$DW$12, DW_AT_name("param")
     193                    .dwattr $C$DW$12, DW_AT_TI_symbol_name("param")
     194                    .dwattr $C$DW$12, DW_AT_type(*$C$DW$T$24)
     195                    .dwattr $C$DW$12, DW_AT_location[DW_OP_reg15]
     196            
     197 000002 0DCF          MOVA      r13,r15               ; [] |94| 
     198 000004 0CCA          MOVA      r12,r10               ; [] |94| 
     199                    .dwpsn  file "../MSP430F5xx_6xx/usci_a_spi.c",line 96,column 5,is_stmt,isa 0
     200 000006 D3DA          OR.B      #1,0(r10)             ; [] |96| 
         000008 0000 
     201                    .dwpsn  file "../MSP430F5xx_6xx/usci_a_spi.c",line 98,column 5,is_stmt,isa 0
MSP430 Assembler PC v15.12.3 Mon Oct 17 14:33:14 2016

Tools Copyright (c) 2003-2015 Texas Instruments Incorporated
C:\Users\madis\AppData\Local\Temp\015282                             PAGE    5

     202 00000a 4F2C          MOV.W     @r15,r12              ; [] |98| 
     203 00000c 4F1D          MOV.W     2(r15),r13            ; [] |98| 
         00000e 0002 
     204 000010 4F1E          MOV.W     4(r15),r14            ; [] |98| 
         000012 0004 
     205 000014 4F1F          MOV.W     6(r15),r15            ; [] |98| 
         000016 0006 
     206            $C$DW$13        .dwtag  DW_TAG_TI_branch
     207                    .dwattr $C$DW$13, DW_AT_low_pc(0x00)
     208                    .dwattr $C$DW$13, DW_AT_name("__mspabi_divul")
     209                    .dwattr $C$DW$13, DW_AT_TI_call
     210            
     211 000018 13B0!         CALLA     #__mspabi_divul       ; [] |98| 
         00001a 0000 
     212                                                      ; [] |98| 
     213 00001c 0ACF          MOVA      r10,r15               ; [] |98| 
     214 00001e 503F          ADD.W     #6,r15                ; [] |98| 
         000020 0006 
     215 000022 4CCF          MOV.B     r12,0(r15)            ; [] |98| 
         000024 0000 
     216                    .dwpsn  file "../MSP430F5xx_6xx/usci_a_spi.c",line 102,column 5,is_stmt,isa 0
     217 000026 C3DA          BIC.B     #1,0(r10)             ; [] |102| 
         000028 0000 
     218                    .dwpsn  file "../MSP430F5xx_6xx/usci_a_spi.c",line 103,column 1,is_stmt,isa 0
     219 00002a 160A          POPM.A    #1,r10                ; [] 
     220                    .dwcfi  restore_reg, 10
     221                    .dwcfi  cfa_offset, 4
     222            $C$DW$14        .dwtag  DW_TAG_TI_branch
     223                    .dwattr $C$DW$14, DW_AT_low_pc(0x00)
     224                    .dwattr $C$DW$14, DW_AT_TI_return
     225            
     226 00002c 0110          RETA      ; [] 
     227                    ; [] 
     228                    .dwattr $C$DW$8, DW_AT_TI_end_file("../MSP430F5xx_6xx/usci_a_spi.c")
     229                    .dwattr $C$DW$8, DW_AT_TI_end_line(0x67)
     230                    .dwattr $C$DW$8, DW_AT_TI_end_column(0x01)
     231                    .dwendentry
     232                    .dwendtag $C$DW$8
     233            
     234 000000               .sect   ".text:USCI_A_SPI_initSlave"
     235                    .clink
     236                    .global USCI_A_SPI_initSlave
     237            
     238            $C$DW$15        .dwtag  DW_TAG_subprogram
     239                    .dwattr $C$DW$15, DW_AT_name("USCI_A_SPI_initSlave")
     240                    .dwattr $C$DW$15, DW_AT_low_pc(USCI_A_SPI_initSlave)
     241                    .dwattr $C$DW$15, DW_AT_high_pc(0x00)
     242                    .dwattr $C$DW$15, DW_AT_TI_symbol_name("USCI_A_SPI_initSlave")
     243                    .dwattr $C$DW$15, DW_AT_external
     244                    .dwattr $C$DW$15, DW_AT_type(*$C$DW$T$74)
     245                    .dwattr $C$DW$15, DW_AT_TI_begin_file("../MSP430F5xx_6xx/usci_a_spi.c")
     246                    .dwattr $C$DW$15, DW_AT_TI_begin_line(0x69)
     247                    .dwattr $C$DW$15, DW_AT_TI_begin_column(0x06)
     248                    .dwattr $C$DW$15, DW_AT_decl_file("../MSP430F5xx_6xx/usci_a_spi.c")
     249                    .dwattr $C$DW$15, DW_AT_decl_line(0x69)
MSP430 Assembler PC v15.12.3 Mon Oct 17 14:33:14 2016

Tools Copyright (c) 2003-2015 Texas Instruments Incorporated
C:\Users\madis\AppData\Local\Temp\015282                             PAGE    6

     250                    .dwattr $C$DW$15, DW_AT_decl_column(0x06)
     251                    .dwattr $C$DW$15, DW_AT_TI_max_frame_size(0x04)
     252                    .dwpsn  file "../MSP430F5xx_6xx/usci_a_spi.c",line 109,column 1,is_stmt,address USCI_A_SPI_ini
     253            
     254                    .dwfde $C$DW$CIE, USCI_A_SPI_initSlave
     255            $C$DW$16        .dwtag  DW_TAG_formal_parameter
     256                    .dwattr $C$DW$16, DW_AT_name("baseAddress")
     257                    .dwattr $C$DW$16, DW_AT_TI_symbol_name("baseAddress")
     258                    .dwattr $C$DW$16, DW_AT_type(*$C$DW$T$29)
     259                    .dwattr $C$DW$16, DW_AT_location[DW_OP_reg12]
     260            
     261            $C$DW$17        .dwtag  DW_TAG_formal_parameter
     262                    .dwattr $C$DW$17, DW_AT_name("msbFirst")
     263                    .dwattr $C$DW$17, DW_AT_TI_symbol_name("msbFirst")
     264                    .dwattr $C$DW$17, DW_AT_type(*$C$DW$T$21)
     265                    .dwattr $C$DW$17, DW_AT_location[DW_OP_reg13]
     266            
     267            $C$DW$18        .dwtag  DW_TAG_formal_parameter
     268                    .dwattr $C$DW$18, DW_AT_name("clockPhase")
     269                    .dwattr $C$DW$18, DW_AT_TI_symbol_name("clockPhase")
     270                    .dwattr $C$DW$18, DW_AT_type(*$C$DW$T$21)
     271                    .dwattr $C$DW$18, DW_AT_location[DW_OP_reg14]
     272            
     273            $C$DW$19        .dwtag  DW_TAG_formal_parameter
     274                    .dwattr $C$DW$19, DW_AT_name("clockPolarity")
     275                    .dwattr $C$DW$19, DW_AT_TI_symbol_name("clockPolarity")
     276                    .dwattr $C$DW$19, DW_AT_type(*$C$DW$T$21)
     277                    .dwattr $C$DW$19, DW_AT_location[DW_OP_reg15]
     278            
     279            
     280            ;*****************************************************************************
     281            ;* FUNCTION NAME: USCI_A_SPI_initSlave                                       *
     282            ;*                                                                           *
     283            ;*   Regs Modified     : SP,SR,r11,r12,r13                                   *
     284            ;*   Regs Used         : SP,SR,r11,r12,r13,r14,r15                           *
     285            ;*   Local Frame Size  : 0 Args + 0 Auto + 0 Save = 0 byte                   *
     286            ;*****************************************************************************
     287 000000       USCI_A_SPI_initSlave:
     288            ;* --------------------------------------------------------------------------*
     289                    .dwcfi  cfa_offset, 4
     290                    .dwcfi  save_reg_to_mem, 16, -4
     291            ;* r12   assigned to baseAddress
     292            $C$DW$20        .dwtag  DW_TAG_variable
     293                    .dwattr $C$DW$20, DW_AT_name("baseAddress")
     294                    .dwattr $C$DW$20, DW_AT_TI_symbol_name("baseAddress")
     295                    .dwattr $C$DW$20, DW_AT_type(*$C$DW$T$29)
     296                    .dwattr $C$DW$20, DW_AT_location[DW_OP_reg12]
     297            
     298            ;* r11   assigned to msbFirst
     299            $C$DW$21        .dwtag  DW_TAG_variable
     300                    .dwattr $C$DW$21, DW_AT_name("msbFirst")
     301                    .dwattr $C$DW$21, DW_AT_TI_symbol_name("msbFirst")
     302                    .dwattr $C$DW$21, DW_AT_type(*$C$DW$T$21)
     303                    .dwattr $C$DW$21, DW_AT_location[DW_OP_reg11]
     304            
MSP430 Assembler PC v15.12.3 Mon Oct 17 14:33:14 2016

Tools Copyright (c) 2003-2015 Texas Instruments Incorporated
C:\Users\madis\AppData\Local\Temp\015282                             PAGE    7

     305            ;* r14   assigned to clockPhase
     306            $C$DW$22        .dwtag  DW_TAG_variable
     307                    .dwattr $C$DW$22, DW_AT_name("clockPhase")
     308                    .dwattr $C$DW$22, DW_AT_TI_symbol_name("clockPhase")
     309                    .dwattr $C$DW$22, DW_AT_type(*$C$DW$T$21)
     310                    .dwattr $C$DW$22, DW_AT_location[DW_OP_reg14]
     311            
     312            ;* r15   assigned to clockPolarity
     313            $C$DW$23        .dwtag  DW_TAG_variable
     314                    .dwattr $C$DW$23, DW_AT_name("clockPolarity")
     315                    .dwattr $C$DW$23, DW_AT_TI_symbol_name("clockPolarity")
     316                    .dwattr $C$DW$23, DW_AT_type(*$C$DW$T$21)
     317                    .dwattr $C$DW$23, DW_AT_location[DW_OP_reg15]
     318            
     319 000000 0DCB          MOVA      r13,r11               ; [] |109| 
     320                    .dwpsn  file "../MSP430F5xx_6xx/usci_a_spi.c",line 111,column 5,is_stmt,isa 0
     321 000002 D3DC          OR.B      #1,0(r12)             ; [] |111| 
         000004 0000 
     322                    .dwpsn  file "../MSP430F5xx_6xx/usci_a_spi.c",line 114,column 5,is_stmt,isa 0
     323 000006 0CCD          MOVA      r12,r13               ; [] |114| 
     324 000008 531D          ADD.W     #1,r13                ; [] |114| 
     325 00000a 4D0D          MOV.W     r13,r13               ; [] |114| 
     326 00000c F3DD          AND.B     #1,0(r13)             ; [] |114| 
         00000e 0000 
     327                    .dwpsn  file "../MSP430F5xx_6xx/usci_a_spi.c",line 123,column 5,is_stmt,isa 0
     328 000010 531C          ADD.W     #1,r12                ; [] |123| 
     329 000012 4C0C          MOV.W     r12,r12               ; [] |123| 
     330 000014 0ECD          MOVA      r14,r13               ; [] |123| 
     331 000016 5F4D          ADD.B     r15,r13               ; [] |123| 
     332 000018 5B4D          ADD.B     r11,r13               ; [] |123| 
     333 00001a 535D          ADD.B     #1,r13                ; [] |123| 
     334 00001c DDCC          OR.B      r13,0(r12)            ; [] |123| 
         00001e 0000 
     335                    .dwpsn  file "../MSP430F5xx_6xx/usci_a_spi.c",line 130,column 5,is_stmt,isa 0
     336 000020 435C          MOV.B     #1,r12                ; [] |130| 
     337                    .dwpsn  file "../MSP430F5xx_6xx/usci_a_spi.c",line 131,column 1,is_stmt,isa 0
     338            $C$DW$24        .dwtag  DW_TAG_TI_branch
     339                    .dwattr $C$DW$24, DW_AT_low_pc(0x00)
     340                    .dwattr $C$DW$24, DW_AT_TI_return
     341            
     342 000022 0110          RETA      ; [] 
     343                    ; [] 
     344                    .dwattr $C$DW$15, DW_AT_TI_end_file("../MSP430F5xx_6xx/usci_a_spi.c")
     345                    .dwattr $C$DW$15, DW_AT_TI_end_line(0x83)
     346                    .dwattr $C$DW$15, DW_AT_TI_end_column(0x01)
     347                    .dwendentry
     348                    .dwendtag $C$DW$15
     349            
     350 000000               .sect   ".text:USCI_A_SPI_changeClockPhasePolarity"
     351                    .clink
     352                    .global USCI_A_SPI_changeClockPhasePolarity
     353            
     354            $C$DW$25        .dwtag  DW_TAG_subprogram
     355                    .dwattr $C$DW$25, DW_AT_name("USCI_A_SPI_changeClockPhasePolarity")
     356                    .dwattr $C$DW$25, DW_AT_low_pc(USCI_A_SPI_changeClockPhasePolarity)
MSP430 Assembler PC v15.12.3 Mon Oct 17 14:33:14 2016

Tools Copyright (c) 2003-2015 Texas Instruments Incorporated
C:\Users\madis\AppData\Local\Temp\015282                             PAGE    8

     357                    .dwattr $C$DW$25, DW_AT_high_pc(0x00)
     358                    .dwattr $C$DW$25, DW_AT_TI_symbol_name("USCI_A_SPI_changeClockPhasePolarity")
     359                    .dwattr $C$DW$25, DW_AT_external
     360                    .dwattr $C$DW$25, DW_AT_TI_begin_file("../MSP430F5xx_6xx/usci_a_spi.c")
     361                    .dwattr $C$DW$25, DW_AT_TI_begin_line(0x85)
     362                    .dwattr $C$DW$25, DW_AT_TI_begin_column(0x06)
     363                    .dwattr $C$DW$25, DW_AT_decl_file("../MSP430F5xx_6xx/usci_a_spi.c")
     364                    .dwattr $C$DW$25, DW_AT_decl_line(0x85)
     365                    .dwattr $C$DW$25, DW_AT_decl_column(0x06)
     366                    .dwattr $C$DW$25, DW_AT_TI_max_frame_size(0x04)
     367                    .dwpsn  file "../MSP430F5xx_6xx/usci_a_spi.c",line 136,column 1,is_stmt,address USCI_A_SPI_cha
     368            
     369                    .dwfde $C$DW$CIE, USCI_A_SPI_changeClockPhasePolarity
     370            $C$DW$26        .dwtag  DW_TAG_formal_parameter
     371                    .dwattr $C$DW$26, DW_AT_name("baseAddress")
     372                    .dwattr $C$DW$26, DW_AT_TI_symbol_name("baseAddress")
     373                    .dwattr $C$DW$26, DW_AT_type(*$C$DW$T$29)
     374                    .dwattr $C$DW$26, DW_AT_location[DW_OP_reg12]
     375            
     376            $C$DW$27        .dwtag  DW_TAG_formal_parameter
     377                    .dwattr $C$DW$27, DW_AT_name("clockPhase")
     378                    .dwattr $C$DW$27, DW_AT_TI_symbol_name("clockPhase")
     379                    .dwattr $C$DW$27, DW_AT_type(*$C$DW$T$21)
     380                    .dwattr $C$DW$27, DW_AT_location[DW_OP_reg13]
     381            
     382            $C$DW$28        .dwtag  DW_TAG_formal_parameter
     383                    .dwattr $C$DW$28, DW_AT_name("clockPolarity")
     384                    .dwattr $C$DW$28, DW_AT_TI_symbol_name("clockPolarity")
     385                    .dwattr $C$DW$28, DW_AT_type(*$C$DW$T$21)
     386                    .dwattr $C$DW$28, DW_AT_location[DW_OP_reg14]
     387            
     388            
     389            ;*****************************************************************************
     390            ;* FUNCTION NAME: USCI_A_SPI_changeClockPhasePolarity                        *
     391            ;*                                                                           *
     392            ;*   Regs Modified     : SP,SR,r13,r15                                       *
     393            ;*   Regs Used         : SP,SR,r12,r13,r14,r15                               *
     394            ;*   Local Frame Size  : 0 Args + 0 Auto + 0 Save = 0 byte                   *
     395            ;*****************************************************************************
     396 000000       USCI_A_SPI_changeClockPhasePolarity:
     397            ;* --------------------------------------------------------------------------*
     398                    .dwcfi  cfa_offset, 4
     399                    .dwcfi  save_reg_to_mem, 16, -4
     400            ;* r12   assigned to baseAddress
     401            $C$DW$29        .dwtag  DW_TAG_variable
     402                    .dwattr $C$DW$29, DW_AT_name("baseAddress")
     403                    .dwattr $C$DW$29, DW_AT_TI_symbol_name("baseAddress")
     404                    .dwattr $C$DW$29, DW_AT_type(*$C$DW$T$29)
     405                    .dwattr $C$DW$29, DW_AT_location[DW_OP_reg12]
     406            
     407            ;* r14   assigned to clockPolarity
     408            $C$DW$30        .dwtag  DW_TAG_variable
     409                    .dwattr $C$DW$30, DW_AT_name("clockPolarity")
     410                    .dwattr $C$DW$30, DW_AT_TI_symbol_name("clockPolarity")
     411                    .dwattr $C$DW$30, DW_AT_type(*$C$DW$T$21)
MSP430 Assembler PC v15.12.3 Mon Oct 17 14:33:14 2016

Tools Copyright (c) 2003-2015 Texas Instruments Incorporated
C:\Users\madis\AppData\Local\Temp\015282                             PAGE    9

     412                    .dwattr $C$DW$30, DW_AT_location[DW_OP_reg14]
     413            
     414                    .dwpsn  file "../MSP430F5xx_6xx/usci_a_spi.c",line 138,column 5,is_stmt,isa 0
     415 000000 D3DC          OR.B      #1,0(r12)             ; [] |138| 
         000002 0000 
     416                    .dwpsn  file "../MSP430F5xx_6xx/usci_a_spi.c",line 140,column 5,is_stmt,isa 0
     417 000004 0CCF          MOVA      r12,r15               ; [] |140| 
     418 000006 531F          ADD.W     #1,r15                ; [] |140| 
     419 000008 4F0F          MOV.W     r15,r15               ; [] |140| 
     420 00000a F0FF          AND.B     #63,0(r15)            ; [] |140| 
         00000c 003F 
         00000e 0000 
     421                    .dwpsn  file "../MSP430F5xx_6xx/usci_a_spi.c",line 142,column 5,is_stmt,isa 0
     422 000010 0CCF          MOVA      r12,r15               ; [] |142| 
     423 000012 531F          ADD.W     #1,r15                ; [] |142| 
     424 000014 4F0F          MOV.W     r15,r15               ; [] |142| 
     425 000016 5E4D          ADD.B     r14,r13               ; [] |142| 
     426 000018 DDCF          OR.B      r13,0(r15)            ; [] |142| 
         00001a 0000 
     427                    .dwpsn  file "../MSP430F5xx_6xx/usci_a_spi.c",line 148,column 5,is_stmt,isa 0
     428 00001c C3DC          BIC.B     #1,0(r12)             ; [] |148| 
         00001e 0000 
     429                    .dwpsn  file "../MSP430F5xx_6xx/usci_a_spi.c",line 149,column 1,is_stmt,isa 0
     430            $C$DW$31        .dwtag  DW_TAG_TI_branch
     431                    .dwattr $C$DW$31, DW_AT_low_pc(0x00)
     432                    .dwattr $C$DW$31, DW_AT_TI_return
     433            
     434 000020 0110          RETA      ; [] 
     435                    ; [] 
     436                    .dwattr $C$DW$25, DW_AT_TI_end_file("../MSP430F5xx_6xx/usci_a_spi.c")
     437                    .dwattr $C$DW$25, DW_AT_TI_end_line(0x95)
     438                    .dwattr $C$DW$25, DW_AT_TI_end_column(0x01)
     439                    .dwendentry
     440                    .dwendtag $C$DW$25
     441            
     442 000000               .sect   ".text:USCI_A_SPI_transmitData"
     443                    .clink
     444                    .global USCI_A_SPI_transmitData
     445            
     446            $C$DW$32        .dwtag  DW_TAG_subprogram
     447                    .dwattr $C$DW$32, DW_AT_name("USCI_A_SPI_transmitData")
     448                    .dwattr $C$DW$32, DW_AT_low_pc(USCI_A_SPI_transmitData)
     449                    .dwattr $C$DW$32, DW_AT_high_pc(0x00)
     450                    .dwattr $C$DW$32, DW_AT_TI_symbol_name("USCI_A_SPI_transmitData")
     451                    .dwattr $C$DW$32, DW_AT_external
     452                    .dwattr $C$DW$32, DW_AT_TI_begin_file("../MSP430F5xx_6xx/usci_a_spi.c")
     453                    .dwattr $C$DW$32, DW_AT_TI_begin_line(0x97)
     454                    .dwattr $C$DW$32, DW_AT_TI_begin_column(0x06)
     455                    .dwattr $C$DW$32, DW_AT_decl_file("../MSP430F5xx_6xx/usci_a_spi.c")
     456                    .dwattr $C$DW$32, DW_AT_decl_line(0x97)
     457                    .dwattr $C$DW$32, DW_AT_decl_column(0x06)
     458                    .dwattr $C$DW$32, DW_AT_TI_max_frame_size(0x04)
     459                    .dwpsn  file "../MSP430F5xx_6xx/usci_a_spi.c",line 153,column 1,is_stmt,address USCI_A_SPI_tra
     460            
     461                    .dwfde $C$DW$CIE, USCI_A_SPI_transmitData
MSP430 Assembler PC v15.12.3 Mon Oct 17 14:33:14 2016

Tools Copyright (c) 2003-2015 Texas Instruments Incorporated
C:\Users\madis\AppData\Local\Temp\015282                             PAGE   10

     462            $C$DW$33        .dwtag  DW_TAG_formal_parameter
     463                    .dwattr $C$DW$33, DW_AT_name("baseAddress")
     464                    .dwattr $C$DW$33, DW_AT_TI_symbol_name("baseAddress")
     465                    .dwattr $C$DW$33, DW_AT_type(*$C$DW$T$29)
     466                    .dwattr $C$DW$33, DW_AT_location[DW_OP_reg12]
     467            
     468            $C$DW$34        .dwtag  DW_TAG_formal_parameter
     469                    .dwattr $C$DW$34, DW_AT_name("transmitData")
     470                    .dwattr $C$DW$34, DW_AT_TI_symbol_name("transmitData")
     471                    .dwattr $C$DW$34, DW_AT_type(*$C$DW$T$21)
     472                    .dwattr $C$DW$34, DW_AT_location[DW_OP_reg13]
     473            
     474            
     475            ;*****************************************************************************
     476            ;* FUNCTION NAME: USCI_A_SPI_transmitData                                    *
     477            ;*                                                                           *
     478            ;*   Regs Modified     : SP,SR,r12                                           *
     479            ;*   Regs Used         : SP,SR,r12,r13                                       *
     480            ;*   Local Frame Size  : 0 Args + 0 Auto + 0 Save = 0 byte                   *
     481            ;*****************************************************************************
     482 000000       USCI_A_SPI_transmitData:
     483            ;* --------------------------------------------------------------------------*
     484                    .dwcfi  cfa_offset, 4
     485                    .dwcfi  save_reg_to_mem, 16, -4
     486            ;* r13   assigned to transmitData
     487            $C$DW$35        .dwtag  DW_TAG_variable
     488                    .dwattr $C$DW$35, DW_AT_name("transmitData")
     489                    .dwattr $C$DW$35, DW_AT_TI_symbol_name("transmitData")
     490                    .dwattr $C$DW$35, DW_AT_type(*$C$DW$T$21)
     491                    .dwattr $C$DW$35, DW_AT_location[DW_OP_reg13]
     492            
     493                    .dwpsn  file "../MSP430F5xx_6xx/usci_a_spi.c",line 154,column 5,is_stmt,isa 0
     494 000000 503C          ADD.W     #14,r12               ; [] |154| 
         000002 000E 
     495 000004 4DCC          MOV.B     r13,0(r12)            ; [] |154| 
         000006 0000 
     496                    .dwpsn  file "../MSP430F5xx_6xx/usci_a_spi.c",line 155,column 1,is_stmt,isa 0
     497            $C$DW$36        .dwtag  DW_TAG_TI_branch
     498                    .dwattr $C$DW$36, DW_AT_low_pc(0x00)
     499                    .dwattr $C$DW$36, DW_AT_TI_return
     500            
     501 000008 0110          RETA      ; [] 
     502                    ; [] 
     503                    .dwattr $C$DW$32, DW_AT_TI_end_file("../MSP430F5xx_6xx/usci_a_spi.c")
     504                    .dwattr $C$DW$32, DW_AT_TI_end_line(0x9b)
     505                    .dwattr $C$DW$32, DW_AT_TI_end_column(0x01)
     506                    .dwendentry
     507                    .dwendtag $C$DW$32
     508            
     509 000000               .sect   ".text:USCI_A_SPI_receiveData"
     510                    .clink
     511                    .global USCI_A_SPI_receiveData
     512            
     513            $C$DW$37        .dwtag  DW_TAG_subprogram
     514                    .dwattr $C$DW$37, DW_AT_name("USCI_A_SPI_receiveData")
MSP430 Assembler PC v15.12.3 Mon Oct 17 14:33:14 2016

Tools Copyright (c) 2003-2015 Texas Instruments Incorporated
C:\Users\madis\AppData\Local\Temp\015282                             PAGE   11

     515                    .dwattr $C$DW$37, DW_AT_low_pc(USCI_A_SPI_receiveData)
     516                    .dwattr $C$DW$37, DW_AT_high_pc(0x00)
     517                    .dwattr $C$DW$37, DW_AT_TI_symbol_name("USCI_A_SPI_receiveData")
     518                    .dwattr $C$DW$37, DW_AT_external
     519                    .dwattr $C$DW$37, DW_AT_type(*$C$DW$T$21)
     520                    .dwattr $C$DW$37, DW_AT_TI_begin_file("../MSP430F5xx_6xx/usci_a_spi.c")
     521                    .dwattr $C$DW$37, DW_AT_TI_begin_line(0x9d)
     522                    .dwattr $C$DW$37, DW_AT_TI_begin_column(0x09)
     523                    .dwattr $C$DW$37, DW_AT_decl_file("../MSP430F5xx_6xx/usci_a_spi.c")
     524                    .dwattr $C$DW$37, DW_AT_decl_line(0x9d)
     525                    .dwattr $C$DW$37, DW_AT_decl_column(0x09)
     526                    .dwattr $C$DW$37, DW_AT_TI_max_frame_size(0x04)
     527                    .dwpsn  file "../MSP430F5xx_6xx/usci_a_spi.c",line 158,column 1,is_stmt,address USCI_A_SPI_rec
     528            
     529                    .dwfde $C$DW$CIE, USCI_A_SPI_receiveData
     530            $C$DW$38        .dwtag  DW_TAG_formal_parameter
     531                    .dwattr $C$DW$38, DW_AT_name("baseAddress")
     532                    .dwattr $C$DW$38, DW_AT_TI_symbol_name("baseAddress")
     533                    .dwattr $C$DW$38, DW_AT_type(*$C$DW$T$29)
     534                    .dwattr $C$DW$38, DW_AT_location[DW_OP_reg12]
     535            
     536            
     537            ;*****************************************************************************
     538            ;* FUNCTION NAME: USCI_A_SPI_receiveData                                     *
     539            ;*                                                                           *
     540            ;*   Regs Modified     : SP,SR,r12                                           *
     541            ;*   Regs Used         : SP,SR,r12                                           *
     542            ;*   Local Frame Size  : 0 Args + 0 Auto + 0 Save = 0 byte                   *
     543            ;*****************************************************************************
     544 000000       USCI_A_SPI_receiveData:
     545            ;* --------------------------------------------------------------------------*
     546                    .dwcfi  cfa_offset, 4
     547                    .dwcfi  save_reg_to_mem, 16, -4
     548                    .dwpsn  file "../MSP430F5xx_6xx/usci_a_spi.c",line 159,column 5,is_stmt,isa 0
     549 000000 503C          ADD.W     #12,r12               ; [] |159| 
         000002 000C 
     550 000004 4C6C          MOV.B     @r12,r12              ; [] |159| 
     551                    .dwpsn  file "../MSP430F5xx_6xx/usci_a_spi.c",line 160,column 1,is_stmt,isa 0
     552            $C$DW$39        .dwtag  DW_TAG_TI_branch
     553                    .dwattr $C$DW$39, DW_AT_low_pc(0x00)
     554                    .dwattr $C$DW$39, DW_AT_TI_return
     555            
     556 000006 0110          RETA      ; [] 
     557                    ; [] 
     558                    .dwattr $C$DW$37, DW_AT_TI_end_file("../MSP430F5xx_6xx/usci_a_spi.c")
     559                    .dwattr $C$DW$37, DW_AT_TI_end_line(0xa0)
     560                    .dwattr $C$DW$37, DW_AT_TI_end_column(0x01)
     561                    .dwendentry
     562                    .dwendtag $C$DW$37
     563            
     564 000000               .sect   ".text:USCI_A_SPI_enableInterrupt"
     565                    .clink
     566                    .global USCI_A_SPI_enableInterrupt
     567            
     568            $C$DW$40        .dwtag  DW_TAG_subprogram
MSP430 Assembler PC v15.12.3 Mon Oct 17 14:33:14 2016

Tools Copyright (c) 2003-2015 Texas Instruments Incorporated
C:\Users\madis\AppData\Local\Temp\015282                             PAGE   12

     569                    .dwattr $C$DW$40, DW_AT_name("USCI_A_SPI_enableInterrupt")
     570                    .dwattr $C$DW$40, DW_AT_low_pc(USCI_A_SPI_enableInterrupt)
     571                    .dwattr $C$DW$40, DW_AT_high_pc(0x00)
     572                    .dwattr $C$DW$40, DW_AT_TI_symbol_name("USCI_A_SPI_enableInterrupt")
     573                    .dwattr $C$DW$40, DW_AT_external
     574                    .dwattr $C$DW$40, DW_AT_TI_begin_file("../MSP430F5xx_6xx/usci_a_spi.c")
     575                    .dwattr $C$DW$40, DW_AT_TI_begin_line(0xa2)
     576                    .dwattr $C$DW$40, DW_AT_TI_begin_column(0x06)
     577                    .dwattr $C$DW$40, DW_AT_decl_file("../MSP430F5xx_6xx/usci_a_spi.c")
     578                    .dwattr $C$DW$40, DW_AT_decl_line(0xa2)
     579                    .dwattr $C$DW$40, DW_AT_decl_column(0x06)
     580                    .dwattr $C$DW$40, DW_AT_TI_max_frame_size(0x04)
     581                    .dwpsn  file "../MSP430F5xx_6xx/usci_a_spi.c",line 164,column 1,is_stmt,address USCI_A_SPI_ena
     582            
     583                    .dwfde $C$DW$CIE, USCI_A_SPI_enableInterrupt
     584            $C$DW$41        .dwtag  DW_TAG_formal_parameter
     585                    .dwattr $C$DW$41, DW_AT_name("baseAddress")
     586                    .dwattr $C$DW$41, DW_AT_TI_symbol_name("baseAddress")
     587                    .dwattr $C$DW$41, DW_AT_type(*$C$DW$T$29)
     588                    .dwattr $C$DW$41, DW_AT_location[DW_OP_reg12]
     589            
     590            $C$DW$42        .dwtag  DW_TAG_formal_parameter
     591                    .dwattr $C$DW$42, DW_AT_name("mask")
     592                    .dwattr $C$DW$42, DW_AT_TI_symbol_name("mask")
     593                    .dwattr $C$DW$42, DW_AT_type(*$C$DW$T$21)
     594                    .dwattr $C$DW$42, DW_AT_location[DW_OP_reg13]
     595            
     596            
     597            ;*****************************************************************************
     598            ;* FUNCTION NAME: USCI_A_SPI_enableInterrupt                                 *
     599            ;*                                                                           *
     600            ;*   Regs Modified     : SP,SR,r12,r15                                       *
     601            ;*   Regs Used         : SP,SR,r12,r13,r15                                   *
     602            ;*   Local Frame Size  : 0 Args + 0 Auto + 0 Save = 0 byte                   *
     603            ;*****************************************************************************
     604 000000       USCI_A_SPI_enableInterrupt:
     605            ;* --------------------------------------------------------------------------*
     606                    .dwcfi  cfa_offset, 4
     607                    .dwcfi  save_reg_to_mem, 16, -4
     608            ;* r13   assigned to mask
     609            $C$DW$43        .dwtag  DW_TAG_variable
     610                    .dwattr $C$DW$43, DW_AT_name("mask")
     611                    .dwattr $C$DW$43, DW_AT_TI_symbol_name("mask")
     612                    .dwattr $C$DW$43, DW_AT_type(*$C$DW$T$21)
     613                    .dwattr $C$DW$43, DW_AT_location[DW_OP_reg13]
     614            
     615                    .dwpsn  file "../MSP430F5xx_6xx/usci_a_spi.c",line 165,column 5,is_stmt,isa 0
     616 000000 503C          ADD.W     #28,r12               ; [] |165| 
         000002 001C 
     617 000004 4C0F          MOV.W     r12,r15               ; [] |165| 
     618 000006 DDCF          OR.B      r13,0(r15)            ; [] |165| 
         000008 0000 
     619                    .dwpsn  file "../MSP430F5xx_6xx/usci_a_spi.c",line 166,column 1,is_stmt,isa 0
     620            $C$DW$44        .dwtag  DW_TAG_TI_branch
     621                    .dwattr $C$DW$44, DW_AT_low_pc(0x00)
MSP430 Assembler PC v15.12.3 Mon Oct 17 14:33:14 2016

Tools Copyright (c) 2003-2015 Texas Instruments Incorporated
C:\Users\madis\AppData\Local\Temp\015282                             PAGE   13

     622                    .dwattr $C$DW$44, DW_AT_TI_return
     623            
     624 00000a 0110          RETA      ; [] 
     625                    ; [] 
     626                    .dwattr $C$DW$40, DW_AT_TI_end_file("../MSP430F5xx_6xx/usci_a_spi.c")
     627                    .dwattr $C$DW$40, DW_AT_TI_end_line(0xa6)
     628                    .dwattr $C$DW$40, DW_AT_TI_end_column(0x01)
     629                    .dwendentry
     630                    .dwendtag $C$DW$40
     631            
     632 000000               .sect   ".text:USCI_A_SPI_disableInterrupt"
     633                    .clink
     634                    .global USCI_A_SPI_disableInterrupt
     635            
     636            $C$DW$45        .dwtag  DW_TAG_subprogram
     637                    .dwattr $C$DW$45, DW_AT_name("USCI_A_SPI_disableInterrupt")
     638                    .dwattr $C$DW$45, DW_AT_low_pc(USCI_A_SPI_disableInterrupt)
     639                    .dwattr $C$DW$45, DW_AT_high_pc(0x00)
     640                    .dwattr $C$DW$45, DW_AT_TI_symbol_name("USCI_A_SPI_disableInterrupt")
     641                    .dwattr $C$DW$45, DW_AT_external
     642                    .dwattr $C$DW$45, DW_AT_TI_begin_file("../MSP430F5xx_6xx/usci_a_spi.c")
     643                    .dwattr $C$DW$45, DW_AT_TI_begin_line(0xa8)
     644                    .dwattr $C$DW$45, DW_AT_TI_begin_column(0x06)
     645                    .dwattr $C$DW$45, DW_AT_decl_file("../MSP430F5xx_6xx/usci_a_spi.c")
     646                    .dwattr $C$DW$45, DW_AT_decl_line(0xa8)
     647                    .dwattr $C$DW$45, DW_AT_decl_column(0x06)
     648                    .dwattr $C$DW$45, DW_AT_TI_max_frame_size(0x04)
     649                    .dwpsn  file "../MSP430F5xx_6xx/usci_a_spi.c",line 170,column 1,is_stmt,address USCI_A_SPI_dis
     650            
     651                    .dwfde $C$DW$CIE, USCI_A_SPI_disableInterrupt
     652            $C$DW$46        .dwtag  DW_TAG_formal_parameter
     653                    .dwattr $C$DW$46, DW_AT_name("baseAddress")
     654                    .dwattr $C$DW$46, DW_AT_TI_symbol_name("baseAddress")
     655                    .dwattr $C$DW$46, DW_AT_type(*$C$DW$T$29)
     656                    .dwattr $C$DW$46, DW_AT_location[DW_OP_reg12]
     657            
     658            $C$DW$47        .dwtag  DW_TAG_formal_parameter
     659                    .dwattr $C$DW$47, DW_AT_name("mask")
     660                    .dwattr $C$DW$47, DW_AT_TI_symbol_name("mask")
     661                    .dwattr $C$DW$47, DW_AT_type(*$C$DW$T$21)
     662                    .dwattr $C$DW$47, DW_AT_location[DW_OP_reg13]
     663            
     664            
     665            ;*****************************************************************************
     666            ;* FUNCTION NAME: USCI_A_SPI_disableInterrupt                                *
     667            ;*                                                                           *
     668            ;*   Regs Modified     : SP,SR,r12,r15                                       *
     669            ;*   Regs Used         : SP,SR,r12,r13,r15                                   *
     670            ;*   Local Frame Size  : 0 Args + 0 Auto + 0 Save = 0 byte                   *
     671            ;*****************************************************************************
     672 000000       USCI_A_SPI_disableInterrupt:
     673            ;* --------------------------------------------------------------------------*
     674                    .dwcfi  cfa_offset, 4
     675                    .dwcfi  save_reg_to_mem, 16, -4
     676            ;* r13   assigned to mask
MSP430 Assembler PC v15.12.3 Mon Oct 17 14:33:14 2016

Tools Copyright (c) 2003-2015 Texas Instruments Incorporated
C:\Users\madis\AppData\Local\Temp\015282                             PAGE   14

     677            $C$DW$48        .dwtag  DW_TAG_variable
     678                    .dwattr $C$DW$48, DW_AT_name("mask")
     679                    .dwattr $C$DW$48, DW_AT_TI_symbol_name("mask")
     680                    .dwattr $C$DW$48, DW_AT_type(*$C$DW$T$21)
     681                    .dwattr $C$DW$48, DW_AT_location[DW_OP_reg13]
     682            
     683                    .dwpsn  file "../MSP430F5xx_6xx/usci_a_spi.c",line 171,column 5,is_stmt,isa 0
     684 000000 503C          ADD.W     #28,r12               ; [] |171| 
         000002 001C 
     685 000004 4C0F          MOV.W     r12,r15               ; [] |171| 
     686 000006 CDCF          BIC.B     r13,0(r15)            ; [] |171| 
         000008 0000 
     687                    .dwpsn  file "../MSP430F5xx_6xx/usci_a_spi.c",line 172,column 1,is_stmt,isa 0
     688            $C$DW$49        .dwtag  DW_TAG_TI_branch
     689                    .dwattr $C$DW$49, DW_AT_low_pc(0x00)
     690                    .dwattr $C$DW$49, DW_AT_TI_return
     691            
     692 00000a 0110          RETA      ; [] 
     693                    ; [] 
     694                    .dwattr $C$DW$45, DW_AT_TI_end_file("../MSP430F5xx_6xx/usci_a_spi.c")
     695                    .dwattr $C$DW$45, DW_AT_TI_end_line(0xac)
     696                    .dwattr $C$DW$45, DW_AT_TI_end_column(0x01)
     697                    .dwendentry
     698                    .dwendtag $C$DW$45
     699            
     700 000000               .sect   ".text:USCI_A_SPI_getInterruptStatus"
     701                    .clink
     702                    .global USCI_A_SPI_getInterruptStatus
     703            
     704            $C$DW$50        .dwtag  DW_TAG_subprogram
     705                    .dwattr $C$DW$50, DW_AT_name("USCI_A_SPI_getInterruptStatus")
     706                    .dwattr $C$DW$50, DW_AT_low_pc(USCI_A_SPI_getInterruptStatus)
     707                    .dwattr $C$DW$50, DW_AT_high_pc(0x00)
     708                    .dwattr $C$DW$50, DW_AT_TI_symbol_name("USCI_A_SPI_getInterruptStatus")
     709                    .dwattr $C$DW$50, DW_AT_external
     710                    .dwattr $C$DW$50, DW_AT_type(*$C$DW$T$21)
     711                    .dwattr $C$DW$50, DW_AT_TI_begin_file("../MSP430F5xx_6xx/usci_a_spi.c")
     712                    .dwattr $C$DW$50, DW_AT_TI_begin_line(0xae)
     713                    .dwattr $C$DW$50, DW_AT_TI_begin_column(0x09)
     714                    .dwattr $C$DW$50, DW_AT_decl_file("../MSP430F5xx_6xx/usci_a_spi.c")
     715                    .dwattr $C$DW$50, DW_AT_decl_line(0xae)
     716                    .dwattr $C$DW$50, DW_AT_decl_column(0x09)
     717                    .dwattr $C$DW$50, DW_AT_TI_max_frame_size(0x04)
     718                    .dwpsn  file "../MSP430F5xx_6xx/usci_a_spi.c",line 176,column 1,is_stmt,address USCI_A_SPI_get
     719            
     720                    .dwfde $C$DW$CIE, USCI_A_SPI_getInterruptStatus
     721            $C$DW$51        .dwtag  DW_TAG_formal_parameter
     722                    .dwattr $C$DW$51, DW_AT_name("baseAddress")
     723                    .dwattr $C$DW$51, DW_AT_TI_symbol_name("baseAddress")
     724                    .dwattr $C$DW$51, DW_AT_type(*$C$DW$T$29)
     725                    .dwattr $C$DW$51, DW_AT_location[DW_OP_reg12]
     726            
     727            $C$DW$52        .dwtag  DW_TAG_formal_parameter
     728                    .dwattr $C$DW$52, DW_AT_name("mask")
     729                    .dwattr $C$DW$52, DW_AT_TI_symbol_name("mask")
MSP430 Assembler PC v15.12.3 Mon Oct 17 14:33:14 2016

Tools Copyright (c) 2003-2015 Texas Instruments Incorporated
C:\Users\madis\AppData\Local\Temp\015282                             PAGE   15

     730                    .dwattr $C$DW$52, DW_AT_type(*$C$DW$T$21)
     731                    .dwattr $C$DW$52, DW_AT_location[DW_OP_reg13]
     732            
     733            
     734            ;*****************************************************************************
     735            ;* FUNCTION NAME: USCI_A_SPI_getInterruptStatus                              *
     736            ;*                                                                           *
     737            ;*   Regs Modified     : SP,SR,r12                                           *
     738            ;*   Regs Used         : SP,SR,r12,r13                                       *
     739            ;*   Local Frame Size  : 0 Args + 0 Auto + 0 Save = 0 byte                   *
     740            ;*****************************************************************************
     741 000000       USCI_A_SPI_getInterruptStatus:
     742            ;* --------------------------------------------------------------------------*
     743                    .dwcfi  cfa_offset, 4
     744                    .dwcfi  save_reg_to_mem, 16, -4
     745            ;* r13   assigned to mask
     746            $C$DW$53        .dwtag  DW_TAG_variable
     747                    .dwattr $C$DW$53, DW_AT_name("mask")
     748                    .dwattr $C$DW$53, DW_AT_TI_symbol_name("mask")
     749                    .dwattr $C$DW$53, DW_AT_type(*$C$DW$T$21)
     750                    .dwattr $C$DW$53, DW_AT_location[DW_OP_reg13]
     751            
     752                    .dwpsn  file "../MSP430F5xx_6xx/usci_a_spi.c",line 177,column 5,is_stmt,isa 0
     753 000000 503C          ADD.W     #29,r12               ; [] |177| 
         000002 001D 
     754 000004 4C6C          MOV.B     @r12,r12              ; [] |177| 
     755 000006 FD4C          AND.B     r13,r12               ; [] |177| 
     756                    .dwpsn  file "../MSP430F5xx_6xx/usci_a_spi.c",line 178,column 1,is_stmt,isa 0
     757            $C$DW$54        .dwtag  DW_TAG_TI_branch
     758                    .dwattr $C$DW$54, DW_AT_low_pc(0x00)
     759                    .dwattr $C$DW$54, DW_AT_TI_return
     760            
     761 000008 0110          RETA      ; [] 
     762                    ; [] 
     763                    .dwattr $C$DW$50, DW_AT_TI_end_file("../MSP430F5xx_6xx/usci_a_spi.c")
     764                    .dwattr $C$DW$50, DW_AT_TI_end_line(0xb2)
     765                    .dwattr $C$DW$50, DW_AT_TI_end_column(0x01)
     766                    .dwendentry
     767                    .dwendtag $C$DW$50
     768            
     769 000000               .sect   ".text:USCI_A_SPI_clearInterrupt"
     770                    .clink
     771                    .global USCI_A_SPI_clearInterrupt
     772            
     773            $C$DW$55        .dwtag  DW_TAG_subprogram
     774                    .dwattr $C$DW$55, DW_AT_name("USCI_A_SPI_clearInterrupt")
     775                    .dwattr $C$DW$55, DW_AT_low_pc(USCI_A_SPI_clearInterrupt)
     776                    .dwattr $C$DW$55, DW_AT_high_pc(0x00)
     777                    .dwattr $C$DW$55, DW_AT_TI_symbol_name("USCI_A_SPI_clearInterrupt")
     778                    .dwattr $C$DW$55, DW_AT_external
     779                    .dwattr $C$DW$55, DW_AT_TI_begin_file("../MSP430F5xx_6xx/usci_a_spi.c")
     780                    .dwattr $C$DW$55, DW_AT_TI_begin_line(0xb4)
     781                    .dwattr $C$DW$55, DW_AT_TI_begin_column(0x06)
     782                    .dwattr $C$DW$55, DW_AT_decl_file("../MSP430F5xx_6xx/usci_a_spi.c")
     783                    .dwattr $C$DW$55, DW_AT_decl_line(0xb4)
MSP430 Assembler PC v15.12.3 Mon Oct 17 14:33:14 2016

Tools Copyright (c) 2003-2015 Texas Instruments Incorporated
C:\Users\madis\AppData\Local\Temp\015282                             PAGE   16

     784                    .dwattr $C$DW$55, DW_AT_decl_column(0x06)
     785                    .dwattr $C$DW$55, DW_AT_TI_max_frame_size(0x04)
     786                    .dwpsn  file "../MSP430F5xx_6xx/usci_a_spi.c",line 182,column 1,is_stmt,address USCI_A_SPI_cle
     787            
     788                    .dwfde $C$DW$CIE, USCI_A_SPI_clearInterrupt
     789            $C$DW$56        .dwtag  DW_TAG_formal_parameter
     790                    .dwattr $C$DW$56, DW_AT_name("baseAddress")
     791                    .dwattr $C$DW$56, DW_AT_TI_symbol_name("baseAddress")
     792                    .dwattr $C$DW$56, DW_AT_type(*$C$DW$T$29)
     793                    .dwattr $C$DW$56, DW_AT_location[DW_OP_reg12]
     794            
     795            $C$DW$57        .dwtag  DW_TAG_formal_parameter
     796                    .dwattr $C$DW$57, DW_AT_name("mask")
     797                    .dwattr $C$DW$57, DW_AT_TI_symbol_name("mask")
     798                    .dwattr $C$DW$57, DW_AT_type(*$C$DW$T$21)
     799                    .dwattr $C$DW$57, DW_AT_location[DW_OP_reg13]
     800            
     801            
     802            ;*****************************************************************************
     803            ;* FUNCTION NAME: USCI_A_SPI_clearInterrupt                                  *
     804            ;*                                                                           *
     805            ;*   Regs Modified     : SP,SR,r12,r15                                       *
     806            ;*   Regs Used         : SP,SR,r12,r13,r15                                   *
     807            ;*   Local Frame Size  : 0 Args + 0 Auto + 0 Save = 0 byte                   *
     808            ;*****************************************************************************
     809 000000       USCI_A_SPI_clearInterrupt:
     810            ;* --------------------------------------------------------------------------*
     811                    .dwcfi  cfa_offset, 4
     812                    .dwcfi  save_reg_to_mem, 16, -4
     813            ;* r13   assigned to mask
     814            $C$DW$58        .dwtag  DW_TAG_variable
     815                    .dwattr $C$DW$58, DW_AT_name("mask")
     816                    .dwattr $C$DW$58, DW_AT_TI_symbol_name("mask")
     817                    .dwattr $C$DW$58, DW_AT_type(*$C$DW$T$21)
     818                    .dwattr $C$DW$58, DW_AT_location[DW_OP_reg13]
     819            
     820                    .dwpsn  file "../MSP430F5xx_6xx/usci_a_spi.c",line 183,column 5,is_stmt,isa 0
     821 000000 503C          ADD.W     #29,r12               ; [] |183| 
         000002 001D 
     822 000004 4C0F          MOV.W     r12,r15               ; [] |183| 
     823 000006 CDCF          BIC.B     r13,0(r15)            ; [] |183| 
         000008 0000 
     824                    .dwpsn  file "../MSP430F5xx_6xx/usci_a_spi.c",line 184,column 1,is_stmt,isa 0
     825            $C$DW$59        .dwtag  DW_TAG_TI_branch
     826                    .dwattr $C$DW$59, DW_AT_low_pc(0x00)
     827                    .dwattr $C$DW$59, DW_AT_TI_return
     828            
     829 00000a 0110          RETA      ; [] 
     830                    ; [] 
     831                    .dwattr $C$DW$55, DW_AT_TI_end_file("../MSP430F5xx_6xx/usci_a_spi.c")
     832                    .dwattr $C$DW$55, DW_AT_TI_end_line(0xb8)
     833                    .dwattr $C$DW$55, DW_AT_TI_end_column(0x01)
     834                    .dwendentry
     835                    .dwendtag $C$DW$55
     836            
MSP430 Assembler PC v15.12.3 Mon Oct 17 14:33:14 2016

Tools Copyright (c) 2003-2015 Texas Instruments Incorporated
C:\Users\madis\AppData\Local\Temp\015282                             PAGE   17

     837 000000               .sect   ".text:USCI_A_SPI_enable"
     838                    .clink
     839                    .global USCI_A_SPI_enable
     840            
     841            $C$DW$60        .dwtag  DW_TAG_subprogram
     842                    .dwattr $C$DW$60, DW_AT_name("USCI_A_SPI_enable")
     843                    .dwattr $C$DW$60, DW_AT_low_pc(USCI_A_SPI_enable)
     844                    .dwattr $C$DW$60, DW_AT_high_pc(0x00)
     845                    .dwattr $C$DW$60, DW_AT_TI_symbol_name("USCI_A_SPI_enable")
     846                    .dwattr $C$DW$60, DW_AT_external
     847                    .dwattr $C$DW$60, DW_AT_TI_begin_file("../MSP430F5xx_6xx/usci_a_spi.c")
     848                    .dwattr $C$DW$60, DW_AT_TI_begin_line(0xba)
     849                    .dwattr $C$DW$60, DW_AT_TI_begin_column(0x06)
     850                    .dwattr $C$DW$60, DW_AT_decl_file("../MSP430F5xx_6xx/usci_a_spi.c")
     851                    .dwattr $C$DW$60, DW_AT_decl_line(0xba)
     852                    .dwattr $C$DW$60, DW_AT_decl_column(0x06)
     853                    .dwattr $C$DW$60, DW_AT_TI_max_frame_size(0x04)
     854                    .dwpsn  file "../MSP430F5xx_6xx/usci_a_spi.c",line 187,column 1,is_stmt,address USCI_A_SPI_ena
     855            
     856                    .dwfde $C$DW$CIE, USCI_A_SPI_enable
     857            $C$DW$61        .dwtag  DW_TAG_formal_parameter
     858                    .dwattr $C$DW$61, DW_AT_name("baseAddress")
     859                    .dwattr $C$DW$61, DW_AT_TI_symbol_name("baseAddress")
     860                    .dwattr $C$DW$61, DW_AT_type(*$C$DW$T$29)
     861                    .dwattr $C$DW$61, DW_AT_location[DW_OP_reg12]
     862            
     863            
     864            ;*****************************************************************************
     865            ;* FUNCTION NAME: USCI_A_SPI_enable                                          *
     866            ;*                                                                           *
     867            ;*   Regs Modified     : SP                                                  *
     868            ;*   Regs Used         : SP,r12                                              *
     869            ;*   Local Frame Size  : 0 Args + 0 Auto + 0 Save = 0 byte                   *
     870            ;*****************************************************************************
     871 000000       USCI_A_SPI_enable:
     872            ;* --------------------------------------------------------------------------*
     873                    .dwcfi  cfa_offset, 4
     874                    .dwcfi  save_reg_to_mem, 16, -4
     875            ;* r12   assigned to baseAddress
     876            $C$DW$62        .dwtag  DW_TAG_variable
     877                    .dwattr $C$DW$62, DW_AT_name("baseAddress")
     878                    .dwattr $C$DW$62, DW_AT_TI_symbol_name("baseAddress")
     879                    .dwattr $C$DW$62, DW_AT_type(*$C$DW$T$29)
     880                    .dwattr $C$DW$62, DW_AT_location[DW_OP_reg12]
     881            
     882                    .dwpsn  file "../MSP430F5xx_6xx/usci_a_spi.c",line 189,column 5,is_stmt,isa 0
     883 000000 C3DC          BIC.B     #1,0(r12)             ; [] |189| 
         000002 0000 
     884                    .dwpsn  file "../MSP430F5xx_6xx/usci_a_spi.c",line 190,column 1,is_stmt,isa 0
     885            $C$DW$63        .dwtag  DW_TAG_TI_branch
     886                    .dwattr $C$DW$63, DW_AT_low_pc(0x00)
     887                    .dwattr $C$DW$63, DW_AT_TI_return
     888            
     889 000004 0110          RETA      ; [] 
     890                    ; [] 
MSP430 Assembler PC v15.12.3 Mon Oct 17 14:33:14 2016

Tools Copyright (c) 2003-2015 Texas Instruments Incorporated
C:\Users\madis\AppData\Local\Temp\015282                             PAGE   18

     891                    .dwattr $C$DW$60, DW_AT_TI_end_file("../MSP430F5xx_6xx/usci_a_spi.c")
     892                    .dwattr $C$DW$60, DW_AT_TI_end_line(0xbe)
     893                    .dwattr $C$DW$60, DW_AT_TI_end_column(0x01)
     894                    .dwendentry
     895                    .dwendtag $C$DW$60
     896            
     897 000000               .sect   ".text:USCI_A_SPI_disable"
     898                    .clink
     899                    .global USCI_A_SPI_disable
     900            
     901            $C$DW$64        .dwtag  DW_TAG_subprogram
     902                    .dwattr $C$DW$64, DW_AT_name("USCI_A_SPI_disable")
     903                    .dwattr $C$DW$64, DW_AT_low_pc(USCI_A_SPI_disable)
     904                    .dwattr $C$DW$64, DW_AT_high_pc(0x00)
     905                    .dwattr $C$DW$64, DW_AT_TI_symbol_name("USCI_A_SPI_disable")
     906                    .dwattr $C$DW$64, DW_AT_external
     907                    .dwattr $C$DW$64, DW_AT_TI_begin_file("../MSP430F5xx_6xx/usci_a_spi.c")
     908                    .dwattr $C$DW$64, DW_AT_TI_begin_line(0xc0)
     909                    .dwattr $C$DW$64, DW_AT_TI_begin_column(0x06)
     910                    .dwattr $C$DW$64, DW_AT_decl_file("../MSP430F5xx_6xx/usci_a_spi.c")
     911                    .dwattr $C$DW$64, DW_AT_decl_line(0xc0)
     912                    .dwattr $C$DW$64, DW_AT_decl_column(0x06)
     913                    .dwattr $C$DW$64, DW_AT_TI_max_frame_size(0x04)
     914                    .dwpsn  file "../MSP430F5xx_6xx/usci_a_spi.c",line 193,column 1,is_stmt,address USCI_A_SPI_dis
     915            
     916                    .dwfde $C$DW$CIE, USCI_A_SPI_disable
     917            $C$DW$65        .dwtag  DW_TAG_formal_parameter
     918                    .dwattr $C$DW$65, DW_AT_name("baseAddress")
     919                    .dwattr $C$DW$65, DW_AT_TI_symbol_name("baseAddress")
     920                    .dwattr $C$DW$65, DW_AT_type(*$C$DW$T$29)
     921                    .dwattr $C$DW$65, DW_AT_location[DW_OP_reg12]
     922            
     923            
     924            ;*****************************************************************************
     925            ;* FUNCTION NAME: USCI_A_SPI_disable                                         *
     926            ;*                                                                           *
     927            ;*   Regs Modified     : SP                                                  *
     928            ;*   Regs Used         : SP,r12                                              *
     929            ;*   Local Frame Size  : 0 Args + 0 Auto + 0 Save = 0 byte                   *
     930            ;*****************************************************************************
     931 000000       USCI_A_SPI_disable:
     932            ;* --------------------------------------------------------------------------*
     933                    .dwcfi  cfa_offset, 4
     934                    .dwcfi  save_reg_to_mem, 16, -4
     935            ;* r12   assigned to baseAddress
     936            $C$DW$66        .dwtag  DW_TAG_variable
     937                    .dwattr $C$DW$66, DW_AT_name("baseAddress")
     938                    .dwattr $C$DW$66, DW_AT_TI_symbol_name("baseAddress")
     939                    .dwattr $C$DW$66, DW_AT_type(*$C$DW$T$29)
     940                    .dwattr $C$DW$66, DW_AT_location[DW_OP_reg12]
     941            
     942                    .dwpsn  file "../MSP430F5xx_6xx/usci_a_spi.c",line 195,column 5,is_stmt,isa 0
     943 000000 D3DC          OR.B      #1,0(r12)             ; [] |195| 
         000002 0000 
     944                    .dwpsn  file "../MSP430F5xx_6xx/usci_a_spi.c",line 196,column 1,is_stmt,isa 0
MSP430 Assembler PC v15.12.3 Mon Oct 17 14:33:14 2016

Tools Copyright (c) 2003-2015 Texas Instruments Incorporated
C:\Users\madis\AppData\Local\Temp\015282                             PAGE   19

     945            $C$DW$67        .dwtag  DW_TAG_TI_branch
     946                    .dwattr $C$DW$67, DW_AT_low_pc(0x00)
     947                    .dwattr $C$DW$67, DW_AT_TI_return
     948            
     949 000004 0110          RETA      ; [] 
     950                    ; [] 
     951                    .dwattr $C$DW$64, DW_AT_TI_end_file("../MSP430F5xx_6xx/usci_a_spi.c")
     952                    .dwattr $C$DW$64, DW_AT_TI_end_line(0xc4)
     953                    .dwattr $C$DW$64, DW_AT_TI_end_column(0x01)
     954                    .dwendentry
     955                    .dwendtag $C$DW$64
     956            
     957 000000               .sect   ".text:USCI_A_SPI_getReceiveBufferAddressForDMA"
     958                    .clink
     959                    .global USCI_A_SPI_getReceiveBufferAddressForDMA
     960            
     961            $C$DW$68        .dwtag  DW_TAG_subprogram
     962                    .dwattr $C$DW$68, DW_AT_name("USCI_A_SPI_getReceiveBufferAddressForDMA")
     963                    .dwattr $C$DW$68, DW_AT_low_pc(USCI_A_SPI_getReceiveBufferAddressForDMA)
     964                    .dwattr $C$DW$68, DW_AT_high_pc(0x00)
     965                    .dwattr $C$DW$68, DW_AT_TI_symbol_name("USCI_A_SPI_getReceiveBufferAddressForDMA")
     966                    .dwattr $C$DW$68, DW_AT_external
     967                    .dwattr $C$DW$68, DW_AT_type(*$C$DW$T$19)
     968                    .dwattr $C$DW$68, DW_AT_TI_begin_file("../MSP430F5xx_6xx/usci_a_spi.c")
     969                    .dwattr $C$DW$68, DW_AT_TI_begin_line(0xc6)
     970                    .dwattr $C$DW$68, DW_AT_TI_begin_column(0x0a)
     971                    .dwattr $C$DW$68, DW_AT_decl_file("../MSP430F5xx_6xx/usci_a_spi.c")
     972                    .dwattr $C$DW$68, DW_AT_decl_line(0xc6)
     973                    .dwattr $C$DW$68, DW_AT_decl_column(0x0a)
     974                    .dwattr $C$DW$68, DW_AT_TI_max_frame_size(0x04)
     975                    .dwpsn  file "../MSP430F5xx_6xx/usci_a_spi.c",line 199,column 1,is_stmt,address USCI_A_SPI_get
     976            
     977                    .dwfde $C$DW$CIE, USCI_A_SPI_getReceiveBufferAddressForDMA
     978            $C$DW$69        .dwtag  DW_TAG_formal_parameter
     979                    .dwattr $C$DW$69, DW_AT_name("baseAddress")
     980                    .dwattr $C$DW$69, DW_AT_TI_symbol_name("baseAddress")
     981                    .dwattr $C$DW$69, DW_AT_type(*$C$DW$T$29)
     982                    .dwattr $C$DW$69, DW_AT_location[DW_OP_reg12]
     983            
     984            
     985            ;*****************************************************************************
     986            ;* FUNCTION NAME: USCI_A_SPI_getReceiveBufferAddressForDMA                   *
     987            ;*                                                                           *
     988            ;*   Regs Modified     : SP,SR,r12,r13                                       *
     989            ;*   Regs Used         : SP,SR,r12,r13                                       *
     990            ;*   Local Frame Size  : 0 Args + 0 Auto + 0 Save = 0 byte                   *
     991            ;*****************************************************************************
     992 000000       USCI_A_SPI_getReceiveBufferAddressForDMA:
     993            ;* --------------------------------------------------------------------------*
     994                    .dwcfi  cfa_offset, 4
     995                    .dwcfi  save_reg_to_mem, 16, -4
     996                    .dwpsn  file "../MSP430F5xx_6xx/usci_a_spi.c",line 200,column 5,is_stmt,isa 0
     997 000000 503C          ADD.W     #12,r12               ; [] |200| 
         000002 000C 
     998 000004 430D          MOV.W     #0,r13                ; [] |200| 
MSP430 Assembler PC v15.12.3 Mon Oct 17 14:33:14 2016

Tools Copyright (c) 2003-2015 Texas Instruments Incorporated
C:\Users\madis\AppData\Local\Temp\015282                             PAGE   20

     999                    .dwpsn  file "../MSP430F5xx_6xx/usci_a_spi.c",line 201,column 1,is_stmt,isa 0
    1000            $C$DW$70        .dwtag  DW_TAG_TI_branch
    1001                    .dwattr $C$DW$70, DW_AT_low_pc(0x00)
    1002                    .dwattr $C$DW$70, DW_AT_TI_return
    1003            
    1004 000006 0110          RETA      ; [] 
    1005                    ; [] 
    1006                    .dwattr $C$DW$68, DW_AT_TI_end_file("../MSP430F5xx_6xx/usci_a_spi.c")
    1007                    .dwattr $C$DW$68, DW_AT_TI_end_line(0xc9)
    1008                    .dwattr $C$DW$68, DW_AT_TI_end_column(0x01)
    1009                    .dwendentry
    1010                    .dwendtag $C$DW$68
    1011            
    1012 000000               .sect   ".text:USCI_A_SPI_getTransmitBufferAddressForDMA"
    1013                    .clink
    1014                    .global USCI_A_SPI_getTransmitBufferAddressForDMA
    1015            
    1016            $C$DW$71        .dwtag  DW_TAG_subprogram
    1017                    .dwattr $C$DW$71, DW_AT_name("USCI_A_SPI_getTransmitBufferAddressForDMA")
    1018                    .dwattr $C$DW$71, DW_AT_low_pc(USCI_A_SPI_getTransmitBufferAddressForDMA)
    1019                    .dwattr $C$DW$71, DW_AT_high_pc(0x00)
    1020                    .dwattr $C$DW$71, DW_AT_TI_symbol_name("USCI_A_SPI_getTransmitBufferAddressForDMA")
    1021                    .dwattr $C$DW$71, DW_AT_external
    1022                    .dwattr $C$DW$71, DW_AT_type(*$C$DW$T$19)
    1023                    .dwattr $C$DW$71, DW_AT_TI_begin_file("../MSP430F5xx_6xx/usci_a_spi.c")
    1024                    .dwattr $C$DW$71, DW_AT_TI_begin_line(0xcb)
    1025                    .dwattr $C$DW$71, DW_AT_TI_begin_column(0x0a)
    1026                    .dwattr $C$DW$71, DW_AT_decl_file("../MSP430F5xx_6xx/usci_a_spi.c")
    1027                    .dwattr $C$DW$71, DW_AT_decl_line(0xcb)
    1028                    .dwattr $C$DW$71, DW_AT_decl_column(0x0a)
    1029                    .dwattr $C$DW$71, DW_AT_TI_max_frame_size(0x04)
    1030                    .dwpsn  file "../MSP430F5xx_6xx/usci_a_spi.c",line 204,column 1,is_stmt,address USCI_A_SPI_get
    1031            
    1032                    .dwfde $C$DW$CIE, USCI_A_SPI_getTransmitBufferAddressForDMA
    1033            $C$DW$72        .dwtag  DW_TAG_formal_parameter
    1034                    .dwattr $C$DW$72, DW_AT_name("baseAddress")
    1035                    .dwattr $C$DW$72, DW_AT_TI_symbol_name("baseAddress")
    1036                    .dwattr $C$DW$72, DW_AT_type(*$C$DW$T$29)
    1037                    .dwattr $C$DW$72, DW_AT_location[DW_OP_reg12]
    1038            
    1039            
    1040            ;*****************************************************************************
    1041            ;* FUNCTION NAME: USCI_A_SPI_getTransmitBufferAddressForDMA                  *
    1042            ;*                                                                           *
    1043            ;*   Regs Modified     : SP,SR,r12,r13                                       *
    1044            ;*   Regs Used         : SP,SR,r12,r13                                       *
    1045            ;*   Local Frame Size  : 0 Args + 0 Auto + 0 Save = 0 byte                   *
    1046            ;*****************************************************************************
    1047 000000       USCI_A_SPI_getTransmitBufferAddressForDMA:
    1048            ;* --------------------------------------------------------------------------*
    1049                    .dwcfi  cfa_offset, 4
    1050                    .dwcfi  save_reg_to_mem, 16, -4
    1051                    .dwpsn  file "../MSP430F5xx_6xx/usci_a_spi.c",line 205,column 5,is_stmt,isa 0
    1052 000000 503C          ADD.W     #14,r12               ; [] |205| 
         000002 000E 
MSP430 Assembler PC v15.12.3 Mon Oct 17 14:33:14 2016

Tools Copyright (c) 2003-2015 Texas Instruments Incorporated
C:\Users\madis\AppData\Local\Temp\015282                             PAGE   21

    1053 000004 430D          MOV.W     #0,r13                ; [] |205| 
    1054                    .dwpsn  file "../MSP430F5xx_6xx/usci_a_spi.c",line 206,column 1,is_stmt,isa 0
    1055            $C$DW$73        .dwtag  DW_TAG_TI_branch
    1056                    .dwattr $C$DW$73, DW_AT_low_pc(0x00)
    1057                    .dwattr $C$DW$73, DW_AT_TI_return
    1058            
    1059 000006 0110          RETA      ; [] 
    1060                    ; [] 
    1061                    .dwattr $C$DW$71, DW_AT_TI_end_file("../MSP430F5xx_6xx/usci_a_spi.c")
    1062                    .dwattr $C$DW$71, DW_AT_TI_end_line(0xce)
    1063                    .dwattr $C$DW$71, DW_AT_TI_end_column(0x01)
    1064                    .dwendentry
    1065                    .dwendtag $C$DW$71
    1066            
    1067 000000               .sect   ".text:USCI_A_SPI_isBusy"
    1068                    .clink
    1069                    .global USCI_A_SPI_isBusy
    1070            
    1071            $C$DW$74        .dwtag  DW_TAG_subprogram
    1072                    .dwattr $C$DW$74, DW_AT_name("USCI_A_SPI_isBusy")
    1073                    .dwattr $C$DW$74, DW_AT_low_pc(USCI_A_SPI_isBusy)
    1074                    .dwattr $C$DW$74, DW_AT_high_pc(0x00)
    1075                    .dwattr $C$DW$74, DW_AT_TI_symbol_name("USCI_A_SPI_isBusy")
    1076                    .dwattr $C$DW$74, DW_AT_external
    1077                    .dwattr $C$DW$74, DW_AT_type(*$C$DW$T$21)
    1078                    .dwattr $C$DW$74, DW_AT_TI_begin_file("../MSP430F5xx_6xx/usci_a_spi.c")
    1079                    .dwattr $C$DW$74, DW_AT_TI_begin_line(0xd0)
    1080                    .dwattr $C$DW$74, DW_AT_TI_begin_column(0x09)
    1081                    .dwattr $C$DW$74, DW_AT_decl_file("../MSP430F5xx_6xx/usci_a_spi.c")
    1082                    .dwattr $C$DW$74, DW_AT_decl_line(0xd0)
    1083                    .dwattr $C$DW$74, DW_AT_decl_column(0x09)
    1084                    .dwattr $C$DW$74, DW_AT_TI_max_frame_size(0x04)
    1085                    .dwpsn  file "../MSP430F5xx_6xx/usci_a_spi.c",line 209,column 1,is_stmt,address USCI_A_SPI_isB
    1086            
    1087                    .dwfde $C$DW$CIE, USCI_A_SPI_isBusy
    1088            $C$DW$75        .dwtag  DW_TAG_formal_parameter
    1089                    .dwattr $C$DW$75, DW_AT_name("baseAddress")
    1090                    .dwattr $C$DW$75, DW_AT_TI_symbol_name("baseAddress")
    1091                    .dwattr $C$DW$75, DW_AT_type(*$C$DW$T$29)
    1092                    .dwattr $C$DW$75, DW_AT_location[DW_OP_reg12]
    1093            
    1094            
    1095            ;*****************************************************************************
    1096            ;* FUNCTION NAME: USCI_A_SPI_isBusy                                          *
    1097            ;*                                                                           *
    1098            ;*   Regs Modified     : SP,SR,r12,r15                                       *
    1099            ;*   Regs Used         : SP,SR,r12,r15                                       *
    1100            ;*   Local Frame Size  : 0 Args + 0 Auto + 0 Save = 0 byte                   *
    1101            ;*****************************************************************************
    1102 000000       USCI_A_SPI_isBusy:
    1103            ;* --------------------------------------------------------------------------*
    1104                    .dwcfi  cfa_offset, 4
    1105                    .dwcfi  save_reg_to_mem, 16, -4
    1106                    .dwpsn  file "../MSP430F5xx_6xx/usci_a_spi.c",line 211,column 5,is_stmt,isa 0
    1107 000000 503C          ADD.W     #10,r12               ; [] |211| 
MSP430 Assembler PC v15.12.3 Mon Oct 17 14:33:14 2016

Tools Copyright (c) 2003-2015 Texas Instruments Incorporated
C:\Users\madis\AppData\Local\Temp\015282                             PAGE   22

         000002 000A 
    1108 000004 431F          MOV.W     #1,r15                ; [] |211| 
    1109 000006 FC6F          AND.B     @r12,r15              ; [] |211| 
    1110 000008 0FCC          MOVA      r15,r12               ; [] |211| 
    1111                    .dwpsn  file "../MSP430F5xx_6xx/usci_a_spi.c",line 212,column 1,is_stmt,isa 0
    1112            $C$DW$76        .dwtag  DW_TAG_TI_branch
    1113                    .dwattr $C$DW$76, DW_AT_low_pc(0x00)
    1114                    .dwattr $C$DW$76, DW_AT_TI_return
    1115            
    1116 00000a 0110          RETA      ; [] 
    1117                    ; [] 
    1118                    .dwattr $C$DW$74, DW_AT_TI_end_file("../MSP430F5xx_6xx/usci_a_spi.c")
    1119                    .dwattr $C$DW$74, DW_AT_TI_end_line(0xd4)
    1120                    .dwattr $C$DW$74, DW_AT_TI_end_column(0x01)
    1121                    .dwendentry
    1122                    .dwendtag $C$DW$74
    1123            
    1124            ;*****************************************************************************
    1125            ;* UNDEFINED EXTERNAL REFERENCES                                             *
    1126            ;*****************************************************************************
    1127                    .global __mspabi_divul
    1128            
    1129            ;******************************************************************************
    1130            ;* BUILD ATTRIBUTES                                                           *
    1131            ;******************************************************************************
    1132                    .battr "TI", Tag_File, 1, Tag_LPM_INFO(1)
    1133                    .battr "TI", Tag_File, 1, Tag_PORTS_INIT_INFO("012345678901ABCDEFGHIJ0000000000001111000000000
    1134                    .battr "TI", Tag_File, 1, Tag_HW_MPY32_INFO(2)
    1135                    .battr "TI", Tag_File, 1, Tag_HW_MPY_ISR_INFO(1)
    1136                    .battr "TI", Tag_File, 1, Tag_HW_MPY_INLINE_INFO(1)
    1137                    .battr "mspabi", Tag_File, 1, Tag_enum_size(3)
    1138            
    1139            ;******************************************************************************
    1140            ;* TYPE INFORMATION                                                           *
    1141            ;******************************************************************************
    1142            
    1143            $C$DW$T$20      .dwtag  DW_TAG_structure_type
    1144                    .dwattr $C$DW$T$20, DW_AT_name("USCI_A_SPI_changeMasterClockParam")
    1145                    .dwattr $C$DW$T$20, DW_AT_byte_size(0x08)
    1146            $C$DW$77        .dwtag  DW_TAG_member
    1147                    .dwattr $C$DW$77, DW_AT_type(*$C$DW$T$19)
    1148                    .dwattr $C$DW$77, DW_AT_name("clockSourceFrequency")
    1149                    .dwattr $C$DW$77, DW_AT_TI_symbol_name("clockSourceFrequency")
    1150                    .dwattr $C$DW$77, DW_AT_data_member_location[DW_OP_plus_uconst 0x0]
    1151                    .dwattr $C$DW$77, DW_AT_accessibility(DW_ACCESS_public)
    1152                    .dwattr $C$DW$77, DW_AT_decl_file("..\MSP430F5xx_6xx\usci_a_spi.h")
    1153                    .dwattr $C$DW$77, DW_AT_decl_line(0x62)
    1154                    .dwattr $C$DW$77, DW_AT_decl_column(0x0e)
    1155            
    1156            $C$DW$78        .dwtag  DW_TAG_member
    1157                    .dwattr $C$DW$78, DW_AT_type(*$C$DW$T$19)
    1158                    .dwattr $C$DW$78, DW_AT_name("desiredSpiClock")
    1159                    .dwattr $C$DW$78, DW_AT_TI_symbol_name("desiredSpiClock")
    1160                    .dwattr $C$DW$78, DW_AT_data_member_location[DW_OP_plus_uconst 0x4]
    1161                    .dwattr $C$DW$78, DW_AT_accessibility(DW_ACCESS_public)
MSP430 Assembler PC v15.12.3 Mon Oct 17 14:33:14 2016

Tools Copyright (c) 2003-2015 Texas Instruments Incorporated
C:\Users\madis\AppData\Local\Temp\015282                             PAGE   23

    1162                    .dwattr $C$DW$78, DW_AT_decl_file("..\MSP430F5xx_6xx\usci_a_spi.h")
    1163                    .dwattr $C$DW$78, DW_AT_decl_line(0x64)
    1164                    .dwattr $C$DW$78, DW_AT_decl_column(0x0e)
    1165            
    1166                    .dwattr $C$DW$T$20, DW_AT_decl_file("..\MSP430F5xx_6xx\usci_a_spi.h")
    1167                    .dwattr $C$DW$T$20, DW_AT_decl_line(0x5f)
    1168                    .dwattr $C$DW$T$20, DW_AT_decl_column(0x10)
    1169                    .dwendtag $C$DW$T$20
    1170            
    1171            $C$DW$T$23      .dwtag  DW_TAG_typedef
    1172                    .dwattr $C$DW$T$23, DW_AT_name("USCI_A_SPI_changeMasterClockParam")
    1173                    .dwattr $C$DW$T$23, DW_AT_type(*$C$DW$T$20)
    1174                    .dwattr $C$DW$T$23, DW_AT_language(DW_LANG_C)
    1175                    .dwattr $C$DW$T$23, DW_AT_decl_file("..\MSP430F5xx_6xx\usci_a_spi.h")
    1176                    .dwattr $C$DW$T$23, DW_AT_decl_line(0x65)
    1177                    .dwattr $C$DW$T$23, DW_AT_decl_column(0x03)
    1178            
    1179            $C$DW$T$24      .dwtag  DW_TAG_pointer_type
    1180                    .dwattr $C$DW$T$24, DW_AT_type(*$C$DW$T$23)
    1181                    .dwattr $C$DW$T$24, DW_AT_address_class(0x14)
    1182            
    1183            
    1184            $C$DW$T$22      .dwtag  DW_TAG_structure_type
    1185                    .dwattr $C$DW$T$22, DW_AT_name("USCI_A_SPI_initMasterParam")
    1186                    .dwattr $C$DW$T$22, DW_AT_byte_size(0x0e)
    1187            $C$DW$79        .dwtag  DW_TAG_member
    1188                    .dwattr $C$DW$79, DW_AT_type(*$C$DW$T$21)
    1189                    .dwattr $C$DW$79, DW_AT_name("selectClockSource")
    1190                    .dwattr $C$DW$79, DW_AT_TI_symbol_name("selectClockSource")
    1191                    .dwattr $C$DW$79, DW_AT_data_member_location[DW_OP_plus_uconst 0x0]
    1192                    .dwattr $C$DW$79, DW_AT_accessibility(DW_ACCESS_public)
    1193                    .dwattr $C$DW$79, DW_AT_decl_file("..\MSP430F5xx_6xx\usci_a_spi.h")
    1194                    .dwattr $C$DW$79, DW_AT_decl_line(0x44)
    1195                    .dwattr $C$DW$79, DW_AT_decl_column(0x0d)
    1196            
    1197            $C$DW$80        .dwtag  DW_TAG_member
    1198                    .dwattr $C$DW$80, DW_AT_type(*$C$DW$T$19)
    1199                    .dwattr $C$DW$80, DW_AT_name("clockSourceFrequency")
    1200                    .dwattr $C$DW$80, DW_AT_TI_symbol_name("clockSourceFrequency")
    1201                    .dwattr $C$DW$80, DW_AT_data_member_location[DW_OP_plus_uconst 0x2]
    1202                    .dwattr $C$DW$80, DW_AT_accessibility(DW_ACCESS_public)
    1203                    .dwattr $C$DW$80, DW_AT_decl_file("..\MSP430F5xx_6xx\usci_a_spi.h")
    1204                    .dwattr $C$DW$80, DW_AT_decl_line(0x46)
    1205                    .dwattr $C$DW$80, DW_AT_decl_column(0x0e)
    1206            
    1207            $C$DW$81        .dwtag  DW_TAG_member
    1208                    .dwattr $C$DW$81, DW_AT_type(*$C$DW$T$19)
    1209                    .dwattr $C$DW$81, DW_AT_name("desiredSpiClock")
    1210                    .dwattr $C$DW$81, DW_AT_TI_symbol_name("desiredSpiClock")
    1211                    .dwattr $C$DW$81, DW_AT_data_member_location[DW_OP_plus_uconst 0x6]
    1212                    .dwattr $C$DW$81, DW_AT_accessibility(DW_ACCESS_public)
    1213                    .dwattr $C$DW$81, DW_AT_decl_file("..\MSP430F5xx_6xx\usci_a_spi.h")
    1214                    .dwattr $C$DW$81, DW_AT_decl_line(0x48)
    1215                    .dwattr $C$DW$81, DW_AT_decl_column(0x0e)
    1216            
MSP430 Assembler PC v15.12.3 Mon Oct 17 14:33:14 2016

Tools Copyright (c) 2003-2015 Texas Instruments Incorporated
C:\Users\madis\AppData\Local\Temp\015282                             PAGE   24

    1217            $C$DW$82        .dwtag  DW_TAG_member
    1218                    .dwattr $C$DW$82, DW_AT_type(*$C$DW$T$21)
    1219                    .dwattr $C$DW$82, DW_AT_name("msbFirst")
    1220                    .dwattr $C$DW$82, DW_AT_TI_symbol_name("msbFirst")
    1221                    .dwattr $C$DW$82, DW_AT_data_member_location[DW_OP_plus_uconst 0xa]
    1222                    .dwattr $C$DW$82, DW_AT_accessibility(DW_ACCESS_public)
    1223                    .dwattr $C$DW$82, DW_AT_decl_file("..\MSP430F5xx_6xx\usci_a_spi.h")
    1224                    .dwattr $C$DW$82, DW_AT_decl_line(0x4d)
    1225                    .dwattr $C$DW$82, DW_AT_decl_column(0x0d)
    1226            
    1227            $C$DW$83        .dwtag  DW_TAG_member
    1228                    .dwattr $C$DW$83, DW_AT_type(*$C$DW$T$21)
    1229                    .dwattr $C$DW$83, DW_AT_name("clockPhase")
    1230                    .dwattr $C$DW$83, DW_AT_TI_symbol_name("clockPhase")
    1231                    .dwattr $C$DW$83, DW_AT_data_member_location[DW_OP_plus_uconst 0xb]
    1232                    .dwattr $C$DW$83, DW_AT_accessibility(DW_ACCESS_public)
    1233                    .dwattr $C$DW$83, DW_AT_decl_file("..\MSP430F5xx_6xx\usci_a_spi.h")
    1234                    .dwattr $C$DW$83, DW_AT_decl_line(0x52)
    1235                    .dwattr $C$DW$83, DW_AT_decl_column(0x0d)
    1236            
    1237            $C$DW$84        .dwtag  DW_TAG_member
    1238                    .dwattr $C$DW$84, DW_AT_type(*$C$DW$T$21)
    1239                    .dwattr $C$DW$84, DW_AT_name("clockPolarity")
    1240                    .dwattr $C$DW$84, DW_AT_TI_symbol_name("clockPolarity")
    1241                    .dwattr $C$DW$84, DW_AT_data_member_location[DW_OP_plus_uconst 0xc]
    1242                    .dwattr $C$DW$84, DW_AT_accessibility(DW_ACCESS_public)
    1243                    .dwattr $C$DW$84, DW_AT_decl_file("..\MSP430F5xx_6xx\usci_a_spi.h")
    1244                    .dwattr $C$DW$84, DW_AT_decl_line(0x56)
    1245                    .dwattr $C$DW$84, DW_AT_decl_column(0x0d)
    1246            
    1247                    .dwattr $C$DW$T$22, DW_AT_decl_file("..\MSP430F5xx_6xx\usci_a_spi.h")
    1248                    .dwattr $C$DW$T$22, DW_AT_decl_line(0x3e)
    1249                    .dwattr $C$DW$T$22, DW_AT_decl_column(0x10)
    1250                    .dwendtag $C$DW$T$22
    1251            
    1252            $C$DW$T$26      .dwtag  DW_TAG_typedef
    1253                    .dwattr $C$DW$T$26, DW_AT_name("USCI_A_SPI_initMasterParam")
    1254                    .dwattr $C$DW$T$26, DW_AT_type(*$C$DW$T$22)
    1255                    .dwattr $C$DW$T$26, DW_AT_language(DW_LANG_C)
    1256                    .dwattr $C$DW$T$26, DW_AT_decl_file("..\MSP430F5xx_6xx\usci_a_spi.h")
    1257                    .dwattr $C$DW$T$26, DW_AT_decl_line(0x57)
    1258                    .dwattr $C$DW$T$26, DW_AT_decl_column(0x03)
    1259            
    1260            $C$DW$T$27      .dwtag  DW_TAG_pointer_type
    1261                    .dwattr $C$DW$T$27, DW_AT_type(*$C$DW$T$26)
    1262                    .dwattr $C$DW$T$27, DW_AT_address_class(0x14)
    1263            
    1264            $C$DW$T$2       .dwtag  DW_TAG_unspecified_type
    1265                    .dwattr $C$DW$T$2, DW_AT_name("void")
    1266            
    1267            
    1268            $C$DW$T$34      .dwtag  DW_TAG_subroutine_type
    1269                    .dwattr $C$DW$T$34, DW_AT_language(DW_LANG_C)
    1270                    .dwendtag $C$DW$T$34
    1271            
MSP430 Assembler PC v15.12.3 Mon Oct 17 14:33:14 2016

Tools Copyright (c) 2003-2015 Texas Instruments Incorporated
C:\Users\madis\AppData\Local\Temp\015282                             PAGE   25

    1272            $C$DW$T$35      .dwtag  DW_TAG_pointer_type
    1273                    .dwattr $C$DW$T$35, DW_AT_type(*$C$DW$T$34)
    1274                    .dwattr $C$DW$T$35, DW_AT_address_class(0x14)
    1275            
    1276            $C$DW$T$36      .dwtag  DW_TAG_typedef
    1277                    .dwattr $C$DW$T$36, DW_AT_name("__SFR_FARPTR")
    1278                    .dwattr $C$DW$T$36, DW_AT_type(*$C$DW$T$35)
    1279                    .dwattr $C$DW$T$36, DW_AT_language(DW_LANG_C)
    1280                    .dwattr $C$DW$T$36, DW_AT_decl_file("D:\ti\ccsv6\ccs_base\msp430\include\msp430f5529.h")
    1281                    .dwattr $C$DW$T$36, DW_AT_decl_line(0x47)
    1282                    .dwattr $C$DW$T$36, DW_AT_decl_column(0x11)
    1283            
    1284            $C$DW$T$4       .dwtag  DW_TAG_base_type
    1285                    .dwattr $C$DW$T$4, DW_AT_encoding(DW_ATE_boolean)
    1286                    .dwattr $C$DW$T$4, DW_AT_name("bool")
    1287                    .dwattr $C$DW$T$4, DW_AT_byte_size(0x01)
    1288            
    1289            $C$DW$T$5       .dwtag  DW_TAG_base_type
    1290                    .dwattr $C$DW$T$5, DW_AT_encoding(DW_ATE_signed_char)
    1291                    .dwattr $C$DW$T$5, DW_AT_name("signed char")
    1292                    .dwattr $C$DW$T$5, DW_AT_byte_size(0x01)
    1293            
    1294            $C$DW$T$37      .dwtag  DW_TAG_typedef
    1295                    .dwattr $C$DW$T$37, DW_AT_name("int8_t")
    1296                    .dwattr $C$DW$T$37, DW_AT_type(*$C$DW$T$5)
    1297                    .dwattr $C$DW$T$37, DW_AT_language(DW_LANG_C)
    1298                    .dwattr $C$DW$T$37, DW_AT_decl_file("D:/ti/ccsv6/tools/compiler/msp430_15.12.3.LTS/include/std
    1299                    .dwattr $C$DW$T$37, DW_AT_decl_line(0x2a)
    1300                    .dwattr $C$DW$T$37, DW_AT_decl_column(0x1e)
    1301            
    1302            $C$DW$T$38      .dwtag  DW_TAG_typedef
    1303                    .dwattr $C$DW$T$38, DW_AT_name("int_least8_t")
    1304                    .dwattr $C$DW$T$38, DW_AT_type(*$C$DW$T$37)
    1305                    .dwattr $C$DW$T$38, DW_AT_language(DW_LANG_C)
    1306                    .dwattr $C$DW$T$38, DW_AT_decl_file("D:/ti/ccsv6/tools/compiler/msp430_15.12.3.LTS/include/std
    1307                    .dwattr $C$DW$T$38, DW_AT_decl_line(0x37)
    1308                    .dwattr $C$DW$T$38, DW_AT_decl_column(0x17)
    1309            
    1310            $C$DW$T$6       .dwtag  DW_TAG_base_type
    1311                    .dwattr $C$DW$T$6, DW_AT_encoding(DW_ATE_unsigned_char)
    1312                    .dwattr $C$DW$T$6, DW_AT_name("unsigned char")
    1313                    .dwattr $C$DW$T$6, DW_AT_byte_size(0x01)
    1314            
    1315            $C$DW$T$21      .dwtag  DW_TAG_typedef
    1316                    .dwattr $C$DW$T$21, DW_AT_name("uint8_t")
    1317                    .dwattr $C$DW$T$21, DW_AT_type(*$C$DW$T$6)
    1318                    .dwattr $C$DW$T$21, DW_AT_language(DW_LANG_C)
    1319                    .dwattr $C$DW$T$21, DW_AT_decl_file("D:/ti/ccsv6/tools/compiler/msp430_15.12.3.LTS/include/std
    1320                    .dwattr $C$DW$T$21, DW_AT_decl_line(0x2b)
    1321                    .dwattr $C$DW$T$21, DW_AT_decl_column(0x1d)
    1322            
    1323            $C$DW$T$47      .dwtag  DW_TAG_typedef
    1324                    .dwattr $C$DW$T$47, DW_AT_name("uint_least8_t")
    1325                    .dwattr $C$DW$T$47, DW_AT_type(*$C$DW$T$21)
    1326                    .dwattr $C$DW$T$47, DW_AT_language(DW_LANG_C)
MSP430 Assembler PC v15.12.3 Mon Oct 17 14:33:14 2016

Tools Copyright (c) 2003-2015 Texas Instruments Incorporated
C:\Users\madis\AppData\Local\Temp\015282                             PAGE   26

    1327                    .dwattr $C$DW$T$47, DW_AT_decl_file("D:/ti/ccsv6/tools/compiler/msp430_15.12.3.LTS/include/std
    1328                    .dwattr $C$DW$T$47, DW_AT_decl_line(0x38)
    1329                    .dwattr $C$DW$T$47, DW_AT_decl_column(0x16)
    1330            
    1331            $C$DW$T$7       .dwtag  DW_TAG_base_type
    1332                    .dwattr $C$DW$T$7, DW_AT_encoding(DW_ATE_signed_char)
    1333                    .dwattr $C$DW$T$7, DW_AT_name("wchar_t")
    1334                    .dwattr $C$DW$T$7, DW_AT_byte_size(0x02)
    1335            
    1336            $C$DW$T$8       .dwtag  DW_TAG_base_type
    1337                    .dwattr $C$DW$T$8, DW_AT_encoding(DW_ATE_signed)
    1338                    .dwattr $C$DW$T$8, DW_AT_name("short")
    1339                    .dwattr $C$DW$T$8, DW_AT_byte_size(0x02)
    1340            
    1341            $C$DW$T$9       .dwtag  DW_TAG_base_type
    1342                    .dwattr $C$DW$T$9, DW_AT_encoding(DW_ATE_unsigned)
    1343                    .dwattr $C$DW$T$9, DW_AT_name("unsigned short")
    1344                    .dwattr $C$DW$T$9, DW_AT_byte_size(0x02)
    1345            
    1346            $C$DW$T$10      .dwtag  DW_TAG_base_type
    1347                    .dwattr $C$DW$T$10, DW_AT_encoding(DW_ATE_signed)
    1348                    .dwattr $C$DW$T$10, DW_AT_name("int")
    1349                    .dwattr $C$DW$T$10, DW_AT_byte_size(0x02)
    1350            
    1351            $C$DW$T$48      .dwtag  DW_TAG_typedef
    1352                    .dwattr $C$DW$T$48, DW_AT_name("int16_t")
    1353                    .dwattr $C$DW$T$48, DW_AT_type(*$C$DW$T$10)
    1354                    .dwattr $C$DW$T$48, DW_AT_language(DW_LANG_C)
    1355                    .dwattr $C$DW$T$48, DW_AT_decl_file("D:/ti/ccsv6/tools/compiler/msp430_15.12.3.LTS/include/std
    1356                    .dwattr $C$DW$T$48, DW_AT_decl_line(0x2c)
    1357                    .dwattr $C$DW$T$48, DW_AT_decl_column(0x1d)
    1358            
    1359            $C$DW$T$49      .dwtag  DW_TAG_typedef
    1360                    .dwattr $C$DW$T$49, DW_AT_name("int_fast16_t")
    1361                    .dwattr $C$DW$T$49, DW_AT_type(*$C$DW$T$48)
    1362                    .dwattr $C$DW$T$49, DW_AT_language(DW_LANG_C)
    1363                    .dwattr $C$DW$T$49, DW_AT_decl_file("D:/ti/ccsv6/tools/compiler/msp430_15.12.3.LTS/include/std
    1364                    .dwattr $C$DW$T$49, DW_AT_decl_line(0x47)
    1365                    .dwattr $C$DW$T$49, DW_AT_decl_column(0x17)
    1366            
    1367            $C$DW$T$50      .dwtag  DW_TAG_typedef
    1368                    .dwattr $C$DW$T$50, DW_AT_name("int_fast8_t")
    1369                    .dwattr $C$DW$T$50, DW_AT_type(*$C$DW$T$48)
    1370                    .dwattr $C$DW$T$50, DW_AT_language(DW_LANG_C)
    1371                    .dwattr $C$DW$T$50, DW_AT_decl_file("D:/ti/ccsv6/tools/compiler/msp430_15.12.3.LTS/include/std
    1372                    .dwattr $C$DW$T$50, DW_AT_decl_line(0x45)
    1373                    .dwattr $C$DW$T$50, DW_AT_decl_column(0x17)
    1374            
    1375            $C$DW$T$51      .dwtag  DW_TAG_typedef
    1376                    .dwattr $C$DW$T$51, DW_AT_name("int_least16_t")
    1377                    .dwattr $C$DW$T$51, DW_AT_type(*$C$DW$T$48)
    1378                    .dwattr $C$DW$T$51, DW_AT_language(DW_LANG_C)
    1379                    .dwattr $C$DW$T$51, DW_AT_decl_file("D:/ti/ccsv6/tools/compiler/msp430_15.12.3.LTS/include/std
    1380                    .dwattr $C$DW$T$51, DW_AT_decl_line(0x3a)
    1381                    .dwattr $C$DW$T$51, DW_AT_decl_column(0x17)
MSP430 Assembler PC v15.12.3 Mon Oct 17 14:33:14 2016

Tools Copyright (c) 2003-2015 Texas Instruments Incorporated
C:\Users\madis\AppData\Local\Temp\015282                             PAGE   27

    1382            
    1383            $C$DW$T$11      .dwtag  DW_TAG_base_type
    1384                    .dwattr $C$DW$T$11, DW_AT_encoding(DW_ATE_unsigned)
    1385                    .dwattr $C$DW$T$11, DW_AT_name("unsigned int")
    1386                    .dwattr $C$DW$T$11, DW_AT_byte_size(0x02)
    1387            
    1388            $C$DW$T$29      .dwtag  DW_TAG_typedef
    1389                    .dwattr $C$DW$T$29, DW_AT_name("uint16_t")
    1390                    .dwattr $C$DW$T$29, DW_AT_type(*$C$DW$T$11)
    1391                    .dwattr $C$DW$T$29, DW_AT_language(DW_LANG_C)
    1392                    .dwattr $C$DW$T$29, DW_AT_decl_file("D:/ti/ccsv6/tools/compiler/msp430_15.12.3.LTS/include/std
    1393                    .dwattr $C$DW$T$29, DW_AT_decl_line(0x2d)
    1394                    .dwattr $C$DW$T$29, DW_AT_decl_column(0x1c)
    1395            
    1396            $C$DW$T$54      .dwtag  DW_TAG_typedef
    1397                    .dwattr $C$DW$T$54, DW_AT_name("uint_fast16_t")
    1398                    .dwattr $C$DW$T$54, DW_AT_type(*$C$DW$T$29)
    1399                    .dwattr $C$DW$T$54, DW_AT_language(DW_LANG_C)
    1400                    .dwattr $C$DW$T$54, DW_AT_decl_file("D:/ti/ccsv6/tools/compiler/msp430_15.12.3.LTS/include/std
    1401                    .dwattr $C$DW$T$54, DW_AT_decl_line(0x48)
    1402                    .dwattr $C$DW$T$54, DW_AT_decl_column(0x16)
    1403            
    1404            $C$DW$T$55      .dwtag  DW_TAG_typedef
    1405                    .dwattr $C$DW$T$55, DW_AT_name("uint_fast8_t")
    1406                    .dwattr $C$DW$T$55, DW_AT_type(*$C$DW$T$29)
    1407                    .dwattr $C$DW$T$55, DW_AT_language(DW_LANG_C)
    1408                    .dwattr $C$DW$T$55, DW_AT_decl_file("D:/ti/ccsv6/tools/compiler/msp430_15.12.3.LTS/include/std
    1409                    .dwattr $C$DW$T$55, DW_AT_decl_line(0x46)
    1410                    .dwattr $C$DW$T$55, DW_AT_decl_column(0x16)
    1411            
    1412            $C$DW$T$56      .dwtag  DW_TAG_typedef
    1413                    .dwattr $C$DW$T$56, DW_AT_name("uint_least16_t")
    1414                    .dwattr $C$DW$T$56, DW_AT_type(*$C$DW$T$29)
    1415                    .dwattr $C$DW$T$56, DW_AT_language(DW_LANG_C)
    1416                    .dwattr $C$DW$T$56, DW_AT_decl_file("D:/ti/ccsv6/tools/compiler/msp430_15.12.3.LTS/include/std
    1417                    .dwattr $C$DW$T$56, DW_AT_decl_line(0x3b)
    1418                    .dwattr $C$DW$T$56, DW_AT_decl_column(0x16)
    1419            
    1420            $C$DW$T$12      .dwtag  DW_TAG_base_type
    1421                    .dwattr $C$DW$T$12, DW_AT_encoding(DW_ATE_signed)
    1422                    .dwattr $C$DW$T$12, DW_AT_name("long")
    1423                    .dwattr $C$DW$T$12, DW_AT_byte_size(0x04)
    1424            
    1425            $C$DW$T$57      .dwtag  DW_TAG_typedef
    1426                    .dwattr $C$DW$T$57, DW_AT_name("int32_t")
    1427                    .dwattr $C$DW$T$57, DW_AT_type(*$C$DW$T$12)
    1428                    .dwattr $C$DW$T$57, DW_AT_language(DW_LANG_C)
    1429                    .dwattr $C$DW$T$57, DW_AT_decl_file("D:/ti/ccsv6/tools/compiler/msp430_15.12.3.LTS/include/std
    1430                    .dwattr $C$DW$T$57, DW_AT_decl_line(0x2e)
    1431                    .dwattr $C$DW$T$57, DW_AT_decl_column(0x1d)
    1432            
    1433            $C$DW$T$58      .dwtag  DW_TAG_typedef
    1434                    .dwattr $C$DW$T$58, DW_AT_name("int_fast32_t")
    1435                    .dwattr $C$DW$T$58, DW_AT_type(*$C$DW$T$57)
    1436                    .dwattr $C$DW$T$58, DW_AT_language(DW_LANG_C)
MSP430 Assembler PC v15.12.3 Mon Oct 17 14:33:14 2016

Tools Copyright (c) 2003-2015 Texas Instruments Incorporated
C:\Users\madis\AppData\Local\Temp\015282                             PAGE   28

    1437                    .dwattr $C$DW$T$58, DW_AT_decl_file("D:/ti/ccsv6/tools/compiler/msp430_15.12.3.LTS/include/std
    1438                    .dwattr $C$DW$T$58, DW_AT_decl_line(0x4a)
    1439                    .dwattr $C$DW$T$58, DW_AT_decl_column(0x17)
    1440            
    1441            $C$DW$T$59      .dwtag  DW_TAG_typedef
    1442                    .dwattr $C$DW$T$59, DW_AT_name("int_least32_t")
    1443                    .dwattr $C$DW$T$59, DW_AT_type(*$C$DW$T$57)
    1444                    .dwattr $C$DW$T$59, DW_AT_language(DW_LANG_C)
    1445                    .dwattr $C$DW$T$59, DW_AT_decl_file("D:/ti/ccsv6/tools/compiler/msp430_15.12.3.LTS/include/std
    1446                    .dwattr $C$DW$T$59, DW_AT_decl_line(0x3c)
    1447                    .dwattr $C$DW$T$59, DW_AT_decl_column(0x17)
    1448            
    1449            $C$DW$T$60      .dwtag  DW_TAG_typedef
    1450                    .dwattr $C$DW$T$60, DW_AT_name("intptr_t")
    1451                    .dwattr $C$DW$T$60, DW_AT_type(*$C$DW$T$12)
    1452                    .dwattr $C$DW$T$60, DW_AT_language(DW_LANG_C)
    1453                    .dwattr $C$DW$T$60, DW_AT_decl_file("D:/ti/ccsv6/tools/compiler/msp430_15.12.3.LTS/include/std
    1454                    .dwattr $C$DW$T$60, DW_AT_decl_line(0x55)
    1455                    .dwattr $C$DW$T$60, DW_AT_decl_column(0x1b)
    1456            
    1457            $C$DW$T$13      .dwtag  DW_TAG_base_type
    1458                    .dwattr $C$DW$T$13, DW_AT_encoding(DW_ATE_unsigned)
    1459                    .dwattr $C$DW$T$13, DW_AT_name("unsigned long")
    1460                    .dwattr $C$DW$T$13, DW_AT_byte_size(0x04)
    1461            
    1462            $C$DW$T$19      .dwtag  DW_TAG_typedef
    1463                    .dwattr $C$DW$T$19, DW_AT_name("uint32_t")
    1464                    .dwattr $C$DW$T$19, DW_AT_type(*$C$DW$T$13)
    1465                    .dwattr $C$DW$T$19, DW_AT_language(DW_LANG_C)
    1466                    .dwattr $C$DW$T$19, DW_AT_decl_file("D:/ti/ccsv6/tools/compiler/msp430_15.12.3.LTS/include/std
    1467                    .dwattr $C$DW$T$19, DW_AT_decl_line(0x2f)
    1468                    .dwattr $C$DW$T$19, DW_AT_decl_column(0x1c)
    1469            
    1470            $C$DW$T$63      .dwtag  DW_TAG_typedef
    1471                    .dwattr $C$DW$T$63, DW_AT_name("uint_fast32_t")
    1472                    .dwattr $C$DW$T$63, DW_AT_type(*$C$DW$T$19)
    1473                    .dwattr $C$DW$T$63, DW_AT_language(DW_LANG_C)
    1474                    .dwattr $C$DW$T$63, DW_AT_decl_file("D:/ti/ccsv6/tools/compiler/msp430_15.12.3.LTS/include/std
    1475                    .dwattr $C$DW$T$63, DW_AT_decl_line(0x4b)
    1476                    .dwattr $C$DW$T$63, DW_AT_decl_column(0x16)
    1477            
    1478            $C$DW$T$64      .dwtag  DW_TAG_typedef
    1479                    .dwattr $C$DW$T$64, DW_AT_name("uint_least32_t")
    1480                    .dwattr $C$DW$T$64, DW_AT_type(*$C$DW$T$19)
    1481                    .dwattr $C$DW$T$64, DW_AT_language(DW_LANG_C)
    1482                    .dwattr $C$DW$T$64, DW_AT_decl_file("D:/ti/ccsv6/tools/compiler/msp430_15.12.3.LTS/include/std
    1483                    .dwattr $C$DW$T$64, DW_AT_decl_line(0x3d)
    1484                    .dwattr $C$DW$T$64, DW_AT_decl_column(0x16)
    1485            
    1486            $C$DW$T$65      .dwtag  DW_TAG_typedef
    1487                    .dwattr $C$DW$T$65, DW_AT_name("uintptr_t")
    1488                    .dwattr $C$DW$T$65, DW_AT_type(*$C$DW$T$13)
    1489                    .dwattr $C$DW$T$65, DW_AT_language(DW_LANG_C)
    1490                    .dwattr $C$DW$T$65, DW_AT_decl_file("D:/ti/ccsv6/tools/compiler/msp430_15.12.3.LTS/include/std
    1491                    .dwattr $C$DW$T$65, DW_AT_decl_line(0x56)
MSP430 Assembler PC v15.12.3 Mon Oct 17 14:33:14 2016

Tools Copyright (c) 2003-2015 Texas Instruments Incorporated
C:\Users\madis\AppData\Local\Temp\015282                             PAGE   29

    1492                    .dwattr $C$DW$T$65, DW_AT_decl_column(0x1b)
    1493            
    1494            $C$DW$T$14      .dwtag  DW_TAG_base_type
    1495                    .dwattr $C$DW$T$14, DW_AT_encoding(DW_ATE_signed)
    1496                    .dwattr $C$DW$T$14, DW_AT_name("long long")
    1497                    .dwattr $C$DW$T$14, DW_AT_byte_size(0x08)
    1498            
    1499            $C$DW$T$66      .dwtag  DW_TAG_typedef
    1500                    .dwattr $C$DW$T$66, DW_AT_name("int64_t")
    1501                    .dwattr $C$DW$T$66, DW_AT_type(*$C$DW$T$14)
    1502                    .dwattr $C$DW$T$66, DW_AT_language(DW_LANG_C)
    1503                    .dwattr $C$DW$T$66, DW_AT_decl_file("D:/ti/ccsv6/tools/compiler/msp430_15.12.3.LTS/include/std
    1504                    .dwattr $C$DW$T$66, DW_AT_decl_line(0x32)
    1505                    .dwattr $C$DW$T$66, DW_AT_decl_column(0x21)
    1506            
    1507            $C$DW$T$67      .dwtag  DW_TAG_typedef
    1508                    .dwattr $C$DW$T$67, DW_AT_name("int_fast64_t")
    1509                    .dwattr $C$DW$T$67, DW_AT_type(*$C$DW$T$66)
    1510                    .dwattr $C$DW$T$67, DW_AT_language(DW_LANG_C)
    1511                    .dwattr $C$DW$T$67, DW_AT_decl_file("D:/ti/ccsv6/tools/compiler/msp430_15.12.3.LTS/include/std
    1512                    .dwattr $C$DW$T$67, DW_AT_decl_line(0x4e)
    1513                    .dwattr $C$DW$T$67, DW_AT_decl_column(0x17)
    1514            
    1515            $C$DW$T$68      .dwtag  DW_TAG_typedef
    1516                    .dwattr $C$DW$T$68, DW_AT_name("int_least64_t")
    1517                    .dwattr $C$DW$T$68, DW_AT_type(*$C$DW$T$66)
    1518                    .dwattr $C$DW$T$68, DW_AT_language(DW_LANG_C)
    1519                    .dwattr $C$DW$T$68, DW_AT_decl_file("D:/ti/ccsv6/tools/compiler/msp430_15.12.3.LTS/include/std
    1520                    .dwattr $C$DW$T$68, DW_AT_decl_line(0x40)
    1521                    .dwattr $C$DW$T$68, DW_AT_decl_column(0x17)
    1522            
    1523            $C$DW$T$69      .dwtag  DW_TAG_typedef
    1524                    .dwattr $C$DW$T$69, DW_AT_name("intmax_t")
    1525                    .dwattr $C$DW$T$69, DW_AT_type(*$C$DW$T$14)
    1526                    .dwattr $C$DW$T$69, DW_AT_language(DW_LANG_C)
    1527                    .dwattr $C$DW$T$69, DW_AT_decl_file("D:/ti/ccsv6/tools/compiler/msp430_15.12.3.LTS/include/std
    1528                    .dwattr $C$DW$T$69, DW_AT_decl_line(0x5d)
    1529                    .dwattr $C$DW$T$69, DW_AT_decl_column(0x20)
    1530            
    1531            $C$DW$T$15      .dwtag  DW_TAG_base_type
    1532                    .dwattr $C$DW$T$15, DW_AT_encoding(DW_ATE_unsigned)
    1533                    .dwattr $C$DW$T$15, DW_AT_name("unsigned long long")
    1534                    .dwattr $C$DW$T$15, DW_AT_byte_size(0x08)
    1535            
    1536            $C$DW$T$70      .dwtag  DW_TAG_typedef
    1537                    .dwattr $C$DW$T$70, DW_AT_name("uint64_t")
    1538                    .dwattr $C$DW$T$70, DW_AT_type(*$C$DW$T$15)
    1539                    .dwattr $C$DW$T$70, DW_AT_language(DW_LANG_C)
    1540                    .dwattr $C$DW$T$70, DW_AT_decl_file("D:/ti/ccsv6/tools/compiler/msp430_15.12.3.LTS/include/std
    1541                    .dwattr $C$DW$T$70, DW_AT_decl_line(0x33)
    1542                    .dwattr $C$DW$T$70, DW_AT_decl_column(0x20)
    1543            
    1544            $C$DW$T$71      .dwtag  DW_TAG_typedef
    1545                    .dwattr $C$DW$T$71, DW_AT_name("uint_fast64_t")
    1546                    .dwattr $C$DW$T$71, DW_AT_type(*$C$DW$T$70)
MSP430 Assembler PC v15.12.3 Mon Oct 17 14:33:14 2016

Tools Copyright (c) 2003-2015 Texas Instruments Incorporated
C:\Users\madis\AppData\Local\Temp\015282                             PAGE   30

    1547                    .dwattr $C$DW$T$71, DW_AT_language(DW_LANG_C)
    1548                    .dwattr $C$DW$T$71, DW_AT_decl_file("D:/ti/ccsv6/tools/compiler/msp430_15.12.3.LTS/include/std
    1549                    .dwattr $C$DW$T$71, DW_AT_decl_line(0x4f)
    1550                    .dwattr $C$DW$T$71, DW_AT_decl_column(0x16)
    1551            
    1552            $C$DW$T$72      .dwtag  DW_TAG_typedef
    1553                    .dwattr $C$DW$T$72, DW_AT_name("uint_least64_t")
    1554                    .dwattr $C$DW$T$72, DW_AT_type(*$C$DW$T$70)
    1555                    .dwattr $C$DW$T$72, DW_AT_language(DW_LANG_C)
    1556                    .dwattr $C$DW$T$72, DW_AT_decl_file("D:/ti/ccsv6/tools/compiler/msp430_15.12.3.LTS/include/std
    1557                    .dwattr $C$DW$T$72, DW_AT_decl_line(0x41)
    1558                    .dwattr $C$DW$T$72, DW_AT_decl_column(0x16)
    1559            
    1560            $C$DW$T$73      .dwtag  DW_TAG_typedef
    1561                    .dwattr $C$DW$T$73, DW_AT_name("uintmax_t")
    1562                    .dwattr $C$DW$T$73, DW_AT_type(*$C$DW$T$15)
    1563                    .dwattr $C$DW$T$73, DW_AT_language(DW_LANG_C)
    1564                    .dwattr $C$DW$T$73, DW_AT_decl_file("D:/ti/ccsv6/tools/compiler/msp430_15.12.3.LTS/include/std
    1565                    .dwattr $C$DW$T$73, DW_AT_decl_line(0x5e)
    1566                    .dwattr $C$DW$T$73, DW_AT_decl_column(0x20)
    1567            
    1568            $C$DW$T$16      .dwtag  DW_TAG_base_type
    1569                    .dwattr $C$DW$T$16, DW_AT_encoding(DW_ATE_float)
    1570                    .dwattr $C$DW$T$16, DW_AT_name("float")
    1571                    .dwattr $C$DW$T$16, DW_AT_byte_size(0x04)
    1572            
    1573            $C$DW$T$17      .dwtag  DW_TAG_base_type
    1574                    .dwattr $C$DW$T$17, DW_AT_encoding(DW_ATE_float)
    1575                    .dwattr $C$DW$T$17, DW_AT_name("double")
    1576                    .dwattr $C$DW$T$17, DW_AT_byte_size(0x08)
    1577            
    1578            $C$DW$T$18      .dwtag  DW_TAG_base_type
    1579                    .dwattr $C$DW$T$18, DW_AT_encoding(DW_ATE_float)
    1580                    .dwattr $C$DW$T$18, DW_AT_name("long double")
    1581                    .dwattr $C$DW$T$18, DW_AT_byte_size(0x08)
    1582            
    1583            $C$DW$T$74      .dwtag  DW_TAG_base_type
    1584                    .dwattr $C$DW$T$74, DW_AT_encoding(DW_ATE_unsigned_char)
    1585                    .dwattr $C$DW$T$74, DW_AT_name("unsigned char")
    1586                    .dwattr $C$DW$T$74, DW_AT_byte_size(0x01)
    1587            
    1588                    .dwattr $C$DW$CU, DW_AT_language(DW_LANG_C)
    1589            
    1590            ;***************************************************************
    1591            ;* DWARF CIE ENTRIES                                           *
    1592            ;***************************************************************
    1593            
    1594            $C$DW$CIE       .dwcie 16
    1595                    .dwcfi  cfa_register, 1
    1596                    .dwcfi  cfa_offset, 0
    1597                    .dwcfi  same_value, 0
    1598                    .dwcfi  same_value, 1
    1599                    .dwcfi  undefined, 2
    1600                    .dwcfi  same_value, 3
    1601                    .dwcfi  same_value, 4
MSP430 Assembler PC v15.12.3 Mon Oct 17 14:33:14 2016

Tools Copyright (c) 2003-2015 Texas Instruments Incorporated
C:\Users\madis\AppData\Local\Temp\015282                             PAGE   31

    1602                    .dwcfi  same_value, 5
    1603                    .dwcfi  same_value, 6
    1604                    .dwcfi  same_value, 7
    1605                    .dwcfi  same_value, 8
    1606                    .dwcfi  same_value, 9
    1607                    .dwcfi  same_value, 10
    1608                    .dwcfi  undefined, 11
    1609                    .dwcfi  undefined, 12
    1610                    .dwcfi  undefined, 13
    1611                    .dwcfi  undefined, 14
    1612                    .dwcfi  undefined, 15
    1613                    .dwcfi  undefined, 16
    1614                    .dwendentry
    1615            
    1616            ;***************************************************************
    1617            ;* DWARF REGISTER MAP                                          *
    1618            ;***************************************************************
    1619            
    1620            $C$DW$85        .dwtag  DW_TAG_TI_assign_register
    1621                    .dwattr $C$DW$85, DW_AT_name("PC")
    1622                    .dwattr $C$DW$85, DW_AT_location[DW_OP_reg0]
    1623            
    1624            $C$DW$86        .dwtag  DW_TAG_TI_assign_register
    1625                    .dwattr $C$DW$86, DW_AT_name("SP")
    1626                    .dwattr $C$DW$86, DW_AT_location[DW_OP_reg1]
    1627            
    1628            $C$DW$87        .dwtag  DW_TAG_TI_assign_register
    1629                    .dwattr $C$DW$87, DW_AT_name("SR")
    1630                    .dwattr $C$DW$87, DW_AT_location[DW_OP_reg2]
    1631            
    1632            $C$DW$88        .dwtag  DW_TAG_TI_assign_register
    1633                    .dwattr $C$DW$88, DW_AT_name("CG")
    1634                    .dwattr $C$DW$88, DW_AT_location[DW_OP_reg3]
    1635            
    1636            $C$DW$89        .dwtag  DW_TAG_TI_assign_register
    1637                    .dwattr $C$DW$89, DW_AT_name("r4")
    1638                    .dwattr $C$DW$89, DW_AT_location[DW_OP_reg4]
    1639            
    1640            $C$DW$90        .dwtag  DW_TAG_TI_assign_register
    1641                    .dwattr $C$DW$90, DW_AT_name("r5")
    1642                    .dwattr $C$DW$90, DW_AT_location[DW_OP_reg5]
    1643            
    1644            $C$DW$91        .dwtag  DW_TAG_TI_assign_register
    1645                    .dwattr $C$DW$91, DW_AT_name("r6")
    1646                    .dwattr $C$DW$91, DW_AT_location[DW_OP_reg6]
    1647            
    1648            $C$DW$92        .dwtag  DW_TAG_TI_assign_register
    1649                    .dwattr $C$DW$92, DW_AT_name("r7")
    1650                    .dwattr $C$DW$92, DW_AT_location[DW_OP_reg7]
    1651            
    1652            $C$DW$93        .dwtag  DW_TAG_TI_assign_register
    1653                    .dwattr $C$DW$93, DW_AT_name("r8")
    1654                    .dwattr $C$DW$93, DW_AT_location[DW_OP_reg8]
    1655            
    1656            $C$DW$94        .dwtag  DW_TAG_TI_assign_register
MSP430 Assembler PC v15.12.3 Mon Oct 17 14:33:14 2016

Tools Copyright (c) 2003-2015 Texas Instruments Incorporated
C:\Users\madis\AppData\Local\Temp\015282                             PAGE   32

    1657                    .dwattr $C$DW$94, DW_AT_name("r9")
    1658                    .dwattr $C$DW$94, DW_AT_location[DW_OP_reg9]
    1659            
    1660            $C$DW$95        .dwtag  DW_TAG_TI_assign_register
    1661                    .dwattr $C$DW$95, DW_AT_name("r10")
    1662                    .dwattr $C$DW$95, DW_AT_location[DW_OP_reg10]
    1663            
    1664            $C$DW$96        .dwtag  DW_TAG_TI_assign_register
    1665                    .dwattr $C$DW$96, DW_AT_name("r11")
    1666                    .dwattr $C$DW$96, DW_AT_location[DW_OP_reg11]
    1667            
    1668            $C$DW$97        .dwtag  DW_TAG_TI_assign_register
    1669                    .dwattr $C$DW$97, DW_AT_name("r12")
    1670                    .dwattr $C$DW$97, DW_AT_location[DW_OP_reg12]
    1671            
    1672            $C$DW$98        .dwtag  DW_TAG_TI_assign_register
    1673                    .dwattr $C$DW$98, DW_AT_name("r13")
    1674                    .dwattr $C$DW$98, DW_AT_location[DW_OP_reg13]
    1675            
    1676            $C$DW$99        .dwtag  DW_TAG_TI_assign_register
    1677                    .dwattr $C$DW$99, DW_AT_name("r14")
    1678                    .dwattr $C$DW$99, DW_AT_location[DW_OP_reg14]
    1679            
    1680            $C$DW$100       .dwtag  DW_TAG_TI_assign_register
    1681                    .dwattr $C$DW$100, DW_AT_name("r15")
    1682                    .dwattr $C$DW$100, DW_AT_location[DW_OP_reg15]
    1683            
    1684            $C$DW$101       .dwtag  DW_TAG_TI_assign_register
    1685                    .dwattr $C$DW$101, DW_AT_name("CIE_RETA")
    1686                    .dwattr $C$DW$101, DW_AT_location[DW_OP_reg16]
    1687            
    1688                    .dwendtag $C$DW$CU
    1689            

No Assembly Errors, No Assembly Warnings
